(lp1
ccollections
OrderedDict
p2
((lp3
(lp4
S'atoms'
p5
a(dp6
Vinfo
p7
(dp8
sVvolume
p9
F4039.1660972691434
sVnatoms
p10
I80
sVsymbol_counts
p11
(dp12
VCu
p13
I64
sVPd
p14
I16
ssVchemical_symbols
p15
(lp16
VPd
p17
aVCu
p18
asVatoms
p19
(lp20
(dp21
Vmagmom
p22
F0
sVindex
p23
I0
sVsymbol
p24
VCu
p25
sVcharge
p26
F0
sVtag
p27
I0
sVposition
p28
(lp29
F0.76620588226210185
aF8.6393353286364949
aF17.555313240600025
asVmomentum
p30
(lp31
F0
aF0
aF0
asa(dp32
Vmagmom
p33
F0
sVindex
p34
I1
sVsymbol
p35
VCu
p36
sVcharge
p37
F0
sVtag
p38
I0
sVposition
p39
(lp40
F6.6379858290943483
aF1.8633860512745437
aF20.169517284674562
asVmomentum
p41
(lp42
F0
aF0
aF0
asa(dp43
Vmagmom
p44
F0
sVindex
p45
I2
sVsymbol
p46
VCu
p47
sVcharge
p48
F0
sVtag
p49
I0
sVposition
p50
(lp51
F1.2551487760432867
aF5.9289556176917122
aF22.781554567093952
asVmomentum
p52
(lp53
F0
aF0
aF0
asa(dp54
Vmagmom
p55
F0
sVindex
p56
I3
sVsymbol
p57
VCu
p58
sVcharge
p59
F0
sVtag
p60
I0
sVposition
p61
(lp62
F6.1490429353131555
aF4.5737657622193204
aF14.943275958180642
asVmomentum
p63
(lp64
F0
aF0
aF0
asa(dp65
Vmagmom
p66
F0
sVindex
p67
I4
sVsymbol
p68
VCu
p69
sVcharge
p70
F0
sVtag
p71
I0
sVposition
p72
(lp73
F7.3736327804951118
aF10.672120111845079
aF17.991375041554978
asVmomentum
p74
(lp75
F0
aF0
aF0
asa(dp76
Vmagmom
p77
F0
sVindex
p78
I5
sVsymbol
p79
VCu
p80
sVcharge
p81
F0
sVtag
p82
I0
sVposition
p83
(lp84
F3.9465673025688215
aF3.8961708344831267
aF21.475535925884259
asVmomentum
p85
(lp86
F0
aF0
aF0
asa(dp87
Vmagmom
p88
F0
sVindex
p89
I6
sVsymbol
p90
VCu
p91
sVcharge
p92
F0
sVtag
p93
I0
sVposition
p94
(lp95
F-1.4362697504822428
aF7.9617404009002986
aF24.087573208303649
asVmomentum
p96
(lp97
F0
aF0
aF0
asa(dp98
Vmagmom
p99
F0
sVindex
p100
I7
sVsymbol
p101
VCu
p102
sVcharge
p103
F0
sVtag
p104
I0
sVposition
p105
(lp106
F3.4576244087876296
aF6.6065505454279059
aF16.249294599390332
asVmomentum
p107
(lp108
F0
aF0
aF0
asa(dp109
Vmagmom
p110
F0
sVindex
p111
I8
sVsymbol
p112
VCu
p113
sVcharge
p114
F0
sVtag
p115
I0
sVposition
p116
(lp117
F6.5168664110135426
aF8.9781327925045957
aF13.854204836620843
asVmomentum
p118
(lp119
F0
aF0
aF0
asa(dp120
Vmagmom
p121
F0
sVindex
p122
I9
sVsymbol
p123
VCu
p124
sVcharge
p125
F0
sVtag
p126
I0
sVposition
p127
(lp128
F3.0898009330872411
aF2.2021835151426385
aF17.338365720950129
asVmomentum
p129
(lp130
F0
aF0
aF0
asa(dp131
Vmagmom
p132
F0
sVindex
p133
I10
sVsymbol
p134
VCu
p135
sVcharge
p136
F0
sVtag
p137
I0
sVposition
p138
(lp139
F7.0058093047947363
aF6.2677530815598086
aF19.080446163114775
asVmomentum
p140
(lp141
F0
aF0
aF0
asa(dp142
Vmagmom
p143
F0
sVindex
p144
I11
sVsymbol
p145
VCu
p146
sVcharge
p147
F0
sVtag
p148
I0
sVposition
p149
(lp150
F1.622972251743672
aF10.333322647976987
aF21.692483445534162
asVmomentum
p151
(lp152
F0
aF0
aF0
asa(dp153
Vmagmom
p154
F0
sVindex
p155
I12
sVsymbol
p156
VCu
p157
sVcharge
p158
F0
sVtag
p159
I0
sVposition
p160
(lp161
F5.7812194596127737
aF0.16939873193404842
aF16.032347079740436
asVmomentum
p162
(lp163
F0
aF0
aF0
asa(dp164
Vmagmom
p165
F0
sVindex
p166
I13
sVsymbol
p167
VCu
p168
sVcharge
p169
F0
sVtag
p170
I0
sVposition
p171
(lp172
F0.39838240656171475
aF4.2349682983512231
aF18.644384362159823
asVmomentum
p173
(lp174
F0
aF0
aF0
asa(dp175
Vmagmom
p176
F0
sVindex
p177
I14
sVsymbol
p178
VCu
p179
sVcharge
p180
F0
sVtag
p181
I0
sVposition
p182
(lp183
F4.3143907782692068
aF8.3005378647683958
aF20.386464804324469
asVmomentum
p184
(lp185
F0
aF0
aF0
asa(dp186
Vmagmom
p187
F0
sVindex
p188
I15
sVsymbol
p189
VCu
p190
sVcharge
p191
F0
sVtag
p192
I0
sVposition
p193
(lp194
F0.88732530034290313
aF1.5245885874064404
aF23.870625688653742
asVmomentum
p195
(lp196
F0
aF0
aF0
asa(dp197
Vmagmom
p198
F0
sVindex
p199
I16
sVsymbol
p200
VCu
p201
sVcharge
p202
F0
sVtag
p203
I0
sVposition
p204
(lp205
F-0.69078685950386909
aF6.5080209384617458
aF17.870106758399874
asVmomentum
p206
(lp207
F0
aF0
aF0
asa(dp208
Vmagmom
p209
F0
sVindex
p210
I17
sVsymbol
p211
VCu
p212
sVcharge
p213
F0
sVtag
p214
I0
sVposition
p215
(lp216
F3.2252215122036212
aF10.573590504878918
aF19.612187200564513
asVmomentum
p217
(lp218
F0
aF0
aF0
asa(dp219
Vmagmom
p220
F0
sVindex
p221
I18
sVsymbol
p222
VCu
p223
sVcharge
p224
F0
sVtag
p225
I0
sVposition
p226
(lp227
F-0.20184396572267893
aF3.7976412275169631
aF23.096348084893801
asVmomentum
p228
(lp229
F0
aF0
aF0
asa(dp230
Vmagmom
p231
F0
sVindex
p232
I19
sVsymbol
p233
VCu
p234
sVcharge
p235
F0
sVtag
p236
I0
sVposition
p237
(lp238
F4.6920501935471899
aF2.4424513720445722
aF15.258069475980486
asVmomentum
p239
(lp240
F0
aF0
aF0
asa(dp241
Vmagmom
p242
F0
sVindex
p243
I20
sVsymbol
p244
VCu
p245
sVcharge
p246
F0
sVtag
p247
I0
sVposition
p248
(lp249
F-0.97868733167417865
aF10.380259120097227
aF21.266187559869689
asVmomentum
p250
(lp251
F0
aF0
aF0
asa(dp252
Vmagmom
p253
F0
sVindex
p254
I21
sVsymbol
p255
VCu
p256
sVcharge
p257
F0
sVtag
p258
I0
sVposition
p259
(lp260
F4.8930926151580687
aF3.604309842735268
aF23.880391603944222
asVmomentum
p261
(lp262
F0
aF0
aF0
asa(dp263
Vmagmom
p264
F0
sVindex
p265
I22
sVsymbol
p266
VCu
p267
sVcharge
p268
F0
sVtag
p269
I0
sVposition
p270
(lp271
F0.48814134966938738
aF2.2491199872628806
aF16.91206983528566
asVmomentum
p272
(lp273
F0
aF0
aF0
asa(dp274
Vmagmom
p275
F0
sVindex
p276
I23
sVsymbol
p277
VCu
p278
sVcharge
p279
F0
sVtag
p280
I0
sVposition
p281
(lp282
F4.4041497213768785
aF6.3146895536800489
aF18.654150277450295
asVmomentum
p283
(lp284
F0
aF0
aF0
asa(dp285
Vmagmom
p286
F0
sVindex
p287
I24
sVsymbol
p288
VCu
p289
sVcharge
p290
F0
sVtag
p291
I0
sVposition
p292
(lp293
F8.3828790430306217
aF0.12246225981380726
aF16.458642965404913
asVmomentum
p294
(lp295
F0
aF0
aF0
asa(dp296
Vmagmom
p297
F0
sVindex
p298
I25
sVsymbol
p299
VCu
p300
sVcharge
p301
F0
sVtag
p302
I0
sVposition
p303
(lp304
F3.0000419899795663
aF4.1880318262309792
aF19.070680247824296
asVmomentum
p305
(lp306
F0
aF0
aF0
asa(dp307
Vmagmom
p308
F0
sVindex
p309
I26
sVsymbol
p310
VCu
p311
sVcharge
p312
F0
sVtag
p313
I0
sVposition
p314
(lp315
F6.916050361687053
aF8.2536013926481555
aF20.812760689988941
asVmomentum
p316
(lp317
F0
aF0
aF0
asa(dp318
Vmagmom
p319
F0
sVindex
p320
I27
sVsymbol
p321
VCu
p322
sVcharge
p323
F0
sVtag
p324
I0
sVposition
p325
(lp326
F3.4889848837607529
aF1.4776521152861974
aF24.296921574318215
asVmomentum
p327
(lp328
F0
aF0
aF0
asa(dp329
Vmagmom
p330
F0
sVindex
p331
I28
sVsymbol
p332
VCu
p333
sVcharge
p334
F0
sVtag
p335
I0
sVposition
p336
(lp337
F2.2231986240280621
aF10.770649718811246
aF17.240519722800187
asVmomentum
p338
(lp339
F0
aF0
aF0
asa(dp340
Vmagmom
p341
F0
sVindex
p342
I29
sVsymbol
p343
VCu
p344
sVcharge
p345
F0
sVtag
p346
I0
sVposition
p347
(lp348
F8.0949785708603095
aF3.9947004414492921
aF19.854723766874727
asVmomentum
p349
(lp350
F0
aF0
aF0
asa(dp351
Vmagmom
p352
F0
sVindex
p353
I30
sVsymbol
p354
VCu
p355
sVcharge
p356
F0
sVtag
p357
I0
sVposition
p358
(lp359
F2.7121415178092523
aF8.060270007866464
aF22.466761049294114
asVmomentum
p360
(lp361
F0
aF0
aF0
asa(dp362
Vmagmom
p363
F0
sVindex
p364
I31
sVsymbol
p365
VCu
p366
sVcharge
p367
F0
sVtag
p368
I0
sVposition
p369
(lp370
F7.6060356770791246
aF6.7050801523940686
aF14.628482440380797
asVmomentum
p371
(lp372
F0
aF0
aF0
asa(dp373
Vmagmom
p374
F0
sVindex
p375
I32
sVsymbol
p376
VCu
p377
sVcharge
p378
F0
sVtag
p379
I0
sVposition
p380
(lp381
F0.63560862144341534
aF10.598622501289221
aF19.229733753480513
asVmomentum
p382
(lp383
F0
aF0
aF0
asa(dp384
Vmagmom
p385
F0
sVindex
p386
I33
sVsymbol
p387
VCu
p388
sVcharge
p389
F0
sVtag
p390
I0
sVposition
p391
(lp392
F6.5073885682756725
aF3.8226732239272629
aF21.843937797555046
asVmomentum
p393
(lp394
F0
aF0
aF0
asa(dp395
Vmagmom
p396
F0
sVindex
p397
I34
sVsymbol
p398
VCu
p399
sVcharge
p400
F0
sVtag
p401
I0
sVposition
p402
(lp403
F2.1024373027869916
aF2.4674833684548725
aF14.875616028896484
asVmomentum
p404
(lp405
F0
aF0
aF0
asa(dp406
Vmagmom
p407
F0
sVindex
p408
I35
sVsymbol
p409
VCu
p410
sVcharge
p411
F0
sVtag
p412
I0
sVposition
p413
(lp414
F6.018445674494477
aF6.5330529348720443
aF16.617696471061123
asVmomentum
p415
(lp416
F0
aF0
aF0
asa(dp417
Vmagmom
p418
F0
sVindex
p419
I36
sVsymbol
p420
VCu
p421
sVcharge
p422
F0
sVtag
p423
I0
sVposition
p424
(lp425
F8.2213390504425163
aF2.0427668948536151
aF18.129972609481687
asVmomentum
p426
(lp427
F0
aF0
aF0
asa(dp428
Vmagmom
p429
F0
sVindex
p430
I37
sVsymbol
p431
VCu
p432
sVcharge
p433
F0
sVtag
p434
I0
sVposition
p435
(lp436
F2.8385019973914591
aF6.1083364612707909
aF20.742009891901066
asVmomentum
p437
(lp438
F0
aF0
aF0
asa(dp439
Vmagmom
p440
F0
sVindex
p441
I38
sVsymbol
p442
VCu
p443
sVcharge
p444
F0
sVtag
p445
I0
sVposition
p446
(lp447
F6.7545103690989485
aF10.17390602768797
aF22.484090334065709
asVmomentum
p448
(lp449
F0
aF0
aF0
asa(dp450
Vmagmom
p451
F0
sVindex
p452
I39
sVsymbol
p453
VCu
p454
sVcharge
p455
F0
sVtag
p456
I0
sVposition
p457
(lp458
F2.3495591036102663
aF8.8187161722155771
aF15.515768565407145
asVmomentum
p459
(lp460
F0
aF0
aF0
asa(dp461
Vmagmom
p462
F0
sVindex
p463
I40
sVsymbol
p464
VCu
p465
sVcharge
p466
F0
sVtag
p467
I0
sVposition
p468
(lp469
F5.7983819131359411
aF10.486619691643233
aF20.02698802598961
asVmomentum
p470
(lp471
F0
aF0
aF0
asa(dp472
Vmagmom
p473
F0
sVindex
p474
I41
sVsymbol
p475
VCu
p476
sVcharge
p477
F0
sVtag
p478
I0
sVposition
p479
(lp480
F2.3713164352096454
aF3.7106704142812799
aF23.511148910318894
asVmomentum
p481
(lp482
F0
aF0
aF0
asa(dp483
Vmagmom
p484
F0
sVindex
p485
I42
sVsymbol
p486
VCu
p487
sVcharge
p488
F0
sVtag
p489
I0
sVposition
p490
(lp491
F7.265210594479516
aF2.355480558808885
aF15.672870301405583
asVmomentum
p492
(lp493
F0
aF0
aF0
asa(dp494
Vmagmom
p495
F0
sVindex
p496
I43
sVsymbol
p497
VCu
p498
sVcharge
p499
F0
sVtag
p500
I0
sVposition
p501
(lp502
F1.8823735414284561
aF6.4210501252260608
aF18.284907583824975
asVmomentum
p503
(lp504
F0
aF0
aF0
asa(dp505
Vmagmom
p506
F0
sVindex
p507
I44
sVsymbol
p508
VCu
p509
sVcharge
p510
F0
sVtag
p511
I0
sVposition
p512
(lp513
F7.5123323953027903
aF8.7067133625695909
aF16.31302283791625
asVmomentum
p514
(lp515
F0
aF0
aF0
asa(dp516
Vmagmom
p517
F0
sVindex
p518
I45
sVsymbol
p519
VCu
p520
sVcharge
p521
F0
sVtag
p522
I0
sVposition
p523
(lp524
F4.0852669173764902
aF1.930764085207644
aF19.797183722245528
asVmomentum
p525
(lp526
F0
aF0
aF0
asa(dp527
Vmagmom
p528
F0
sVindex
p529
I46
sVsymbol
p530
VCu
p531
sVcharge
p532
F0
sVtag
p533
I0
sVposition
p534
(lp535
F8.0012752890839813
aF5.9963336516248145
aF21.539264164410181
asVmomentum
p536
(lp537
F0
aF0
aF0
asa(dp538
Vmagmom
p539
F0
sVindex
p540
I47
sVsymbol
p541
VCu
p542
sVcharge
p543
F0
sVtag
p544
I0
sVposition
p545
(lp546
F3.5963240235952973
aF4.6411437961524244
aF14.570942395751606
asVmomentum
p547
(lp548
F0
aF0
aF0
asa(dp549
Vmagmom
p550
F0
sVindex
p551
I48
sVsymbol
p552
VCu
p553
sVcharge
p554
F0
sVtag
p555
I0
sVposition
p556
(lp557
F4.8128115147882653
aF10.74561772240094
aF17.622973169884183
asVmomentum
p558
(lp559
F0
aF0
aF0
asa(dp560
Vmagmom
p561
F0
sVindex
p562
I49
sVsymbol
p563
VCu
p564
sVcharge
p565
F0
sVtag
p566
I0
sVposition
p567
(lp568
F1.3857460368619661
aF3.9696684450389901
aF21.107134054213475
asVmomentum
p569
(lp570
F0
aF0
aF0
asa(dp571
Vmagmom
p572
F0
sVindex
p573
I50
sVsymbol
p574
VCu
p575
sVcharge
p576
F0
sVtag
p577
I0
sVposition
p578
(lp579
F5.301754408569459
aF8.0352380114561619
aF22.849214496378117
asVmomentum
p580
(lp581
F0
aF0
aF0
asa(dp582
Vmagmom
p583
F0
sVindex
p584
I51
sVsymbol
p585
VCu
p586
sVcharge
p587
F0
sVtag
p588
I0
sVposition
p589
(lp590
F0.89680314308077769
aF6.6800481559837701
aF15.880892727719546
asVmomentum
p591
(lp592
F0
aF0
aF0
asa(dp593
Vmagmom
p594
F0
sVindex
p595
I52
sVsymbol
p596
VCu
p597
sVcharge
p598
F0
sVtag
p599
I0
sVposition
p600
(lp601
F-0.81714733908606974
aF8.4599544850574127
aF19.594857915792915
asVmomentum
p602
(lp603
F0
aF0
aF0
asa(dp604
Vmagmom
p605
F0
sVindex
p606
I53
sVsymbol
p607
VCu
p608
sVcharge
p609
F0
sVtag
p610
I0
sVposition
p611
(lp612
F5.0546326077461803
aF1.6840052076954559
aF22.209061959867448
asVmomentum
p613
(lp614
F0
aF0
aF0
asa(dp615
Vmagmom
p616
F0
sVindex
p617
I54
sVsymbol
p618
VCu
p619
sVcharge
p620
F0
sVtag
p621
I0
sVposition
p622
(lp623
F0.64968134225749985
aF0.32881535222306368
aF15.240740191208879
asVmomentum
p624
(lp625
F0
aF0
aF0
asa(dp626
Vmagmom
p627
F0
sVindex
p628
I55
sVsymbol
p629
VCu
p630
sVcharge
p631
F0
sVtag
p632
I0
sVposition
p633
(lp634
F4.5656897139649857
aF4.3943849186402355
aF16.982820633373521
asVmomentum
p635
(lp636
F0
aF0
aF0
asa(dp637
Vmagmom
p638
F0
sVindex
p639
I56
sVsymbol
p640
VCu
p641
sVcharge
p642
F0
sVtag
p643
I0
sVposition
p644
(lp645
F1.6058097982205002
aF0.016101688267796899
aF17.697842499284985
asVmomentum
p646
(lp647
F0
aF0
aF0
asa(dp648
Vmagmom
p649
F0
sVindex
p650
I57
sVsymbol
p651
VCu
p652
sVcharge
p653
F0
sVtag
p654
I0
sVposition
p655
(lp656
F5.5218181699279922
aF4.0816712546849718
aF19.439922941449623
asVmomentum
p657
(lp658
F0
aF0
aF0
asa(dp659
Vmagmom
p660
F0
sVindex
p661
I58
sVsymbol
p662
VCu
p663
sVcharge
p664
F0
sVtag
p665
I0
sVposition
p666
(lp667
F0.13898111687693238
aF8.1472408211021481
aF22.05196022386901
asVmomentum
p668
(lp669
F0
aF0
aF0
asa(dp670
Vmagmom
p671
F0
sVindex
p672
I59
sVsymbol
p673
VCu
p674
sVcharge
p675
F0
sVtag
p676
I0
sVposition
p677
(lp678
F5.0328752761468003
aF6.7920509656297519
aF14.213681614955695
asVmomentum
p679
(lp680
F0
aF0
aF0
asa(dp681
Vmagmom
p682
F0
sVindex
p683
I60
sVsymbol
p684
VCu
p685
sVcharge
p686
F0
sVtag
p687
I0
sVposition
p688
(lp689
F-0.10814068394634546
aF1.7960080173414426
aF21.411807687358351
asVmomentum
p690
(lp691
F0
aF0
aF0
asa(dp692
Vmagmom
p693
F0
sVindex
p694
I61
sVsymbol
p695
VCu
p696
sVcharge
p697
F0
sVtag
p698
I0
sVposition
p699
(lp700
F3.8078676877611448
aF5.8615775837586117
aF23.15388812952299
asVmomentum
p701
(lp702
F0
aF0
aF0
asa(dp703
Vmagmom
p704
F0
sVindex
p705
I62
sVsymbol
p706
VCu
p707
sVcharge
p708
F0
sVtag
p709
I0
sVposition
p710
(lp711
F-0.59708357772753651
aF4.5063877282862261
aF16.185566360864424
asVmomentum
p712
(lp713
F0
aF0
aF0
asa(dp714
Vmagmom
p715
F0
sVindex
p716
I63
sVsymbol
p717
VCu
p718
sVcharge
p719
F0
sVtag
p720
I0
sVposition
p721
(lp722
F3.3189247939799591
aF8.5719572947033935
aF17.927646803029063
asVmomentum
p723
(lp724
F0
aF0
aF0
asa(dp725
Vmagmom
p726
F0
sVindex
p727
I64
sVsymbol
p728
VPd
p729
sVcharge
p730
F0
sVtag
p731
I0
sVposition
p732
(lp733
F1.7735699741730055
aF8.4053380300591236
aF19.99548095890589
asVmomentum
p734
(lp735
F0
aF0
aF0
asa(dp736
Vmagmom
p737
F0
sVindex
p738
I65
sVsymbol
p739
VPd
p740
sVcharge
p741
F0
sVtag
p742
I0
sVposition
p743
(lp744
F7.6453499210052502
aF1.6293887526971651
aF22.609685002980431
asVmomentum
p745
(lp746
F0
aF0
aF0
asa(dp747
Vmagmom
p748
F0
sVindex
p749
I66
sVsymbol
p750
VPd
p751
sVcharge
p752
F0
sVtag
p753
I0
sVposition
p754
(lp755
F3.2403986555165729
aF0.27419889722477508
aF15.641363234321862
asVmomentum
p756
(lp757
F0
aF0
aF0
asa(dp758
Vmagmom
p759
F0
sVindex
p760
I67
sVsymbol
p761
VPd
p762
sVcharge
p763
F0
sVtag
p764
I0
sVposition
p765
(lp766
F7.1564070272240627
aF4.3397684636419491
aF17.3834436764865
asVmomentum
p767
(lp768
F0
aF0
aF0
asa(dp769
Vmagmom
p770
F0
sVindex
p771
I68
sVsymbol
p772
VPd
p773
sVcharge
p774
F0
sVtag
p775
I0
sVposition
p776
(lp777
F1.4865039986190745
aF2.0101609185157669
aF19.341410419118642
asVmomentum
p778
(lp779
F0
aF0
aF0
asa(dp780
Vmagmom
p781
F0
sVindex
p782
I69
sVsymbol
p783
VPd
p784
sVcharge
p785
F0
sVtag
p786
I0
sVposition
p787
(lp788
F5.402512370326563
aF6.0757304849329401
aF21.083490861283281
asVmomentum
p789
(lp790
F0
aF0
aF0
asa(dp791
Vmagmom
p792
F0
sVindex
p793
I70
sVsymbol
p794
VPd
p795
sVcharge
p796
F0
sVtag
p797
I0
sVposition
p798
(lp799
F0.019675317275508419
aF10.141300051350111
aF23.695528143702667
asVmomentum
p800
(lp801
F0
aF0
aF0
asa(dp802
Vmagmom
p803
F0
sVindex
p804
I71
sVsymbol
p805
VPd
p806
sVcharge
p807
F0
sVtag
p808
I0
sVposition
p809
(lp810
F4.9135694765453781
aF8.7861101958777166
aF15.857249534789355
asVmomentum
p811
(lp812
F0
aF0
aF0
asa(dp813
Vmagmom
p814
F0
sVindex
p815
I72
sVsymbol
p816
VPd
p817
sVcharge
p818
F0
sVtag
p819
I0
sVposition
p820
(lp821
F5.9176877127373677
aF8.4925604613952679
aF18.383420106155963
asVmomentum
p822
(lp823
F0
aF0
aF0
asa(dp824
Vmagmom
p825
F0
sVindex
p826
I73
sVsymbol
p827
VPd
p828
sVcharge
p829
F0
sVtag
p830
I0
sVposition
p831
(lp832
F2.4906222348110649
aF1.7166111840333111
aF21.867580990485241
asVmomentum
p833
(lp834
F0
aF0
aF0
asa(dp835
Vmagmom
p836
F0
sVindex
p837
I74
sVsymbol
p838
VPd
p839
sVcharge
p840
F0
sVtag
p841
I0
sVposition
p842
(lp843
F6.4066306065185588
aF5.7821807504504825
aF23.609661432649883
asVmomentum
p844
(lp845
F0
aF0
aF0
asa(dp846
Vmagmom
p847
F0
sVindex
p848
I75
sVsymbol
p849
VPd
p850
sVcharge
p851
F0
sVtag
p852
I0
sVposition
p853
(lp854
F2.0016793410298765
aF4.4269908949780934
aF16.641339663991314
asVmomentum
p855
(lp856
F0
aF0
aF0
asa(dp857
Vmagmom
p858
F0
sVindex
p859
I76
sVsymbol
p860
VPd
p861
sVcharge
p862
F0
sVtag
p863
I0
sVposition
p864
(lp865
F-0.2411582096488063
aF8.8733326272138697
aF15.115145522294171
asVmomentum
p866
(lp867
F0
aF0
aF0
asa(dp868
Vmagmom
p869
F0
sVindex
p870
I77
sVsymbol
p871
VPd
p872
sVcharge
p873
F0
sVtag
p874
I0
sVposition
p875
(lp876
F5.6306217371834428
aF2.0973833498519094
aF17.729349566368708
asVmomentum
p877
(lp878
F0
aF0
aF0
asa(dp879
Vmagmom
p880
F0
sVindex
p881
I78
sVsymbol
p882
VPd
p883
sVcharge
p884
F0
sVtag
p885
I0
sVposition
p886
(lp887
F0.24778468413237853
aF6.1629529162690897
aF20.341386848788101
asVmomentum
p888
(lp889
F0
aF0
aF0
asa(dp890
Vmagmom
p891
F0
sVindex
p892
I79
sVsymbol
p893
VPd
p894
sVcharge
p895
F0
sVtag
p896
I0
sVposition
p897
(lp898
F4.1637930558398732
aF10.228522482686261
aF22.083467290952736
asVmomentum
p899
(lp900
F0
aF0
aF0
asasVcell
p901
(lp902
(lp903
F9.2988454247585501
aF-8.8817841970012523e-16
aF-0.86995684025474507
aa(lp904
F-1.9557715751247589
aF10.841518843779127
aF-0.87212360190989635
aa(lp905
F1.7763568394002505e-15
aF1.7763568394002505e-15
aF40.065683408131605
aasVmass
p906
F5769.6639999999961
sVpbc
p907
(lp908
I01
aI01
aI01
asVspacegroup
p909
VP1 (1)
p910
sVconstraints
p911
(lp912
(dp913
Vname
p914
VFixAtoms
p915
sVkwargs
p916
(dp917
Vindices
p918
(lp919
I0
aI1
aI3
aI4
aI7
aI8
aI9
aI10
aI12
aI13
aI14
aI16
aI17
aI19
aI22
aI23
aI24
aI25
aI28
aI29
aI31
aI32
aI34
aI35
aI36
aI37
aI39
aI40
aI42
aI43
aI44
aI45
aI47
aI48
aI49
aI51
aI52
aI54
aI55
aI56
aI57
aI59
aI60
aI62
aI63
aI64
aI66
aI67
aI68
aI71
aI72
aI75
aI76
aI77
aI78
assasaa(lp920
S'results'
p921
ag2
((ltRp922
aa(lp923
S'user'
p924
aS'ktran'
p925
aa(lp926
S'inserted-hash'
p927
aS'c337f80ae1ee9586b0e10c96eb4b3e23503df875'
p928
aa(lp929
S'ctime'
p930
acdatetime
datetime
p931
(S'\x07\xe1\x03\x1f\x13-\x02\x0c2p'
tRp932
aa(lp933
S'mtime'
p934
ag931
(S'\x07\xe1\x03\x1f\x13-\x02\x0c2\x96'
tRp935
aa(lp936
S'tags'
p937
a(dp938
S'get_slab_settings'
p939
g2
((lp940
(lp941
S'max_broken_bonds'
p942
aI0
aa(lp943
S'bonds'
p944
aNaa(lp945
S'tol'
p946
aF0.29999999999999999
aa(lp947
S'symmetrize'
p948
aI00
aatRp949
sS'relaxed'
p950
I00
sS'mpid'
p951
Vmp-30594
p952
sS'shift'
p953
cnumpy.core.multiarray
scalar
p954
(cnumpy
dtype
p955
(S'f8'
I0
I1
tRp956
(I3
S'<'
NNNI-1
I-1
I0
tbS'\xb0\x11\xdd\xb3\xaeQ\xa1?'
tRp957
sS'slab_generate_settings'
p958
g2
((lp959
(lp960
S'primitive'
p961
aI01
aa(lp962
S'min_vacuum_size'
p963
aF20
aa(lp964
S'lll_reduce'
p965
aI00
aa(lp966
S'max_normal_search'
p967
aI1
aa(lp968
S'min_slab_size'
p969
aF7
aa(lp970
S'center_slab'
p971
aI01
aatRp972
sS'miller'
p973
(I2
I1
I1
tp974
sS'top'
p975
I01
sS'type'
p976
S'slab'
p977
sS'num_slab_atoms'
p978
I80
saatRp979
ag2
((lp980
(lp981
g5
a(dp982
Vinfo
p983
(dp984
sVvolume
p985
F4039.1660972691434
sVnatoms
p986
I80
sVsymbol_counts
p987
(dp988
VCu
p989
I64
sVPd
p990
I16
ssVchemical_symbols
p991
(lp992
VPd
p993
aVCu
p994
asVatoms
p995
(lp996
(dp997
Vmagmom
p998
F0
sVindex
p999
I0
sVsymbol
p1000
VCu
p1001
sVcharge
p1002
F0
sVtag
p1003
I0
sVposition
p1004
(lp1005
F0.76620588226210185
aF-8.6393353286364967
aF-17.555313240600025
asVmomentum
p1006
(lp1007
F0
aF0
aF0
asa(dp1008
Vmagmom
p1009
F0
sVindex
p1010
I1
sVsymbol
p1011
VCu
p1012
sVcharge
p1013
F0
sVtag
p1014
I0
sVposition
p1015
(lp1016
F6.6379858290943483
aF-1.8633860512745462
aF-20.169517284674562
asVmomentum
p1017
(lp1018
F0
aF0
aF0
asa(dp1019
Vmagmom
p1020
F0
sVindex
p1021
I2
sVsymbol
p1022
VCu
p1023
sVcharge
p1024
F0
sVtag
p1025
I0
sVposition
p1026
(lp1027
F1.2551487760432867
aF-5.9289556176917149
aF-22.781554567093952
asVmomentum
p1028
(lp1029
F0
aF0
aF0
asa(dp1030
Vmagmom
p1031
F0
sVindex
p1032
I3
sVsymbol
p1033
VCu
p1034
sVcharge
p1035
F0
sVtag
p1036
I0
sVposition
p1037
(lp1038
F6.1490429353131555
aF-4.5737657622193222
aF-14.943275958180642
asVmomentum
p1039
(lp1040
F0
aF0
aF0
asa(dp1041
Vmagmom
p1042
F0
sVindex
p1043
I4
sVsymbol
p1044
VCu
p1045
sVcharge
p1046
F0
sVtag
p1047
I0
sVposition
p1048
(lp1049
F7.3736327804951118
aF-10.67212011184508
aF-17.991375041554978
asVmomentum
p1050
(lp1051
F0
aF0
aF0
asa(dp1052
Vmagmom
p1053
F0
sVindex
p1054
I5
sVsymbol
p1055
VCu
p1056
sVcharge
p1057
F0
sVtag
p1058
I0
sVposition
p1059
(lp1060
F3.9465673025688215
aF-3.8961708344831294
aF-21.475535925884259
asVmomentum
p1061
(lp1062
F0
aF0
aF0
asa(dp1063
Vmagmom
p1064
F0
sVindex
p1065
I6
sVsymbol
p1066
VCu
p1067
sVcharge
p1068
F0
sVtag
p1069
I0
sVposition
p1070
(lp1071
F-1.4362697504822428
aF-7.9617404009003012
aF-24.087573208303649
asVmomentum
p1072
(lp1073
F0
aF0
aF0
asa(dp1074
Vmagmom
p1075
F0
sVindex
p1076
I7
sVsymbol
p1077
VCu
p1078
sVcharge
p1079
F0
sVtag
p1080
I0
sVposition
p1081
(lp1082
F3.4576244087876296
aF-6.6065505454279077
aF-16.249294599390332
asVmomentum
p1083
(lp1084
F0
aF0
aF0
asa(dp1085
Vmagmom
p1086
F0
sVindex
p1087
I8
sVsymbol
p1088
VCu
p1089
sVcharge
p1090
F0
sVtag
p1091
I0
sVposition
p1092
(lp1093
F6.5168664110135426
aF-8.9781327925045975
aF-13.854204836620841
asVmomentum
p1094
(lp1095
F0
aF0
aF0
asa(dp1096
Vmagmom
p1097
F0
sVindex
p1098
I9
sVsymbol
p1099
VCu
p1100
sVcharge
p1101
F0
sVtag
p1102
I0
sVposition
p1103
(lp1104
F3.0898009330872411
aF-2.2021835151426408
aF-17.338365720950129
asVmomentum
p1105
(lp1106
F0
aF0
aF0
asa(dp1107
Vmagmom
p1108
F0
sVindex
p1109
I10
sVsymbol
p1110
VCu
p1111
sVcharge
p1112
F0
sVtag
p1113
I0
sVposition
p1114
(lp1115
F7.0058093047947363
aF-6.2677530815598113
aF-19.080446163114775
asVmomentum
p1116
(lp1117
F0
aF0
aF0
asa(dp1118
Vmagmom
p1119
F0
sVindex
p1120
I11
sVsymbol
p1121
VCu
p1122
sVcharge
p1123
F0
sVtag
p1124
I0
sVposition
p1125
(lp1126
F1.622972251743672
aF-10.333322647976988
aF-21.692483445534162
asVmomentum
p1127
(lp1128
F0
aF0
aF0
asa(dp1129
Vmagmom
p1130
F0
sVindex
p1131
I12
sVsymbol
p1132
VCu
p1133
sVcharge
p1134
F0
sVtag
p1135
I0
sVposition
p1136
(lp1137
F5.7812194596127737
aF-0.16939873193405039
aF-16.032347079740436
asVmomentum
p1138
(lp1139
F0
aF0
aF0
asa(dp1140
Vmagmom
p1141
F0
sVindex
p1142
I13
sVsymbol
p1143
VCu
p1144
sVcharge
p1145
F0
sVtag
p1146
I0
sVposition
p1147
(lp1148
F0.39838240656171475
aF-4.2349682983512258
aF-18.644384362159823
asVmomentum
p1149
(lp1150
F0
aF0
aF0
asa(dp1151
Vmagmom
p1152
F0
sVindex
p1153
I14
sVsymbol
p1154
VCu
p1155
sVcharge
p1156
F0
sVtag
p1157
I0
sVposition
p1158
(lp1159
F4.3143907782692068
aF-8.3005378647683976
aF-20.386464804324469
asVmomentum
p1160
(lp1161
F0
aF0
aF0
asa(dp1162
Vmagmom
p1163
F0
sVindex
p1164
I15
sVsymbol
p1165
VCu
p1166
sVcharge
p1167
F0
sVtag
p1168
I0
sVposition
p1169
(lp1170
F0.88732530034290313
aF-1.5245885874064433
aF-23.870625688653742
asVmomentum
p1171
(lp1172
F0
aF0
aF0
asa(dp1173
Vmagmom
p1174
F0
sVindex
p1175
I16
sVsymbol
p1176
VCu
p1177
sVcharge
p1178
F0
sVtag
p1179
I0
sVposition
p1180
(lp1181
F-0.69078685950386909
aF-6.5080209384617476
aF-17.870106758399874
asVmomentum
p1182
(lp1183
F0
aF0
aF0
asa(dp1184
Vmagmom
p1185
F0
sVindex
p1186
I17
sVsymbol
p1187
VCu
p1188
sVcharge
p1189
F0
sVtag
p1190
I0
sVposition
p1191
(lp1192
F3.2252215122036212
aF-10.57359050487892
aF-19.612187200564513
asVmomentum
p1193
(lp1194
F0
aF0
aF0
asa(dp1195
Vmagmom
p1196
F0
sVindex
p1197
I18
sVsymbol
p1198
VCu
p1199
sVcharge
p1200
F0
sVtag
p1201
I0
sVposition
p1202
(lp1203
F-0.20184396572267893
aF-3.7976412275169658
aF-23.096348084893801
asVmomentum
p1204
(lp1205
F0
aF0
aF0
asa(dp1206
Vmagmom
p1207
F0
sVindex
p1208
I19
sVsymbol
p1209
VCu
p1210
sVcharge
p1211
F0
sVtag
p1212
I0
sVposition
p1213
(lp1214
F4.6920501935471899
aF-2.442451372044574
aF-15.258069475980486
asVmomentum
p1215
(lp1216
F0
aF0
aF0
asa(dp1217
Vmagmom
p1218
F0
sVindex
p1219
I20
sVsymbol
p1220
VCu
p1221
sVcharge
p1222
F0
sVtag
p1223
I0
sVposition
p1224
(lp1225
F-0.97868733167417865
aF-10.380259120097229
aF-21.266187559869689
asVmomentum
p1226
(lp1227
F0
aF0
aF0
asa(dp1228
Vmagmom
p1229
F0
sVindex
p1230
I21
sVsymbol
p1231
VCu
p1232
sVcharge
p1233
F0
sVtag
p1234
I0
sVposition
p1235
(lp1236
F4.8930926151580687
aF-3.6043098427352711
aF-23.880391603944222
asVmomentum
p1237
(lp1238
F0
aF0
aF0
asa(dp1239
Vmagmom
p1240
F0
sVindex
p1241
I22
sVsymbol
p1242
VCu
p1243
sVcharge
p1244
F0
sVtag
p1245
I0
sVposition
p1246
(lp1247
F0.48814134966938738
aF-2.2491199872628829
aF-16.91206983528566
asVmomentum
p1248
(lp1249
F0
aF0
aF0
asa(dp1250
Vmagmom
p1251
F0
sVindex
p1252
I23
sVsymbol
p1253
VCu
p1254
sVcharge
p1255
F0
sVtag
p1256
I0
sVposition
p1257
(lp1258
F4.4041497213768785
aF-6.3146895536800516
aF-18.654150277450295
asVmomentum
p1259
(lp1260
F0
aF0
aF0
asa(dp1261
Vmagmom
p1262
F0
sVindex
p1263
I24
sVsymbol
p1264
VCu
p1265
sVcharge
p1266
F0
sVtag
p1267
I0
sVposition
p1268
(lp1269
F8.3828790430306217
aF-0.12246225981380927
aF-16.458642965404913
asVmomentum
p1270
(lp1271
F0
aF0
aF0
asa(dp1272
Vmagmom
p1273
F0
sVindex
p1274
I25
sVsymbol
p1275
VCu
p1276
sVcharge
p1277
F0
sVtag
p1278
I0
sVposition
p1279
(lp1280
F3.0000419899795663
aF-4.1880318262309819
aF-19.070680247824296
asVmomentum
p1281
(lp1282
F0
aF0
aF0
asa(dp1283
Vmagmom
p1284
F0
sVindex
p1285
I26
sVsymbol
p1286
VCu
p1287
sVcharge
p1288
F0
sVtag
p1289
I0
sVposition
p1290
(lp1291
F6.916050361687053
aF-8.2536013926481573
aF-20.812760689988941
asVmomentum
p1292
(lp1293
F0
aF0
aF0
asa(dp1294
Vmagmom
p1295
F0
sVindex
p1296
I27
sVsymbol
p1297
VCu
p1298
sVcharge
p1299
F0
sVtag
p1300
I0
sVposition
p1301
(lp1302
F3.4889848837607529
aF-1.4776521152862003
aF-24.296921574318215
asVmomentum
p1303
(lp1304
F0
aF0
aF0
asa(dp1305
Vmagmom
p1306
F0
sVindex
p1307
I28
sVsymbol
p1308
VCu
p1309
sVcharge
p1310
F0
sVtag
p1311
I0
sVposition
p1312
(lp1313
F2.2231986240280621
aF-10.770649718811248
aF-17.240519722800187
asVmomentum
p1314
(lp1315
F0
aF0
aF0
asa(dp1316
Vmagmom
p1317
F0
sVindex
p1318
I29
sVsymbol
p1319
VCu
p1320
sVcharge
p1321
F0
sVtag
p1322
I0
sVposition
p1323
(lp1324
F8.0949785708603095
aF-3.9947004414492944
aF-19.854723766874727
asVmomentum
p1325
(lp1326
F0
aF0
aF0
asa(dp1327
Vmagmom
p1328
F0
sVindex
p1329
I30
sVsymbol
p1330
VCu
p1331
sVcharge
p1332
F0
sVtag
p1333
I0
sVposition
p1334
(lp1335
F2.7121415178092523
aF-8.0602700078664675
aF-22.466761049294114
asVmomentum
p1336
(lp1337
F0
aF0
aF0
asa(dp1338
Vmagmom
p1339
F0
sVindex
p1340
I31
sVsymbol
p1341
VCu
p1342
sVcharge
p1343
F0
sVtag
p1344
I0
sVposition
p1345
(lp1346
F7.6060356770791246
aF-6.7050801523940704
aF-14.628482440380797
asVmomentum
p1347
(lp1348
F0
aF0
aF0
asa(dp1349
Vmagmom
p1350
F0
sVindex
p1351
I32
sVsymbol
p1352
VCu
p1353
sVcharge
p1354
F0
sVtag
p1355
I0
sVposition
p1356
(lp1357
F0.63560862144341534
aF-10.598622501289222
aF-19.229733753480513
asVmomentum
p1358
(lp1359
F0
aF0
aF0
asa(dp1360
Vmagmom
p1361
F0
sVindex
p1362
I33
sVsymbol
p1363
VCu
p1364
sVcharge
p1365
F0
sVtag
p1366
I0
sVposition
p1367
(lp1368
F6.5073885682756725
aF-3.8226732239272656
aF-21.843937797555046
asVmomentum
p1369
(lp1370
F0
aF0
aF0
asa(dp1371
Vmagmom
p1372
F0
sVindex
p1373
I34
sVsymbol
p1374
VCu
p1375
sVcharge
p1376
F0
sVtag
p1377
I0
sVposition
p1378
(lp1379
F2.1024373027869916
aF-2.4674833684548743
aF-14.875616028896484
asVmomentum
p1380
(lp1381
F0
aF0
aF0
asa(dp1382
Vmagmom
p1383
F0
sVindex
p1384
I35
sVsymbol
p1385
VCu
p1386
sVcharge
p1387
F0
sVtag
p1388
I0
sVposition
p1389
(lp1390
F6.018445674494477
aF-6.5330529348720461
aF-16.617696471061123
asVmomentum
p1391
(lp1392
F0
aF0
aF0
asa(dp1393
Vmagmom
p1394
F0
sVindex
p1395
I36
sVsymbol
p1396
VCu
p1397
sVcharge
p1398
F0
sVtag
p1399
I0
sVposition
p1400
(lp1401
F8.2213390504425163
aF-2.0427668948536173
aF-18.129972609481687
asVmomentum
p1402
(lp1403
F0
aF0
aF0
asa(dp1404
Vmagmom
p1405
F0
sVindex
p1406
I37
sVsymbol
p1407
VCu
p1408
sVcharge
p1409
F0
sVtag
p1410
I0
sVposition
p1411
(lp1412
F2.8385019973914591
aF-6.1083364612707935
aF-20.742009891901066
asVmomentum
p1413
(lp1414
F0
aF0
aF0
asa(dp1415
Vmagmom
p1416
F0
sVindex
p1417
I38
sVsymbol
p1418
VCu
p1419
sVcharge
p1420
F0
sVtag
p1421
I0
sVposition
p1422
(lp1423
F6.7545103690989485
aF-10.173906027687973
aF-22.484090334065709
asVmomentum
p1424
(lp1425
F0
aF0
aF0
asa(dp1426
Vmagmom
p1427
F0
sVindex
p1428
I39
sVsymbol
p1429
VCu
p1430
sVcharge
p1431
F0
sVtag
p1432
I0
sVposition
p1433
(lp1434
F2.3495591036102663
aF-8.8187161722155789
aF-15.515768565407143
asVmomentum
p1435
(lp1436
F0
aF0
aF0
asa(dp1437
Vmagmom
p1438
F0
sVindex
p1439
I40
sVsymbol
p1440
VCu
p1441
sVcharge
p1442
F0
sVtag
p1443
I0
sVposition
p1444
(lp1445
F5.7983819131359411
aF-10.486619691643234
aF-20.02698802598961
asVmomentum
p1446
(lp1447
F0
aF0
aF0
asa(dp1448
Vmagmom
p1449
F0
sVindex
p1450
I41
sVsymbol
p1451
VCu
p1452
sVcharge
p1453
F0
sVtag
p1454
I0
sVposition
p1455
(lp1456
F2.3713164352096454
aF-3.7106704142812825
aF-23.511148910318894
asVmomentum
p1457
(lp1458
F0
aF0
aF0
asa(dp1459
Vmagmom
p1460
F0
sVindex
p1461
I42
sVsymbol
p1462
VCu
p1463
sVcharge
p1464
F0
sVtag
p1465
I0
sVposition
p1466
(lp1467
F7.265210594479516
aF-2.3554805588088867
aF-15.672870301405583
asVmomentum
p1468
(lp1469
F0
aF0
aF0
asa(dp1470
Vmagmom
p1471
F0
sVindex
p1472
I43
sVsymbol
p1473
VCu
p1474
sVcharge
p1475
F0
sVtag
p1476
I0
sVposition
p1477
(lp1478
F1.8823735414284561
aF-6.4210501252260634
aF-18.284907583824975
asVmomentum
p1479
(lp1480
F0
aF0
aF0
asa(dp1481
Vmagmom
p1482
F0
sVindex
p1483
I44
sVsymbol
p1484
VCu
p1485
sVcharge
p1486
F0
sVtag
p1487
I0
sVposition
p1488
(lp1489
F7.5123323953027903
aF-8.7067133625695927
aF-16.31302283791625
asVmomentum
p1490
(lp1491
F0
aF0
aF0
asa(dp1492
Vmagmom
p1493
F0
sVindex
p1494
I45
sVsymbol
p1495
VCu
p1496
sVcharge
p1497
F0
sVtag
p1498
I0
sVposition
p1499
(lp1500
F4.0852669173764902
aF-1.9307640852076464
aF-19.797183722245528
asVmomentum
p1501
(lp1502
F0
aF0
aF0
asa(dp1503
Vmagmom
p1504
F0
sVindex
p1505
I46
sVsymbol
p1506
VCu
p1507
sVcharge
p1508
F0
sVtag
p1509
I0
sVposition
p1510
(lp1511
F8.0012752890839813
aF-5.9963336516248171
aF-21.539264164410181
asVmomentum
p1512
(lp1513
F0
aF0
aF0
asa(dp1514
Vmagmom
p1515
F0
sVindex
p1516
I47
sVsymbol
p1517
VCu
p1518
sVcharge
p1519
F0
sVtag
p1520
I0
sVposition
p1521
(lp1522
F3.5963240235952973
aF-4.6411437961524262
aF-14.570942395751606
asVmomentum
p1523
(lp1524
F0
aF0
aF0
asa(dp1525
Vmagmom
p1526
F0
sVindex
p1527
I48
sVsymbol
p1528
VCu
p1529
sVcharge
p1530
F0
sVtag
p1531
I0
sVposition
p1532
(lp1533
F4.8128115147882653
aF-10.745617722400942
aF-17.622973169884183
asVmomentum
p1534
(lp1535
F0
aF0
aF0
asa(dp1536
Vmagmom
p1537
F0
sVindex
p1538
I49
sVsymbol
p1539
VCu
p1540
sVcharge
p1541
F0
sVtag
p1542
I0
sVposition
p1543
(lp1544
F1.3857460368619661
aF-3.9696684450389927
aF-21.107134054213475
asVmomentum
p1545
(lp1546
F0
aF0
aF0
asa(dp1547
Vmagmom
p1548
F0
sVindex
p1549
I50
sVsymbol
p1550
VCu
p1551
sVcharge
p1552
F0
sVtag
p1553
I0
sVposition
p1554
(lp1555
F5.301754408569459
aF-8.0352380114561655
aF-22.849214496378117
asVmomentum
p1556
(lp1557
F0
aF0
aF0
asa(dp1558
Vmagmom
p1559
F0
sVindex
p1560
I51
sVsymbol
p1561
VCu
p1562
sVcharge
p1563
F0
sVtag
p1564
I0
sVposition
p1565
(lp1566
F0.89680314308077769
aF-6.6800481559837719
aF-15.880892727719546
asVmomentum
p1567
(lp1568
F0
aF0
aF0
asa(dp1569
Vmagmom
p1570
F0
sVindex
p1571
I52
sVsymbol
p1572
VCu
p1573
sVcharge
p1574
F0
sVtag
p1575
I0
sVposition
p1576
(lp1577
F-0.81714733908606974
aF-8.4599544850574144
aF-19.594857915792915
asVmomentum
p1578
(lp1579
F0
aF0
aF0
asa(dp1580
Vmagmom
p1581
F0
sVindex
p1582
I53
sVsymbol
p1583
VCu
p1584
sVcharge
p1585
F0
sVtag
p1586
I0
sVposition
p1587
(lp1588
F5.0546326077461803
aF-1.6840052076954586
aF-22.209061959867448
asVmomentum
p1589
(lp1590
F0
aF0
aF0
asa(dp1591
Vmagmom
p1592
F0
sVindex
p1593
I54
sVsymbol
p1594
VCu
p1595
sVcharge
p1596
F0
sVtag
p1597
I0
sVposition
p1598
(lp1599
F0.64968134225749985
aF-0.32881535222306557
aF-15.240740191208879
asVmomentum
p1600
(lp1601
F0
aF0
aF0
asa(dp1602
Vmagmom
p1603
F0
sVindex
p1604
I55
sVsymbol
p1605
VCu
p1606
sVcharge
p1607
F0
sVtag
p1608
I0
sVposition
p1609
(lp1610
F4.5656897139649857
aF-4.3943849186402373
aF-16.982820633373521
asVmomentum
p1611
(lp1612
F0
aF0
aF0
asa(dp1613
Vmagmom
p1614
F0
sVindex
p1615
I56
sVsymbol
p1616
VCu
p1617
sVcharge
p1618
F0
sVtag
p1619
I0
sVposition
p1620
(lp1621
F1.6058097982205002
aF-0.016101688267799067
aF-17.697842499284985
asVmomentum
p1622
(lp1623
F0
aF0
aF0
asa(dp1624
Vmagmom
p1625
F0
sVindex
p1626
I57
sVsymbol
p1627
VCu
p1628
sVcharge
p1629
F0
sVtag
p1630
I0
sVposition
p1631
(lp1632
F5.5218181699279922
aF-4.0816712546849745
aF-19.439922941449623
asVmomentum
p1633
(lp1634
F0
aF0
aF0
asa(dp1635
Vmagmom
p1636
F0
sVindex
p1637
I58
sVsymbol
p1638
VCu
p1639
sVcharge
p1640
F0
sVtag
p1641
I0
sVposition
p1642
(lp1643
F0.13898111687693238
aF-8.1472408211021516
aF-22.05196022386901
asVmomentum
p1644
(lp1645
F0
aF0
aF0
asa(dp1646
Vmagmom
p1647
F0
sVindex
p1648
I59
sVsymbol
p1649
VCu
p1650
sVcharge
p1651
F0
sVtag
p1652
I0
sVposition
p1653
(lp1654
F5.0328752761468003
aF-6.7920509656297536
aF-14.213681614955695
asVmomentum
p1655
(lp1656
F0
aF0
aF0
asa(dp1657
Vmagmom
p1658
F0
sVindex
p1659
I60
sVsymbol
p1660
VCu
p1661
sVcharge
p1662
F0
sVtag
p1663
I0
sVposition
p1664
(lp1665
F-0.10814068394634546
aF-1.7960080173414452
aF-21.411807687358351
asVmomentum
p1666
(lp1667
F0
aF0
aF0
asa(dp1668
Vmagmom
p1669
F0
sVindex
p1670
I61
sVsymbol
p1671
VCu
p1672
sVcharge
p1673
F0
sVtag
p1674
I0
sVposition
p1675
(lp1676
F3.8078676877611448
aF-5.8615775837586144
aF-23.15388812952299
asVmomentum
p1677
(lp1678
F0
aF0
aF0
asa(dp1679
Vmagmom
p1680
F0
sVindex
p1681
I62
sVsymbol
p1682
VCu
p1683
sVcharge
p1684
F0
sVtag
p1685
I0
sVposition
p1686
(lp1687
F-0.59708357772753651
aF-4.5063877282862279
aF-16.185566360864424
asVmomentum
p1688
(lp1689
F0
aF0
aF0
asa(dp1690
Vmagmom
p1691
F0
sVindex
p1692
I63
sVsymbol
p1693
VCu
p1694
sVcharge
p1695
F0
sVtag
p1696
I0
sVposition
p1697
(lp1698
F3.3189247939799591
aF-8.5719572947033953
aF-17.927646803029063
asVmomentum
p1699
(lp1700
F0
aF0
aF0
asa(dp1701
Vmagmom
p1702
F0
sVindex
p1703
I64
sVsymbol
p1704
VPd
p1705
sVcharge
p1706
F0
sVtag
p1707
I0
sVposition
p1708
(lp1709
F1.7735699741730055
aF-8.4053380300591254
aF-19.99548095890589
asVmomentum
p1710
(lp1711
F0
aF0
aF0
asa(dp1712
Vmagmom
p1713
F0
sVindex
p1714
I65
sVsymbol
p1715
VPd
p1716
sVcharge
p1717
F0
sVtag
p1718
I0
sVposition
p1719
(lp1720
F7.6453499210052502
aF-1.6293887526971678
aF-22.609685002980431
asVmomentum
p1721
(lp1722
F0
aF0
aF0
asa(dp1723
Vmagmom
p1724
F0
sVindex
p1725
I66
sVsymbol
p1726
VPd
p1727
sVcharge
p1728
F0
sVtag
p1729
I0
sVposition
p1730
(lp1731
F3.2403986555165729
aF-0.27419889722477703
aF-15.641363234321862
asVmomentum
p1732
(lp1733
F0
aF0
aF0
asa(dp1734
Vmagmom
p1735
F0
sVindex
p1736
I67
sVsymbol
p1737
VPd
p1738
sVcharge
p1739
F0
sVtag
p1740
I0
sVposition
p1741
(lp1742
F7.1564070272240627
aF-4.3397684636419509
aF-17.3834436764865
asVmomentum
p1743
(lp1744
F0
aF0
aF0
asa(dp1745
Vmagmom
p1746
F0
sVindex
p1747
I68
sVsymbol
p1748
VPd
p1749
sVcharge
p1750
F0
sVtag
p1751
I0
sVposition
p1752
(lp1753
F1.4865039986190745
aF-2.0101609185157692
aF-19.341410419118642
asVmomentum
p1754
(lp1755
F0
aF0
aF0
asa(dp1756
Vmagmom
p1757
F0
sVindex
p1758
I69
sVsymbol
p1759
VPd
p1760
sVcharge
p1761
F0
sVtag
p1762
I0
sVposition
p1763
(lp1764
F5.402512370326563
aF-6.0757304849329428
aF-21.083490861283281
asVmomentum
p1765
(lp1766
F0
aF0
aF0
asa(dp1767
Vmagmom
p1768
F0
sVindex
p1769
I70
sVsymbol
p1770
VPd
p1771
sVcharge
p1772
F0
sVtag
p1773
I0
sVposition
p1774
(lp1775
F0.019675317275508419
aF-10.141300051350115
aF-23.695528143702667
asVmomentum
p1776
(lp1777
F0
aF0
aF0
asa(dp1778
Vmagmom
p1779
F0
sVindex
p1780
I71
sVsymbol
p1781
VPd
p1782
sVcharge
p1783
F0
sVtag
p1784
I0
sVposition
p1785
(lp1786
F4.9135694765453781
aF-8.7861101958777184
aF-15.857249534789354
asVmomentum
p1787
(lp1788
F0
aF0
aF0
asa(dp1789
Vmagmom
p1790
F0
sVindex
p1791
I72
sVsymbol
p1792
VPd
p1793
sVcharge
p1794
F0
sVtag
p1795
I0
sVposition
p1796
(lp1797
F5.9176877127373677
aF-8.4925604613952697
aF-18.383420106155963
asVmomentum
p1798
(lp1799
F0
aF0
aF0
asa(dp1800
Vmagmom
p1801
F0
sVindex
p1802
I73
sVsymbol
p1803
VPd
p1804
sVcharge
p1805
F0
sVtag
p1806
I0
sVposition
p1807
(lp1808
F2.4906222348110649
aF-1.7166111840333138
aF-21.867580990485241
asVmomentum
p1809
(lp1810
F0
aF0
aF0
asa(dp1811
Vmagmom
p1812
F0
sVindex
p1813
I74
sVsymbol
p1814
VPd
p1815
sVcharge
p1816
F0
sVtag
p1817
I0
sVposition
p1818
(lp1819
F6.4066306065185588
aF-5.7821807504504852
aF-23.609661432649883
asVmomentum
p1820
(lp1821
F0
aF0
aF0
asa(dp1822
Vmagmom
p1823
F0
sVindex
p1824
I75
sVsymbol
p1825
VPd
p1826
sVcharge
p1827
F0
sVtag
p1828
I0
sVposition
p1829
(lp1830
F2.0016793410298765
aF-4.4269908949780952
aF-16.641339663991314
asVmomentum
p1831
(lp1832
F0
aF0
aF0
asa(dp1833
Vmagmom
p1834
F0
sVindex
p1835
I76
sVsymbol
p1836
VPd
p1837
sVcharge
p1838
F0
sVtag
p1839
I0
sVposition
p1840
(lp1841
F-0.2411582096488063
aF-8.8733326272138715
aF-15.115145522294169
asVmomentum
p1842
(lp1843
F0
aF0
aF0
asa(dp1844
Vmagmom
p1845
F0
sVindex
p1846
I77
sVsymbol
p1847
VPd
p1848
sVcharge
p1849
F0
sVtag
p1850
I0
sVposition
p1851
(lp1852
F5.6306217371834428
aF-2.0973833498519117
aF-17.729349566368708
asVmomentum
p1853
(lp1854
F0
aF0
aF0
asa(dp1855
Vmagmom
p1856
F0
sVindex
p1857
I78
sVsymbol
p1858
VPd
p1859
sVcharge
p1860
F0
sVtag
p1861
I0
sVposition
p1862
(lp1863
F0.24778468413237853
aF-6.1629529162690924
aF-20.341386848788101
asVmomentum
p1864
(lp1865
F0
aF0
aF0
asa(dp1866
Vmagmom
p1867
F0
sVindex
p1868
I79
sVsymbol
p1869
VPd
p1870
sVcharge
p1871
F0
sVtag
p1872
I0
sVposition
p1873
(lp1874
F4.1637930558398732
aF-10.228522482686264
aF-22.083467290952736
asVmomentum
p1875
(lp1876
F0
aF0
aF0
asasVcell
p1877
(lp1878
(lp1879
F9.2988454247585501
aF9.9471740568155708e-16
aF0.86995684025474507
aa(lp1880
F-1.9557715751247589
aF-10.841518843779127
aF0.87212360190989768
aa(lp1881
F1.7763568394002505e-15
aF-6.6829879335422092e-15
aF-40.065683408131605
aasVmass
p1882
F5769.6639999999961
sVpbc
p1883
(lp1884
I01
aI01
aI01
asVspacegroup
p1885
VP1 (1)
p1886
sVconstraints
p1887
(lp1888
(dp1889
Vname
p1890
VFixAtoms
p1891
sVkwargs
p1892
(dp1893
Vindices
p1894
(lp1895
I0
aI1
aI2
aI4
aI5
aI6
aI10
aI11
aI13
aI14
aI15
aI16
aI17
aI18
aI20
aI21
aI23
aI25
aI26
aI27
aI28
aI29
aI30
aI32
aI33
aI36
aI37
aI38
aI40
aI41
aI43
aI45
aI46
aI48
aI49
aI50
aI52
aI53
aI57
aI58
aI60
aI61
aI63
aI64
aI65
aI67
aI68
aI69
aI70
aI72
aI73
aI74
aI77
aI78
aI79
assasaa(lp1896
g921
ag2
((ltRp1897
aa(lp1898
g924
ag925
aa(lp1899
g927
aS'bc5736522a4e3f2e9dc5f69c9679161c61d52d30'
p1900
aa(lp1901
g930
ag931
(S'\x07\xe1\x03\x1f\x13-\x02\x0eD\xc9'
tRp1902
aa(lp1903
g934
ag931
(S'\x07\xe1\x03\x1f\x13-\x02\x0eD\xd4'
tRp1904
aa(lp1905
g937
a(dp1906
g939
g949
sg950
I00
sg951
g952
sg953
g957
sg958
g972
sg973
g974
sg975
I00
sg976
g977
sg978
I80
saatRp1907
ag2
((lp1908
(lp1909
g5
a(dp1910
Vinfo
p1911
(dp1912
sVvolume
p1913
F4039.1660972691434
sVnatoms
p1914
I80
sVsymbol_counts
p1915
(dp1916
VCu
p1917
I64
sVPd
p1918
I16
ssVchemical_symbols
p1919
(lp1920
VPd
p1921
aVCu
p1922
asVatoms
p1923
(lp1924
(dp1925
Vmagmom
p1926
F0
sVindex
p1927
I0
sVsymbol
p1928
VCu
p1929
sVcharge
p1930
F0
sVtag
p1931
I0
sVposition
p1932
(lp1933
F0.82732374398474651
aF8.3005378647683976
aF16.95654079990765
asVmomentum
p1934
(lp1935
F0
aF0
aF0
asa(dp1936
Vmagmom
p1937
F0
sVindex
p1938
I1
sVsymbol
p1939
VCu
p1940
sVcharge
p1941
F0
sVtag
p1942
I0
sVposition
p1943
(lp1944
F6.6991036908169956
aF1.5245885874064429
aF19.57074484398219
asVmomentum
p1945
(lp1946
F0
aF0
aF0
asa(dp1947
Vmagmom
p1948
F0
sVindex
p1949
I2
sVsymbol
p1950
VCu
p1951
sVcharge
p1952
F0
sVtag
p1953
I0
sVposition
p1954
(lp1955
F1.3162666377659331
aF5.5901581538236149
aF22.182782126401577
asVmomentum
p1956
(lp1957
F0
aF0
aF0
asa(dp1958
Vmagmom
p1959
F0
sVindex
p1960
I3
sVsymbol
p1961
VCu
p1962
sVcharge
p1963
F0
sVtag
p1964
I0
sVposition
p1965
(lp1966
F6.2101607970358046
aF4.2349682983512222
aF14.344503517488267
asVmomentum
p1967
(lp1968
F0
aF0
aF0
asa(dp1969
Vmagmom
p1970
F0
sVindex
p1971
I4
sVsymbol
p1972
VCu
p1973
sVcharge
p1974
F0
sVtag
p1975
I0
sVposition
p1976
(lp1977
F-1.8640947825407839
aF10.333322647976981
aF18.26255944111735
asVmomentum
p1978
(lp1979
F0
aF0
aF0
asa(dp1980
Vmagmom
p1981
F0
sVindex
p1982
I5
sVsymbol
p1983
VCu
p1984
sVcharge
p1985
F0
sVtag
p1986
I0
sVposition
p1987
(lp1988
F4.0076851642914662
aF3.5573733706150286
aF20.876763485191887
asVmomentum
p1989
(lp1990
F0
aF0
aF0
asa(dp1991
Vmagmom
p1992
F0
sVindex
p1993
I6
sVsymbol
p1994
VCu
p1995
sVcharge
p1996
F0
sVtag
p1997
I0
sVposition
p1998
(lp1999
F-1.3751518887595946
aF7.6229429370322004
aF23.48880076761127
asVmomentum
p2000
(lp2001
F0
aF0
aF0
asa(dp2002
Vmagmom
p2003
F0
sVindex
p2004
I7
sVsymbol
p2005
VCu
p2006
sVcharge
p2007
F0
sVtag
p2008
I0
sVposition
p2009
(lp2010
F3.5187422705102787
aF6.2677530815598095
aF15.650522158697962
asVmomentum
p2011
(lp2012
F0
aF0
aF0
asa(dp2013
Vmagmom
p2014
F0
sVindex
p2015
I8
sVsymbol
p2016
VCu
p2017
sVcharge
p2018
F0
sVtag
p2019
I0
sVposition
p2020
(lp2021
F7.5558700602985684
aF3.2185759067469304
aF23.707915048916323
asVmomentum
p2022
(lp2023
F0
aF0
aF0
asa(dp2024
Vmagmom
p2025
F0
sVindex
p2026
I9
sVsymbol
p2027
VCu
p2028
sVcharge
p2029
F0
sVtag
p2030
I0
sVposition
p2031
(lp2032
F3.1509187948098902
aF1.863386051274543
aF16.739593280257761
asVmomentum
p2033
(lp2034
F0
aF0
aF0
asa(dp2035
Vmagmom
p2036
F0
sVindex
p2037
I10
sVsymbol
p2038
VCu
p2039
sVcharge
p2040
F0
sVtag
p2041
I0
sVposition
p2042
(lp2043
F7.0669271665173783
aF5.9289556176917131
aF18.4816737224224
asVmomentum
p2044
(lp2045
F0
aF0
aF0
asa(dp2046
Vmagmom
p2047
F0
sVindex
p2048
I11
sVsymbol
p2049
VCu
p2050
sVcharge
p2051
F0
sVtag
p2052
I0
sVposition
p2053
(lp2054
F1.6840901134663238
aF9.994525184108884
aF21.093711004841786
asVmomentum
p2055
(lp2056
F0
aF0
aF0
asa(dp2057
Vmagmom
p2058
F0
sVindex
p2059
I12
sVsymbol
p2060
VCu
p2061
sVcharge
p2062
F0
sVtag
p2063
I0
sVposition
p2064
(lp2065
F3.8865657462106613
aF10.672120111845082
aF14.561451037138164
asVmomentum
p2066
(lp2067
F0
aF0
aF0
asa(dp2068
Vmagmom
p2069
F0
sVindex
p2070
I13
sVsymbol
p2071
VCu
p2072
sVcharge
p2073
F0
sVtag
p2074
I0
sVposition
p2075
(lp2076
F0.45950026828436741
aF3.896170834483125
aF18.045611921467451
asVmomentum
p2077
(lp2078
F0
aF0
aF0
asa(dp2079
Vmagmom
p2080
F0
sVindex
p2081
I14
sVsymbol
p2082
VCu
p2083
sVcharge
p2084
F0
sVtag
p2085
I0
sVposition
p2086
(lp2087
F4.375508639991855
aF7.9617404009002968
aF19.78769236363209
asVmomentum
p2088
(lp2089
F0
aF0
aF0
asa(dp2090
Vmagmom
p2091
F0
sVindex
p2092
I15
sVsymbol
p2093
VCu
p2094
sVcharge
p2095
F0
sVtag
p2096
I0
sVposition
p2097
(lp2098
F0.94844316206555224
aF1.1857911235383432
aF23.271853247961374
asVmomentum
p2099
(lp2100
F0
aF0
aF0
asa(dp2101
Vmagmom
p2102
F0
sVindex
p2103
I16
sVsymbol
p2104
VCu
p2105
sVcharge
p2106
F0
sVtag
p2107
I0
sVposition
p2108
(lp2109
F-0.62966899778122354
aF6.1692234745936467
aF17.271334317707502
asVmomentum
p2110
(lp2111
F0
aF0
aF0
asa(dp2112
Vmagmom
p2113
F0
sVindex
p2114
I17
sVsymbol
p2115
VCu
p2116
sVcharge
p2117
F0
sVtag
p2118
I0
sVposition
p2119
(lp2120
F3.286339373926273
aF10.234793041010818
aF19.013414759872138
asVmomentum
p2121
(lp2122
F0
aF0
aF0
asa(dp2123
Vmagmom
p2124
F0
sVindex
p2125
I18
sVsymbol
p2126
VCu
p2127
sVcharge
p2128
F0
sVtag
p2129
I0
sVposition
p2130
(lp2131
F-0.14072610400003072
aF3.4588437636488658
aF22.497575644201433
asVmomentum
p2132
(lp2133
F0
aF0
aF0
asa(dp2134
Vmagmom
p2135
F0
sVindex
p2136
I19
sVsymbol
p2137
VCu
p2138
sVcharge
p2139
F0
sVtag
p2140
I0
sVposition
p2141
(lp2142
F4.753168055269839
aF2.1036539081764714
aF14.659297035288111
asVmomentum
p2143
(lp2144
F0
aF0
aF0
asa(dp2145
Vmagmom
p2146
F0
sVindex
p2147
I20
sVsymbol
p2148
VCu
p2149
sVcharge
p2150
F0
sVtag
p2151
I0
sVposition
p2152
(lp2153
F-0.91756946995152866
aF10.041461656229124
aF20.667415119177313
asVmomentum
p2154
(lp2155
F0
aF0
aF0
asa(dp2156
Vmagmom
p2157
F0
sVindex
p2158
I21
sVsymbol
p2159
VCu
p2160
sVcharge
p2161
F0
sVtag
p2162
I0
sVposition
p2163
(lp2164
F4.9542104768807196
aF3.2655123788671689
aF23.28161916325185
asVmomentum
p2165
(lp2166
F0
aF0
aF0
asa(dp2167
Vmagmom
p2168
F0
sVindex
p2169
I22
sVsymbol
p2170
VCu
p2171
sVcharge
p2172
F0
sVtag
p2173
I0
sVposition
p2174
(lp2175
F0.54925921139203826
aF1.9103225233947838
aF16.313297394593281
asVmomentum
p2176
(lp2177
F0
aF0
aF0
asa(dp2178
Vmagmom
p2179
F0
sVindex
p2180
I23
sVsymbol
p2181
VCu
p2182
sVcharge
p2183
F0
sVtag
p2184
I0
sVposition
p2185
(lp2186
F4.4652675830995294
aF5.9758920898119534
aF18.055377836757923
asVmomentum
p2187
(lp2188
F0
aF0
aF0
asa(dp2189
Vmagmom
p2190
F0
sVindex
p2191
I24
sVsymbol
p2192
VCu
p2193
sVcharge
p2194
F0
sVtag
p2195
I0
sVposition
p2196
(lp2197
F6.4882253296285128
aF10.625183639724835
aF14.987746922802645
asVmomentum
p2198
(lp2199
F0
aF0
aF0
asa(dp2200
Vmagmom
p2201
F0
sVindex
p2202
I25
sVsymbol
p2203
VCu
p2204
sVcharge
p2205
F0
sVtag
p2206
I0
sVposition
p2207
(lp2208
F3.0611598517022145
aF3.8492343623628811
aF18.471907807131924
asVmomentum
p2209
(lp2210
F0
aF0
aF0
asa(dp2211
Vmagmom
p2212
F0
sVindex
p2213
I26
sVsymbol
p2214
VCu
p2215
sVcharge
p2216
F0
sVtag
p2217
I0
sVposition
p2218
(lp2219
F6.977168223409703
aF7.9148039287800529
aF20.213988249296566
asVmomentum
p2220
(lp2221
F0
aF0
aF0
asa(dp2222
Vmagmom
p2223
F0
sVindex
p2224
I27
sVsymbol
p2225
VCu
p2226
sVcharge
p2227
F0
sVtag
p2228
I0
sVposition
p2229
(lp2230
F3.5501027454834011
aF1.1388546514180993
aF23.698149133625844
asVmomentum
p2231
(lp2232
F0
aF0
aF0
asa(dp2233
Vmagmom
p2234
F0
sVindex
p2235
I28
sVsymbol
p2236
VCu
p2237
sVcharge
p2238
F0
sVtag
p2239
I0
sVposition
p2240
(lp2241
F2.284316485750713
aF10.431852254943148
aF16.641747282107815
asVmomentum
p2242
(lp2243
F0
aF0
aF0
asa(dp2244
Vmagmom
p2245
F0
sVindex
p2246
I29
sVsymbol
p2247
VCu
p2248
sVcharge
p2249
F0
sVtag
p2250
I0
sVposition
p2251
(lp2252
F8.1560964325829595
aF3.6559029775811922
aF19.255951326182348
asVmomentum
p2253
(lp2254
F0
aF0
aF0
asa(dp2255
Vmagmom
p2256
F0
sVindex
p2257
I30
sVsymbol
p2258
VCu
p2259
sVcharge
p2260
F0
sVtag
p2261
I0
sVposition
p2262
(lp2263
F2.7732593795319005
aF7.7214725439983667
aF21.867988608601738
asVmomentum
p2264
(lp2265
F0
aF0
aF0
asa(dp2266
Vmagmom
p2267
F0
sVindex
p2268
I31
sVsymbol
p2269
VCu
p2270
sVcharge
p2271
F0
sVtag
p2272
I0
sVposition
p2273
(lp2274
F7.6671535388017729
aF6.3662826885259722
aF14.029709999688421
asVmomentum
p2275
(lp2276
F0
aF0
aF0
asa(dp2277
Vmagmom
p2278
F0
sVindex
p2279
I32
sVsymbol
p2280
VCu
p2281
sVcharge
p2282
F0
sVtag
p2283
I0
sVposition
p2284
(lp2285
F0.69672648316606534
aF10.259825037421118
aF18.630961312788138
asVmomentum
p2286
(lp2287
F0
aF0
aF0
asa(dp2288
Vmagmom
p2289
F0
sVindex
p2290
I33
sVsymbol
p2291
VCu
p2292
sVcharge
p2293
F0
sVtag
p2294
I0
sVposition
p2295
(lp2296
F6.5685064299983171
aF3.4838757600591643
aF21.245165356862678
asVmomentum
p2297
(lp2298
F0
aF0
aF0
asa(dp2299
Vmagmom
p2300
F0
sVindex
p2301
I34
sVsymbol
p2302
VCu
p2303
sVcharge
p2304
F0
sVtag
p2305
I0
sVposition
p2306
(lp2307
F1.1856693769472599
aF7.549445326476337
aF23.857202639282065
asVmomentum
p2308
(lp2309
F0
aF0
aF0
asa(dp2310
Vmagmom
p2311
F0
sVindex
p2312
I35
sVsymbol
p2313
VCu
p2314
sVcharge
p2315
F0
sVtag
p2316
I0
sVposition
p2317
(lp2318
F6.0795635362171261
aF6.1942554710039479
aF16.018924030368751
asVmomentum
p2319
(lp2320
F0
aF0
aF0
asa(dp2321
Vmagmom
p2322
F0
sVindex
p2323
I36
sVsymbol
p2324
VCu
p2325
sVcharge
p2326
F0
sVtag
p2327
I0
sVposition
p2328
(lp2329
F8.2824569121651628
aF1.7039694309855218
aF17.531200168789319
asVmomentum
p2330
(lp2331
F0
aF0
aF0
asa(dp2332
Vmagmom
p2333
F0
sVindex
p2334
I37
sVsymbol
p2335
VCu
p2336
sVcharge
p2337
F0
sVtag
p2338
I0
sVposition
p2339
(lp2340
F2.8996198591141038
aF5.7695389974026972
aF20.143237451208698
asVmomentum
p2341
(lp2342
F0
aF0
aF0
asa(dp2343
Vmagmom
p2344
F0
sVindex
p2345
I38
sVsymbol
p2346
VCu
p2347
sVcharge
p2348
F0
sVtag
p2349
I0
sVposition
p2350
(lp2351
F6.8156282308215967
aF9.8351085638198725
aF21.885317893373347
asVmomentum
p2352
(lp2353
F0
aF0
aF0
asa(dp2354
Vmagmom
p2355
F0
sVindex
p2356
I39
sVsymbol
p2357
VCu
p2358
sVcharge
p2359
F0
sVtag
p2360
I0
sVposition
p2361
(lp2362
F2.4106769653329154
aF8.4799187083474798
aF14.916996124714771
asVmomentum
p2363
(lp2364
F0
aF0
aF0
asa(dp2365
Vmagmom
p2366
F0
sVindex
p2367
I40
sVsymbol
p2368
VCu
p2369
sVcharge
p2370
F0
sVtag
p2371
I0
sVposition
p2372
(lp2373
F5.8594997748585964
aF10.147822227775134
aF19.428215585297245
asVmomentum
p2374
(lp2375
F0
aF0
aF0
asa(dp2376
Vmagmom
p2377
F0
sVindex
p2378
I41
sVsymbol
p2379
VCu
p2380
sVcharge
p2381
F0
sVtag
p2382
I0
sVposition
p2383
(lp2384
F2.4324342969322936
aF3.3718729504131826
aF22.912376469626523
asVmomentum
p2385
(lp2386
F0
aF0
aF0
asa(dp2387
Vmagmom
p2388
F0
sVindex
p2389
I42
sVsymbol
p2390
VCu
p2391
sVcharge
p2392
F0
sVtag
p2393
I0
sVposition
p2394
(lp2395
F7.3263284562021607
aF2.0166830949407895
aF15.074097860713211
asVmomentum
p2396
(lp2397
F0
aF0
aF0
asa(dp2398
Vmagmom
p2399
F0
sVindex
p2400
I43
sVsymbol
p2401
VCu
p2402
sVcharge
p2403
F0
sVtag
p2404
I0
sVposition
p2405
(lp2406
F1.9434914031511008
aF6.0822526613579608
aF17.686135143132606
asVmomentum
p2407
(lp2408
F0
aF0
aF0
asa(dp2409
Vmagmom
p2410
F0
sVindex
p2411
I44
sVsymbol
p2412
VCu
p2413
sVcharge
p2414
F0
sVtag
p2415
I0
sVposition
p2416
(lp2417
F7.5734502570254385
aF8.367915898701499
aF15.714250397223882
asVmomentum
p2418
(lp2419
F0
aF0
aF0
asa(dp2420
Vmagmom
p2421
F0
sVindex
p2422
I45
sVsymbol
p2423
VCu
p2424
sVcharge
p2425
F0
sVtag
p2426
I0
sVposition
p2427
(lp2428
F4.1463847790991393
aF1.591966621339544
aF19.198411281553163
asVmomentum
p2429
(lp2430
F0
aF0
aF0
asa(dp2431
Vmagmom
p2432
F0
sVindex
p2433
I46
sVsymbol
p2434
VCu
p2435
sVcharge
p2436
F0
sVtag
p2437
I0
sVposition
p2438
(lp2439
F8.0623931508066295
aF5.6575361877567172
aF20.940491723717809
asVmomentum
p2440
(lp2441
F0
aF0
aF0
asa(dp2442
Vmagmom
p2443
F0
sVindex
p2444
I47
sVsymbol
p2445
VCu
p2446
sVcharge
p2447
F0
sVtag
p2448
I0
sVposition
p2449
(lp2450
F2.6795560977555688
aF9.7231057541738934
aF23.552529006137185
asVmomentum
p2451
(lp2452
F0
aF0
aF0
asa(dp2453
Vmagmom
p2454
F0
sVindex
p2455
I48
sVsymbol
p2456
VCu
p2457
sVcharge
p2458
F0
sVtag
p2459
I0
sVposition
p2460
(lp2461
F4.8739293765109135
aF10.406820258532843
aF17.024200729191815
asVmomentum
p2462
(lp2463
F0
aF0
aF0
asa(dp2464
Vmagmom
p2465
F0
sVindex
p2466
I49
sVsymbol
p2467
VCu
p2468
sVcharge
p2469
F0
sVtag
p2470
I0
sVposition
p2471
(lp2472
F1.4468638985846169
aF3.6308709811708937
aF20.5083616135211
asVmomentum
p2473
(lp2474
F0
aF0
aF0
asa(dp2475
Vmagmom
p2476
F0
sVindex
p2477
I50
sVsymbol
p2478
VCu
p2479
sVcharge
p2480
F0
sVtag
p2481
I0
sVposition
p2482
(lp2483
F5.3628722702921081
aF7.6964405475880646
aF22.250442055685742
asVmomentum
p2484
(lp2485
F0
aF0
aF0
asa(dp2486
Vmagmom
p2487
F0
sVindex
p2488
I51
sVsymbol
p2489
VCu
p2490
sVcharge
p2491
F0
sVtag
p2492
I0
sVposition
p2493
(lp2494
F0.95792100480342501
aF6.3412506921156719
aF15.282120287027171
asVmomentum
p2495
(lp2496
F0
aF0
aF0
asa(dp2497
Vmagmom
p2498
F0
sVindex
p2499
I52
sVsymbol
p2500
VCu
p2501
sVcharge
p2502
F0
sVtag
p2503
I0
sVposition
p2504
(lp2505
F-0.75602947736342152
aF8.1211570211893118
aF18.996085475100539
asVmomentum
p2506
(lp2507
F0
aF0
aF0
asa(dp2508
Vmagmom
p2509
F0
sVindex
p2510
I53
sVsymbol
p2511
VCu
p2512
sVcharge
p2513
F0
sVtag
p2514
I0
sVposition
p2515
(lp2516
F5.1157504694688276
aF1.3452077438273555
aF21.610289519175073
asVmomentum
p2517
(lp2518
F0
aF0
aF0
asa(dp2519
Vmagmom
p2520
F0
sVindex
p2521
I54
sVsymbol
p2522
VCu
p2523
sVcharge
p2524
F0
sVtag
p2525
I0
sVposition
p2526
(lp2527
F-0.26708658358223225
aF5.4107773102445327
aF24.222326801594463
asVmomentum
p2528
(lp2529
F0
aF0
aF0
asa(dp2530
Vmagmom
p2531
F0
sVindex
p2532
I55
sVsymbol
p2533
VCu
p2534
sVcharge
p2535
F0
sVtag
p2536
I0
sVposition
p2537
(lp2538
F4.6268075756876383
aF4.0555874547721382
aF16.384048192681146
asVmomentum
p2539
(lp2540
F0
aF0
aF0
asa(dp2541
Vmagmom
p2542
F0
sVindex
p2543
I56
sVsymbol
p2544
VCu
p2545
sVcharge
p2546
F0
sVtag
p2547
I0
sVposition
p2548
(lp2549
F-0.2888439151816069
aF10.518823068178829
aF16.226946456682711
asVmomentum
p2550
(lp2551
F0
aF0
aF0
asa(dp2552
Vmagmom
p2553
F0
sVindex
p2554
I57
sVsymbol
p2555
VCu
p2556
sVcharge
p2557
F0
sVtag
p2558
I0
sVposition
p2559
(lp2560
F5.5829360316506413
aF3.7428737908168759
aF18.841150500757252
asVmomentum
p2561
(lp2562
F0
aF0
aF0
asa(dp2563
Vmagmom
p2564
F0
sVindex
p2565
I58
sVsymbol
p2566
VCu
p2567
sVcharge
p2568
F0
sVtag
p2569
I0
sVposition
p2570
(lp2571
F0.20009897859958237
aF7.808443357234049
aF21.453187783176642
asVmomentum
p2572
(lp2573
F0
aF0
aF0
asa(dp2574
Vmagmom
p2575
F0
sVindex
p2576
I59
sVsymbol
p2577
VCu
p2578
sVcharge
p2579
F0
sVtag
p2580
I0
sVposition
p2581
(lp2582
F6.0718789254318306
aF1.0324940798720892
aF24.067391827251178
asVmomentum
p2583
(lp2584
F0
aF0
aF0
asa(dp2585
Vmagmom
p2586
F0
sVindex
p2587
I60
sVsymbol
p2588
VCu
p2589
sVcharge
p2590
F0
sVtag
p2591
I0
sVposition
p2592
(lp2593
F-0.047022822223698135
aF1.4572105534733417
aF20.813035246665976
asVmomentum
p2594
(lp2595
F0
aF0
aF0
asa(dp2596
Vmagmom
p2597
F0
sVindex
p2598
I61
sVsymbol
p2599
VCu
p2600
sVcharge
p2601
F0
sVtag
p2602
I0
sVposition
p2603
(lp2604
F3.868985549483793
aF5.5227801198905144
aF22.555115688830615
asVmomentum
p2605
(lp2606
F0
aF0
aF0
asa(dp2607
Vmagmom
p2608
F0
sVindex
p2609
I62
sVsymbol
p2610
VCu
p2611
sVcharge
p2612
F0
sVtag
p2613
I0
sVposition
p2614
(lp2615
F-0.53596571600488474
aF4.1675902644181262
aF15.586793920172049
asVmomentum
p2616
(lp2617
F0
aF0
aF0
asa(dp2618
Vmagmom
p2619
F0
sVindex
p2620
I63
sVsymbol
p2621
VCu
p2622
sVcharge
p2623
F0
sVtag
p2624
I0
sVposition
p2625
(lp2626
F3.3800426557026038
aF8.2331598308352962
aF17.328874362336691
asVmomentum
p2627
(lp2628
F0
aF0
aF0
asa(dp2629
Vmagmom
p2630
F0
sVindex
p2631
I64
sVsymbol
p2632
VPd
p2633
sVcharge
p2634
F0
sVtag
p2635
I0
sVposition
p2636
(lp2637
F1.8346878358956493
aF8.0665405661910263
aF19.396708518213519
asVmomentum
p2638
(lp2639
F0
aF0
aF0
asa(dp2640
Vmagmom
p2641
F0
sVindex
p2642
I65
sVsymbol
p2643
VPd
p2644
sVcharge
p2645
F0
sVtag
p2646
I0
sVposition
p2647
(lp2648
F7.7064677827279002
aF1.2905912888290683
aF22.010912562288055
asVmomentum
p2649
(lp2650
F0
aF0
aF0
asa(dp2651
Vmagmom
p2652
F0
sVindex
p2653
I66
sVsymbol
p2654
VPd
p2655
sVcharge
p2656
F0
sVtag
p2657
I0
sVposition
p2658
(lp2659
F1.3457449421144592
aF10.776920277135806
aF14.170467191719592
asVmomentum
p2660
(lp2661
F0
aF0
aF0
asa(dp2662
Vmagmom
p2663
F0
sVindex
p2664
I67
sVsymbol
p2665
VPd
p2666
sVcharge
p2667
F0
sVtag
p2668
I0
sVposition
p2669
(lp2670
F7.2175248889467127
aF4.0009709997738501
aF16.784671235794132
asVmomentum
p2671
(lp2672
F0
aF0
aF0
asa(dp2673
Vmagmom
p2674
F0
sVindex
p2675
I68
sVsymbol
p2676
VPd
p2677
sVcharge
p2678
F0
sVtag
p2679
I0
sVposition
p2680
(lp2681
F1.5476218603417227
aF1.6713634546476652
aF18.742637978426266
asVmomentum
p2682
(lp2683
F0
aF0
aF0
asa(dp2684
Vmagmom
p2685
F0
sVindex
p2686
I69
sVsymbol
p2687
VPd
p2688
sVcharge
p2689
F0
sVtag
p2690
I0
sVposition
p2691
(lp2692
F5.4636302320492174
aF5.7369330210648419
aF20.484718420590909
asVmomentum
p2693
(lp2694
F0
aF0
aF0
asa(dp2695
Vmagmom
p2696
F0
sVindex
p2697
I70
sVsymbol
p2698
VPd
p2699
sVcharge
p2700
F0
sVtag
p2701
I0
sVposition
p2702
(lp2703
F0.080793178998156634
aF9.8025025874820102
aF23.096755703010299
asVmomentum
p2704
(lp2705
F0
aF0
aF0
asa(dp2706
Vmagmom
p2707
F0
sVindex
p2708
I71
sVsymbol
p2709
VPd
p2710
sVcharge
p2711
F0
sVtag
p2712
I0
sVposition
p2713
(lp2714
F4.9746873382680237
aF8.4473127320096211
aF15.258477094096982
asVmomentum
p2715
(lp2716
F0
aF0
aF0
asa(dp2717
Vmagmom
p2718
F0
sVindex
p2719
I72
sVsymbol
p2720
VPd
p2721
sVcharge
p2722
F0
sVtag
p2723
I0
sVposition
p2724
(lp2725
F5.9788055744600177
aF8.153762997527167
aF17.784647665463584
asVmomentum
p2726
(lp2727
F0
aF0
aF0
asa(dp2728
Vmagmom
p2729
F0
sVindex
p2730
I73
sVsymbol
p2731
VPd
p2732
sVcharge
p2733
F0
sVtag
p2734
I0
sVposition
p2735
(lp2736
F2.5517400965337167
aF1.3778137201652125
aF21.268808549792869
asVmomentum
p2737
(lp2738
F0
aF0
aF0
asa(dp2739
Vmagmom
p2740
F0
sVindex
p2741
I74
sVsymbol
p2742
VPd
p2743
sVcharge
p2744
F0
sVtag
p2745
I0
sVposition
p2746
(lp2747
F6.4677484682412052
aF5.4433832865823852
aF23.010888991957504
asVmomentum
p2748
(lp2749
F0
aF0
aF0
asa(dp2750
Vmagmom
p2751
F0
sVindex
p2752
I75
sVsymbol
p2753
VPd
p2754
sVcharge
p2755
F0
sVtag
p2756
I0
sVposition
p2757
(lp2758
F2.0627972027525256
aF4.0881934311099926
aF16.042567223298938
asVmomentum
p2759
(lp2760
F0
aF0
aF0
asa(dp2761
Vmagmom
p2762
F0
sVindex
p2763
I76
sVsymbol
p2764
VPd
p2765
sVcharge
p2766
F0
sVtag
p2767
I0
sVposition
p2768
(lp2769
F-0.18004034792615897
aF8.5345351633457707
aF14.516373081601797
asVmomentum
p2770
(lp2771
F0
aF0
aF0
asa(dp2772
Vmagmom
p2773
F0
sVindex
p2774
I77
sVsymbol
p2775
VPd
p2776
sVcharge
p2777
F0
sVtag
p2778
I0
sVposition
p2779
(lp2780
F5.6917395989060902
aF1.7585858859838155
aF17.130577125676332
asVmomentum
p2781
(lp2782
F0
aF0
aF0
asa(dp2783
Vmagmom
p2784
F0
sVindex
p2785
I78
sVsymbol
p2786
VPd
p2787
sVcharge
p2788
F0
sVtag
p2789
I0
sVposition
p2790
(lp2791
F0.30890254585503296
aF5.8241554524009924
aF19.742614408095719
asVmomentum
p2792
(lp2793
F0
aF0
aF0
asa(dp2794
Vmagmom
p2795
F0
sVindex
p2796
I79
sVsymbol
p2797
VPd
p2798
sVcharge
p2799
F0
sVtag
p2800
I0
sVposition
p2801
(lp2802
F4.2249109175625215
aF9.8897250188181616
aF21.484694850260365
asVmomentum
p2803
(lp2804
F0
aF0
aF0
asasVcell
p2805
(lp2806
(lp2807
F9.2988454247585501
aF-8.8817841970012523e-16
aF-0.86995684025474507
aa(lp2808
F-1.9557715751247589
aF10.841518843779127
aF-0.87212360190989635
aa(lp2809
F1.7763568394002505e-15
aF1.7763568394002505e-15
aF40.065683408131605
aasVmass
p2810
F5769.6639999999961
sVpbc
p2811
(lp2812
I01
aI01
aI01
asVspacegroup
p2813
VP1 (1)
p2814
sVconstraints
p2815
(lp2816
(dp2817
Vname
p2818
VFixAtoms
p2819
sVkwargs
p2820
(dp2821
Vindices
p2822
(lp2823
I0
aI1
aI3
aI4
aI5
aI7
aI9
aI10
aI12
aI13
aI14
aI16
aI17
aI19
aI20
aI22
aI23
aI24
aI25
aI26
aI28
aI29
aI31
aI32
aI35
aI36
aI37
aI39
aI40
aI42
aI43
aI44
aI45
aI48
aI49
aI51
aI52
aI55
aI56
aI57
aI60
aI62
aI63
aI64
aI66
aI67
aI68
aI69
aI71
aI72
aI73
aI75
aI76
aI77
aI78
assasaa(lp2824
g921
ag2
((ltRp2825
aa(lp2826
g924
ag925
aa(lp2827
g927
aS'8c0b5a688881bd54f29c2cd12734984f8b6f3210'
p2828
aa(lp2829
g930
ag931
(S'\x07\xe1\x03\x1f\x13-\x02\x0e\x83Q'
tRp2830
aa(lp2831
g934
ag931
(S'\x07\xe1\x03\x1f\x13-\x02\x0e\x83\\'
tRp2832
aa(lp2833
g937
a(dp2834
g939
g949
sg950
I00
sg951
g952
sg953
g954
(g956
S'\n\xac\x1d\xa4+\x01\xb8?'
tRp2835
sg958
g972
sg973
g974
sg975
I01
sg976
g977
sg978
I80
saatRp2836
ag2
((lp2837
(lp2838
g5
a(dp2839
Vinfo
p2840
(dp2841
sVvolume
p2842
F4039.1660972691434
sVnatoms
p2843
I80
sVsymbol_counts
p2844
(dp2845
VCu
p2846
I64
sVPd
p2847
I16
ssVchemical_symbols
p2848
(lp2849
VPd
p2850
aVCu
p2851
asVatoms
p2852
(lp2853
(dp2854
Vmagmom
p2855
F0
sVindex
p2856
I0
sVsymbol
p2857
VCu
p2858
sVcharge
p2859
F0
sVtag
p2860
I0
sVposition
p2861
(lp2862
F0.82732374398474651
aF-8.3005378647683994
aF-16.95654079990765
asVmomentum
p2863
(lp2864
F0
aF0
aF0
asa(dp2865
Vmagmom
p2866
F0
sVindex
p2867
I1
sVsymbol
p2868
VCu
p2869
sVcharge
p2870
F0
sVtag
p2871
I0
sVposition
p2872
(lp2873
F6.6991036908169956
aF-1.5245885874064453
aF-19.57074484398219
asVmomentum
p2874
(lp2875
F0
aF0
aF0
asa(dp2876
Vmagmom
p2877
F0
sVindex
p2878
I2
sVsymbol
p2879
VCu
p2880
sVcharge
p2881
F0
sVtag
p2882
I0
sVposition
p2883
(lp2884
F1.3162666377659331
aF-5.5901581538236176
aF-22.182782126401577
asVmomentum
p2885
(lp2886
F0
aF0
aF0
asa(dp2887
Vmagmom
p2888
F0
sVindex
p2889
I3
sVsymbol
p2890
VCu
p2891
sVcharge
p2892
F0
sVtag
p2893
I0
sVposition
p2894
(lp2895
F6.2101607970358046
aF-4.234968298351224
aF-14.344503517488267
asVmomentum
p2896
(lp2897
F0
aF0
aF0
asa(dp2898
Vmagmom
p2899
F0
sVindex
p2900
I4
sVsymbol
p2901
VCu
p2902
sVcharge
p2903
F0
sVtag
p2904
I0
sVposition
p2905
(lp2906
F-1.8640947825407839
aF-10.333322647976983
aF-18.26255944111735
asVmomentum
p2907
(lp2908
F0
aF0
aF0
asa(dp2909
Vmagmom
p2910
F0
sVindex
p2911
I5
sVsymbol
p2912
VCu
p2913
sVcharge
p2914
F0
sVtag
p2915
I0
sVposition
p2916
(lp2917
F4.0076851642914662
aF-3.5573733706150312
aF-20.876763485191887
asVmomentum
p2918
(lp2919
F0
aF0
aF0
asa(dp2920
Vmagmom
p2921
F0
sVindex
p2922
I6
sVsymbol
p2923
VCu
p2924
sVcharge
p2925
F0
sVtag
p2926
I0
sVposition
p2927
(lp2928
F-1.3751518887595946
aF-7.622942937032203
aF-23.48880076761127
asVmomentum
p2929
(lp2930
F0
aF0
aF0
asa(dp2931
Vmagmom
p2932
F0
sVindex
p2933
I7
sVsymbol
p2934
VCu
p2935
sVcharge
p2936
F0
sVtag
p2937
I0
sVposition
p2938
(lp2939
F3.5187422705102787
aF-6.2677530815598113
aF-15.650522158697962
asVmomentum
p2940
(lp2941
F0
aF0
aF0
asa(dp2942
Vmagmom
p2943
F0
sVindex
p2944
I8
sVsymbol
p2945
VCu
p2946
sVcharge
p2947
F0
sVtag
p2948
I0
sVposition
p2949
(lp2950
F7.5558700602985684
aF-3.2185759067469335
aF-23.707915048916323
asVmomentum
p2951
(lp2952
F0
aF0
aF0
asa(dp2953
Vmagmom
p2954
F0
sVindex
p2955
I9
sVsymbol
p2956
VCu
p2957
sVcharge
p2958
F0
sVtag
p2959
I0
sVposition
p2960
(lp2961
F3.1509187948098902
aF-1.863386051274545
aF-16.739593280257761
asVmomentum
p2962
(lp2963
F0
aF0
aF0
asa(dp2964
Vmagmom
p2965
F0
sVindex
p2966
I10
sVsymbol
p2967
VCu
p2968
sVcharge
p2969
F0
sVtag
p2970
I0
sVposition
p2971
(lp2972
F7.0669271665173783
aF-5.9289556176917158
aF-18.4816737224224
asVmomentum
p2973
(lp2974
F0
aF0
aF0
asa(dp2975
Vmagmom
p2976
F0
sVindex
p2977
I11
sVsymbol
p2978
VCu
p2979
sVcharge
p2980
F0
sVtag
p2981
I0
sVposition
p2982
(lp2983
F1.6840901134663238
aF-9.9945251841088858
aF-21.093711004841786
asVmomentum
p2984
(lp2985
F0
aF0
aF0
asa(dp2986
Vmagmom
p2987
F0
sVindex
p2988
I12
sVsymbol
p2989
VCu
p2990
sVcharge
p2991
F0
sVtag
p2992
I0
sVposition
p2993
(lp2994
F3.8865657462106613
aF-10.672120111845084
aF-14.561451037138163
asVmomentum
p2995
(lp2996
F0
aF0
aF0
asa(dp2997
Vmagmom
p2998
F0
sVindex
p2999
I13
sVsymbol
p3000
VCu
p3001
sVcharge
p3002
F0
sVtag
p3003
I0
sVposition
p3004
(lp3005
F0.45950026828436741
aF-3.8961708344831272
aF-18.045611921467451
asVmomentum
p3006
(lp3007
F0
aF0
aF0
asa(dp3008
Vmagmom
p3009
F0
sVindex
p3010
I14
sVsymbol
p3011
VCu
p3012
sVcharge
p3013
F0
sVtag
p3014
I0
sVposition
p3015
(lp3016
F4.375508639991855
aF-7.9617404009002994
aF-19.78769236363209
asVmomentum
p3017
(lp3018
F0
aF0
aF0
asa(dp3019
Vmagmom
p3020
F0
sVindex
p3021
I15
sVsymbol
p3022
VCu
p3023
sVcharge
p3024
F0
sVtag
p3025
I0
sVposition
p3026
(lp3027
F0.94844316206555224
aF-1.185791123538346
aF-23.271853247961374
asVmomentum
p3028
(lp3029
F0
aF0
aF0
asa(dp3030
Vmagmom
p3031
F0
sVindex
p3032
I16
sVsymbol
p3033
VCu
p3034
sVcharge
p3035
F0
sVtag
p3036
I0
sVposition
p3037
(lp3038
F-0.62966899778122354
aF-6.1692234745936485
aF-17.271334317707502
asVmomentum
p3039
(lp3040
F0
aF0
aF0
asa(dp3041
Vmagmom
p3042
F0
sVindex
p3043
I17
sVsymbol
p3044
VCu
p3045
sVcharge
p3046
F0
sVtag
p3047
I0
sVposition
p3048
(lp3049
F3.286339373926273
aF-10.234793041010819
aF-19.013414759872138
asVmomentum
p3050
(lp3051
F0
aF0
aF0
asa(dp3052
Vmagmom
p3053
F0
sVindex
p3054
I18
sVsymbol
p3055
VCu
p3056
sVcharge
p3057
F0
sVtag
p3058
I0
sVposition
p3059
(lp3060
F-0.14072610400003072
aF-3.4588437636488685
aF-22.497575644201433
asVmomentum
p3061
(lp3062
F0
aF0
aF0
asa(dp3063
Vmagmom
p3064
F0
sVindex
p3065
I19
sVsymbol
p3066
VCu
p3067
sVcharge
p3068
F0
sVtag
p3069
I0
sVposition
p3070
(lp3071
F4.753168055269839
aF-2.1036539081764731
aF-14.659297035288111
asVmomentum
p3072
(lp3073
F0
aF0
aF0
asa(dp3074
Vmagmom
p3075
F0
sVindex
p3076
I20
sVsymbol
p3077
VCu
p3078
sVcharge
p3079
F0
sVtag
p3080
I0
sVposition
p3081
(lp3082
F-0.91756946995152866
aF-10.041461656229126
aF-20.667415119177313
asVmomentum
p3083
(lp3084
F0
aF0
aF0
asa(dp3085
Vmagmom
p3086
F0
sVindex
p3087
I21
sVsymbol
p3088
VCu
p3089
sVcharge
p3090
F0
sVtag
p3091
I0
sVposition
p3092
(lp3093
F4.9542104768807196
aF-3.2655123788671716
aF-23.28161916325185
asVmomentum
p3094
(lp3095
F0
aF0
aF0
asa(dp3096
Vmagmom
p3097
F0
sVindex
p3098
I22
sVsymbol
p3099
VCu
p3100
sVcharge
p3101
F0
sVtag
p3102
I0
sVposition
p3103
(lp3104
F0.54925921139203826
aF-1.9103225233947858
aF-16.313297394593281
asVmomentum
p3105
(lp3106
F0
aF0
aF0
asa(dp3107
Vmagmom
p3108
F0
sVindex
p3109
I23
sVsymbol
p3110
VCu
p3111
sVcharge
p3112
F0
sVtag
p3113
I0
sVposition
p3114
(lp3115
F4.4652675830995294
aF-5.9758920898119552
aF-18.055377836757923
asVmomentum
p3116
(lp3117
F0
aF0
aF0
asa(dp3118
Vmagmom
p3119
F0
sVindex
p3120
I24
sVsymbol
p3121
VCu
p3122
sVcharge
p3123
F0
sVtag
p3124
I0
sVposition
p3125
(lp3126
F6.4882253296285128
aF-10.625183639724836
aF-14.987746922802643
asVmomentum
p3127
(lp3128
F0
aF0
aF0
asa(dp3129
Vmagmom
p3130
F0
sVindex
p3131
I25
sVsymbol
p3132
VCu
p3133
sVcharge
p3134
F0
sVtag
p3135
I0
sVposition
p3136
(lp3137
F3.0611598517022145
aF-3.8492343623628833
aF-18.471907807131924
asVmomentum
p3138
(lp3139
F0
aF0
aF0
asa(dp3140
Vmagmom
p3141
F0
sVindex
p3142
I26
sVsymbol
p3143
VCu
p3144
sVcharge
p3145
F0
sVtag
p3146
I0
sVposition
p3147
(lp3148
F6.977168223409703
aF-7.9148039287800556
aF-20.213988249296566
asVmomentum
p3149
(lp3150
F0
aF0
aF0
asa(dp3151
Vmagmom
p3152
F0
sVindex
p3153
I27
sVsymbol
p3154
VCu
p3155
sVcharge
p3156
F0
sVtag
p3157
I0
sVposition
p3158
(lp3159
F3.5501027454834011
aF-1.1388546514181022
aF-23.698149133625844
asVmomentum
p3160
(lp3161
F0
aF0
aF0
asa(dp3162
Vmagmom
p3163
F0
sVindex
p3164
I28
sVsymbol
p3165
VCu
p3166
sVcharge
p3167
F0
sVtag
p3168
I0
sVposition
p3169
(lp3170
F2.284316485750713
aF-10.43185225494315
aF-16.641747282107815
asVmomentum
p3171
(lp3172
F0
aF0
aF0
asa(dp3173
Vmagmom
p3174
F0
sVindex
p3175
I29
sVsymbol
p3176
VCu
p3177
sVcharge
p3178
F0
sVtag
p3179
I0
sVposition
p3180
(lp3181
F8.1560964325829595
aF-3.6559029775811944
aF-19.255951326182348
asVmomentum
p3182
(lp3183
F0
aF0
aF0
asa(dp3184
Vmagmom
p3185
F0
sVindex
p3186
I30
sVsymbol
p3187
VCu
p3188
sVcharge
p3189
F0
sVtag
p3190
I0
sVposition
p3191
(lp3192
F2.7732593795319005
aF-7.7214725439983694
aF-21.867988608601738
asVmomentum
p3193
(lp3194
F0
aF0
aF0
asa(dp3195
Vmagmom
p3196
F0
sVindex
p3197
I31
sVsymbol
p3198
VCu
p3199
sVcharge
p3200
F0
sVtag
p3201
I0
sVposition
p3202
(lp3203
F7.6671535388017729
aF-6.366282688525974
aF-14.029709999688421
asVmomentum
p3204
(lp3205
F0
aF0
aF0
asa(dp3206
Vmagmom
p3207
F0
sVindex
p3208
I32
sVsymbol
p3209
VCu
p3210
sVcharge
p3211
F0
sVtag
p3212
I0
sVposition
p3213
(lp3214
F0.69672648316606534
aF-10.25982503742112
aF-18.630961312788138
asVmomentum
p3215
(lp3216
F0
aF0
aF0
asa(dp3217
Vmagmom
p3218
F0
sVindex
p3219
I33
sVsymbol
p3220
VCu
p3221
sVcharge
p3222
F0
sVtag
p3223
I0
sVposition
p3224
(lp3225
F6.5685064299983171
aF-3.483875760059167
aF-21.245165356862678
asVmomentum
p3226
(lp3227
F0
aF0
aF0
asa(dp3228
Vmagmom
p3229
F0
sVindex
p3230
I34
sVsymbol
p3231
VCu
p3232
sVcharge
p3233
F0
sVtag
p3234
I0
sVposition
p3235
(lp3236
F1.1856693769472599
aF-7.5494453264763397
aF-23.857202639282065
asVmomentum
p3237
(lp3238
F0
aF0
aF0
asa(dp3239
Vmagmom
p3240
F0
sVindex
p3241
I35
sVsymbol
p3242
VCu
p3243
sVcharge
p3244
F0
sVtag
p3245
I0
sVposition
p3246
(lp3247
F6.0795635362171261
aF-6.1942554710039497
aF-16.018924030368751
asVmomentum
p3248
(lp3249
F0
aF0
aF0
asa(dp3250
Vmagmom
p3251
F0
sVindex
p3252
I36
sVsymbol
p3253
VCu
p3254
sVcharge
p3255
F0
sVtag
p3256
I0
sVposition
p3257
(lp3258
F8.2824569121651628
aF-1.703969430985524
aF-17.531200168789319
asVmomentum
p3259
(lp3260
F0
aF0
aF0
asa(dp3261
Vmagmom
p3262
F0
sVindex
p3263
I37
sVsymbol
p3264
VCu
p3265
sVcharge
p3266
F0
sVtag
p3267
I0
sVposition
p3268
(lp3269
F2.8996198591141038
aF-5.7695389974026998
aF-20.143237451208698
asVmomentum
p3270
(lp3271
F0
aF0
aF0
asa(dp3272
Vmagmom
p3273
F0
sVindex
p3274
I38
sVsymbol
p3275
VCu
p3276
sVcharge
p3277
F0
sVtag
p3278
I0
sVposition
p3279
(lp3280
F6.8156282308215967
aF-9.8351085638198761
aF-21.885317893373347
asVmomentum
p3281
(lp3282
F0
aF0
aF0
asa(dp3283
Vmagmom
p3284
F0
sVindex
p3285
I39
sVsymbol
p3286
VCu
p3287
sVcharge
p3288
F0
sVtag
p3289
I0
sVposition
p3290
(lp3291
F2.4106769653329154
aF-8.4799187083474816
aF-14.916996124714769
asVmomentum
p3292
(lp3293
F0
aF0
aF0
asa(dp3294
Vmagmom
p3295
F0
sVindex
p3296
I40
sVsymbol
p3297
VCu
p3298
sVcharge
p3299
F0
sVtag
p3300
I0
sVposition
p3301
(lp3302
F5.8594997748585964
aF-10.147822227775135
aF-19.428215585297245
asVmomentum
p3303
(lp3304
F0
aF0
aF0
asa(dp3305
Vmagmom
p3306
F0
sVindex
p3307
I41
sVsymbol
p3308
VCu
p3309
sVcharge
p3310
F0
sVtag
p3311
I0
sVposition
p3312
(lp3313
F2.4324342969322936
aF-3.3718729504131852
aF-22.912376469626523
asVmomentum
p3314
(lp3315
F0
aF0
aF0
asa(dp3316
Vmagmom
p3317
F0
sVindex
p3318
I42
sVsymbol
p3319
VCu
p3320
sVcharge
p3321
F0
sVtag
p3322
I0
sVposition
p3323
(lp3324
F7.3263284562021607
aF-2.0166830949407912
aF-15.074097860713211
asVmomentum
p3325
(lp3326
F0
aF0
aF0
asa(dp3327
Vmagmom
p3328
F0
sVindex
p3329
I43
sVsymbol
p3330
VCu
p3331
sVcharge
p3332
F0
sVtag
p3333
I0
sVposition
p3334
(lp3335
F1.9434914031511008
aF-6.0822526613579626
aF-17.686135143132606
asVmomentum
p3336
(lp3337
F0
aF0
aF0
asa(dp3338
Vmagmom
p3339
F0
sVindex
p3340
I44
sVsymbol
p3341
VCu
p3342
sVcharge
p3343
F0
sVtag
p3344
I0
sVposition
p3345
(lp3346
F7.5734502570254385
aF-8.3679158987015008
aF-15.71425039722388
asVmomentum
p3347
(lp3348
F0
aF0
aF0
asa(dp3349
Vmagmom
p3350
F0
sVindex
p3351
I45
sVsymbol
p3352
VCu
p3353
sVcharge
p3354
F0
sVtag
p3355
I0
sVposition
p3356
(lp3357
F4.1463847790991393
aF-1.5919666213395465
aF-19.198411281553163
asVmomentum
p3358
(lp3359
F0
aF0
aF0
asa(dp3360
Vmagmom
p3361
F0
sVindex
p3362
I46
sVsymbol
p3363
VCu
p3364
sVcharge
p3365
F0
sVtag
p3366
I0
sVposition
p3367
(lp3368
F8.0623931508066295
aF-5.6575361877567198
aF-20.940491723717809
asVmomentum
p3369
(lp3370
F0
aF0
aF0
asa(dp3371
Vmagmom
p3372
F0
sVindex
p3373
I47
sVsymbol
p3374
VCu
p3375
sVcharge
p3376
F0
sVtag
p3377
I0
sVposition
p3378
(lp3379
F2.6795560977555688
aF-9.723105754173897
aF-23.552529006137185
asVmomentum
p3380
(lp3381
F0
aF0
aF0
asa(dp3382
Vmagmom
p3383
F0
sVindex
p3384
I48
sVsymbol
p3385
VCu
p3386
sVcharge
p3387
F0
sVtag
p3388
I0
sVposition
p3389
(lp3390
F4.8739293765109135
aF-10.406820258532845
aF-17.024200729191815
asVmomentum
p3391
(lp3392
F0
aF0
aF0
asa(dp3393
Vmagmom
p3394
F0
sVindex
p3395
I49
sVsymbol
p3396
VCu
p3397
sVcharge
p3398
F0
sVtag
p3399
I0
sVposition
p3400
(lp3401
F1.4468638985846169
aF-3.6308709811708963
aF-20.5083616135211
asVmomentum
p3402
(lp3403
F0
aF0
aF0
asa(dp3404
Vmagmom
p3405
F0
sVindex
p3406
I50
sVsymbol
p3407
VCu
p3408
sVcharge
p3409
F0
sVtag
p3410
I0
sVposition
p3411
(lp3412
F5.3628722702921081
aF-7.6964405475880673
aF-22.250442055685742
asVmomentum
p3413
(lp3414
F0
aF0
aF0
asa(dp3415
Vmagmom
p3416
F0
sVindex
p3417
I51
sVsymbol
p3418
VCu
p3419
sVcharge
p3420
F0
sVtag
p3421
I0
sVposition
p3422
(lp3423
F0.95792100480342501
aF-6.3412506921156737
aF-15.282120287027171
asVmomentum
p3424
(lp3425
F0
aF0
aF0
asa(dp3426
Vmagmom
p3427
F0
sVindex
p3428
I52
sVsymbol
p3429
VCu
p3430
sVcharge
p3431
F0
sVtag
p3432
I0
sVposition
p3433
(lp3434
F-0.75602947736342152
aF-8.1211570211893136
aF-18.996085475100539
asVmomentum
p3435
(lp3436
F0
aF0
aF0
asa(dp3437
Vmagmom
p3438
F0
sVindex
p3439
I53
sVsymbol
p3440
VCu
p3441
sVcharge
p3442
F0
sVtag
p3443
I0
sVposition
p3444
(lp3445
F5.1157504694688276
aF-1.3452077438273582
aF-21.610289519175073
asVmomentum
p3446
(lp3447
F0
aF0
aF0
asa(dp3448
Vmagmom
p3449
F0
sVindex
p3450
I54
sVsymbol
p3451
VCu
p3452
sVcharge
p3453
F0
sVtag
p3454
I0
sVposition
p3455
(lp3456
F-0.26708658358223225
aF-5.4107773102445353
aF-24.222326801594463
asVmomentum
p3457
(lp3458
F0
aF0
aF0
asa(dp3459
Vmagmom
p3460
F0
sVindex
p3461
I55
sVsymbol
p3462
VCu
p3463
sVcharge
p3464
F0
sVtag
p3465
I0
sVposition
p3466
(lp3467
F4.6268075756876383
aF-4.05558745477214
aF-16.384048192681146
asVmomentum
p3468
(lp3469
F0
aF0
aF0
asa(dp3470
Vmagmom
p3471
F0
sVindex
p3472
I56
sVsymbol
p3473
VCu
p3474
sVcharge
p3475
F0
sVtag
p3476
I0
sVposition
p3477
(lp3478
F-0.2888439151816069
aF-10.518823068178831
aF-16.226946456682711
asVmomentum
p3479
(lp3480
F0
aF0
aF0
asa(dp3481
Vmagmom
p3482
F0
sVindex
p3483
I57
sVsymbol
p3484
VCu
p3485
sVcharge
p3486
F0
sVtag
p3487
I0
sVposition
p3488
(lp3489
F5.5829360316506413
aF-3.7428737908168781
aF-18.841150500757252
asVmomentum
p3490
(lp3491
F0
aF0
aF0
asa(dp3492
Vmagmom
p3493
F0
sVindex
p3494
I58
sVsymbol
p3495
VCu
p3496
sVcharge
p3497
F0
sVtag
p3498
I0
sVposition
p3499
(lp3500
F0.20009897859958237
aF-7.8084433572340517
aF-21.453187783176642
asVmomentum
p3501
(lp3502
F0
aF0
aF0
asa(dp3503
Vmagmom
p3504
F0
sVindex
p3505
I59
sVsymbol
p3506
VCu
p3507
sVcharge
p3508
F0
sVtag
p3509
I0
sVposition
p3510
(lp3511
F6.0718789254318306
aF-1.0324940798720921
aF-24.067391827251178
asVmomentum
p3512
(lp3513
F0
aF0
aF0
asa(dp3514
Vmagmom
p3515
F0
sVindex
p3516
I60
sVsymbol
p3517
VCu
p3518
sVcharge
p3519
F0
sVtag
p3520
I0
sVposition
p3521
(lp3522
F-0.047022822223698135
aF-1.4572105534733442
aF-20.813035246665976
asVmomentum
p3523
(lp3524
F0
aF0
aF0
asa(dp3525
Vmagmom
p3526
F0
sVindex
p3527
I61
sVsymbol
p3528
VCu
p3529
sVcharge
p3530
F0
sVtag
p3531
I0
sVposition
p3532
(lp3533
F3.868985549483793
aF-5.5227801198905171
aF-22.555115688830615
asVmomentum
p3534
(lp3535
F0
aF0
aF0
asa(dp3536
Vmagmom
p3537
F0
sVindex
p3538
I62
sVsymbol
p3539
VCu
p3540
sVcharge
p3541
F0
sVtag
p3542
I0
sVposition
p3543
(lp3544
F-0.53596571600488474
aF-4.167590264418128
aF-15.586793920172049
asVmomentum
p3545
(lp3546
F0
aF0
aF0
asa(dp3547
Vmagmom
p3548
F0
sVindex
p3549
I63
sVsymbol
p3550
VCu
p3551
sVcharge
p3552
F0
sVtag
p3553
I0
sVposition
p3554
(lp3555
F3.3800426557026038
aF-8.233159830835298
aF-17.328874362336691
asVmomentum
p3556
(lp3557
F0
aF0
aF0
asa(dp3558
Vmagmom
p3559
F0
sVindex
p3560
I64
sVsymbol
p3561
VPd
p3562
sVcharge
p3563
F0
sVtag
p3564
I0
sVposition
p3565
(lp3566
F1.8346878358956493
aF-8.0665405661910281
aF-19.396708518213519
asVmomentum
p3567
(lp3568
F0
aF0
aF0
asa(dp3569
Vmagmom
p3570
F0
sVindex
p3571
I65
sVsymbol
p3572
VPd
p3573
sVcharge
p3574
F0
sVtag
p3575
I0
sVposition
p3576
(lp3577
F7.7064677827279002
aF-1.2905912888290709
aF-22.010912562288055
asVmomentum
p3578
(lp3579
F0
aF0
aF0
asa(dp3580
Vmagmom
p3581
F0
sVindex
p3582
I66
sVsymbol
p3583
VPd
p3584
sVcharge
p3585
F0
sVtag
p3586
I0
sVposition
p3587
(lp3588
F1.3457449421144592
aF-10.776920277135808
aF-14.17046719171959
asVmomentum
p3589
(lp3590
F0
aF0
aF0
asa(dp3591
Vmagmom
p3592
F0
sVindex
p3593
I67
sVsymbol
p3594
VPd
p3595
sVcharge
p3596
F0
sVtag
p3597
I0
sVposition
p3598
(lp3599
F7.2175248889467127
aF-4.0009709997738518
aF-16.784671235794132
asVmomentum
p3600
(lp3601
F0
aF0
aF0
asa(dp3602
Vmagmom
p3603
F0
sVindex
p3604
I68
sVsymbol
p3605
VPd
p3606
sVcharge
p3607
F0
sVtag
p3608
I0
sVposition
p3609
(lp3610
F1.5476218603417227
aF-1.6713634546476674
aF-18.742637978426266
asVmomentum
p3611
(lp3612
F0
aF0
aF0
asa(dp3613
Vmagmom
p3614
F0
sVindex
p3615
I69
sVsymbol
p3616
VPd
p3617
sVcharge
p3618
F0
sVtag
p3619
I0
sVposition
p3620
(lp3621
F5.4636302320492174
aF-5.7369330210648446
aF-20.484718420590909
asVmomentum
p3622
(lp3623
F0
aF0
aF0
asa(dp3624
Vmagmom
p3625
F0
sVindex
p3626
I70
sVsymbol
p3627
VPd
p3628
sVcharge
p3629
F0
sVtag
p3630
I0
sVposition
p3631
(lp3632
F0.080793178998156634
aF-9.8025025874820138
aF-23.096755703010299
asVmomentum
p3633
(lp3634
F0
aF0
aF0
asa(dp3635
Vmagmom
p3636
F0
sVindex
p3637
I71
sVsymbol
p3638
VPd
p3639
sVcharge
p3640
F0
sVtag
p3641
I0
sVposition
p3642
(lp3643
F4.9746873382680237
aF-8.4473127320096228
aF-15.25847709409698
asVmomentum
p3644
(lp3645
F0
aF0
aF0
asa(dp3646
Vmagmom
p3647
F0
sVindex
p3648
I72
sVsymbol
p3649
VPd
p3650
sVcharge
p3651
F0
sVtag
p3652
I0
sVposition
p3653
(lp3654
F5.9788055744600177
aF-8.1537629975271688
aF-17.784647665463584
asVmomentum
p3655
(lp3656
F0
aF0
aF0
asa(dp3657
Vmagmom
p3658
F0
sVindex
p3659
I73
sVsymbol
p3660
VPd
p3661
sVcharge
p3662
F0
sVtag
p3663
I0
sVposition
p3664
(lp3665
F2.5517400965337167
aF-1.3778137201652152
aF-21.268808549792869
asVmomentum
p3666
(lp3667
F0
aF0
aF0
asa(dp3668
Vmagmom
p3669
F0
sVindex
p3670
I74
sVsymbol
p3671
VPd
p3672
sVcharge
p3673
F0
sVtag
p3674
I0
sVposition
p3675
(lp3676
F6.4677484682412052
aF-5.4433832865823879
aF-23.010888991957504
asVmomentum
p3677
(lp3678
F0
aF0
aF0
asa(dp3679
Vmagmom
p3680
F0
sVindex
p3681
I75
sVsymbol
p3682
VPd
p3683
sVcharge
p3684
F0
sVtag
p3685
I0
sVposition
p3686
(lp3687
F2.0627972027525256
aF-4.0881934311099943
aF-16.042567223298938
asVmomentum
p3688
(lp3689
F0
aF0
aF0
asa(dp3690
Vmagmom
p3691
F0
sVindex
p3692
I76
sVsymbol
p3693
VPd
p3694
sVcharge
p3695
F0
sVtag
p3696
I0
sVposition
p3697
(lp3698
F-0.18004034792615897
aF-8.5345351633457724
aF-14.516373081601795
asVmomentum
p3699
(lp3700
F0
aF0
aF0
asa(dp3701
Vmagmom
p3702
F0
sVindex
p3703
I77
sVsymbol
p3704
VPd
p3705
sVcharge
p3706
F0
sVtag
p3707
I0
sVposition
p3708
(lp3709
F5.6917395989060902
aF-1.7585858859838175
aF-17.130577125676332
asVmomentum
p3710
(lp3711
F0
aF0
aF0
asa(dp3712
Vmagmom
p3713
F0
sVindex
p3714
I78
sVsymbol
p3715
VPd
p3716
sVcharge
p3717
F0
sVtag
p3718
I0
sVposition
p3719
(lp3720
F0.30890254585503296
aF-5.8241554524009951
aF-19.742614408095719
asVmomentum
p3721
(lp3722
F0
aF0
aF0
asa(dp3723
Vmagmom
p3724
F0
sVindex
p3725
I79
sVsymbol
p3726
VPd
p3727
sVcharge
p3728
F0
sVtag
p3729
I0
sVposition
p3730
(lp3731
F4.2249109175625215
aF-9.8897250188181633
aF-21.484694850260365
asVmomentum
p3732
(lp3733
F0
aF0
aF0
asasVcell
p3734
(lp3735
(lp3736
F9.2988454247585501
aF9.9471740568155708e-16
aF0.86995684025474507
aa(lp3737
F-1.9557715751247589
aF-10.841518843779127
aF0.87212360190989768
aa(lp3738
F1.7763568394002505e-15
aF-6.6829879335422092e-15
aF-40.065683408131605
aasVmass
p3739
F5769.6639999999961
sVpbc
p3740
(lp3741
I01
aI01
aI01
asVspacegroup
p3742
VP1 (1)
p3743
sVconstraints
p3744
(lp3745
(dp3746
Vname
p3747
VFixAtoms
p3748
sVkwargs
p3749
(dp3750
Vindices
p3751
(lp3752
I1
aI2
aI4
aI5
aI6
aI8
aI10
aI11
aI13
aI14
aI15
aI17
aI18
aI20
aI21
aI23
aI25
aI26
aI27
aI29
aI30
aI32
aI33
aI34
aI36
aI37
aI38
aI40
aI41
aI43
aI45
aI46
aI47
aI48
aI49
aI50
aI52
aI53
aI54
aI57
aI58
aI59
aI60
aI61
aI63
aI64
aI65
aI68
aI69
aI70
aI72
aI73
aI74
aI78
aI79
assasaa(lp3753
g921
ag2
((ltRp3754
aa(lp3755
g924
ag925
aa(lp3756
g927
aS'f661522f099d868121c9ab283d3f6ec4f113d700'
p3757
aa(lp3758
g930
ag931
(S'\x07\xe1\x03\x1f\x13-\x02\x0e\xdd4'
tRp3759
aa(lp3760
g934
ag931
(S'\x07\xe1\x03\x1f\x13-\x02\x0e\xdd>'
tRp3761
aa(lp3762
g937
a(dp3763
g939
g949
sg950
I00
sg951
g952
sg953
g2835
sg958
g972
sg973
g974
sg975
I00
sg976
g977
sg978
I80
saatRp3764
a.