(lp1
ccollections
OrderedDict
p2
((lp3
(lp4
S'atoms'
p5
a(dp6
Vinfo
p7
(dp8
sVvolume
p9
F2019.5830486345715
sVnatoms
p10
I40
sVsymbol_counts
p11
(dp12
VCu
p13
I32
sVPd
p14
I8
ssVchemical_symbols
p15
(lp16
VPd
p17
aVCu
p18
asVatoms
p19
(lp20
(dp21
Vmagmom
p22
F0
sVindex
p23
I0
sVsymbol
p24
VCu
p25
sVcharge
p26
F0
sVtag
p27
I0
sVposition
p28
(lp29
F1.9721522630525295e-31
aF4.1772491985535911
aF20.468521072912587
asVmomentum
p30
(lp31
F0
aF0
aF0
asa(dp32
Vmagmom
p33
F0
sVindex
p34
I1
sVsymbol
p35
VCu
p36
sVcharge
p37
F0
sVtag
p38
I0
sVposition
p39
(lp40
F1.9721522630525295e-31
aF0
aF16.291271874358998
asVmomentum
p41
(lp42
F0
aF0
aF0
asa(dp43
Vmagmom
p44
F0
sVindex
p45
I2
sVsymbol
p46
VCu
p47
sVcharge
p48
F0
sVtag
p49
I0
sVposition
p50
(lp51
F3.61685393
aF4.1772491985535911
aF20.468521072912587
asVmomentum
p52
(lp53
F0
aF0
aF0
asa(dp54
Vmagmom
p55
F0
sVindex
p56
I3
sVsymbol
p57
VCu
p58
sVcharge
p59
F0
sVtag
p60
I0
sVposition
p61
(lp62
F3.61685393
aF0
aF16.291271874358998
asVmomentum
p63
(lp64
F0
aF0
aF0
asa(dp65
Vmagmom
p66
F0
sVindex
p67
I4
sVsymbol
p68
VCu
p69
sVcharge
p70
F0
sVtag
p71
I0
sVposition
p72
(lp73
F5.4252808950000002
aF4.1772491985535911
aF16.291271874358998
asVmomentum
p74
(lp75
F0
aF0
aF0
asa(dp76
Vmagmom
p77
F0
sVindex
p78
I5
sVsymbol
p79
VCu
p80
sVcharge
p81
F0
sVtag
p82
I0
sVposition
p83
(lp84
F5.4252808950000002
aF1.7763568394002505e-15
aF20.468521072912587
asVmomentum
p85
(lp86
F0
aF0
aF0
asa(dp87
Vmagmom
p88
F0
sVindex
p89
I6
sVsymbol
p90
VCu
p91
sVcharge
p92
F0
sVtag
p93
I0
sVposition
p94
(lp95
F1.808426965
aF4.1772491985535911
aF16.291271874358998
asVmomentum
p96
(lp97
F0
aF0
aF0
asa(dp98
Vmagmom
p99
F0
sVindex
p100
I7
sVsymbol
p101
VCu
p102
sVcharge
p103
F0
sVtag
p104
I0
sVposition
p105
(lp106
F1.808426965
aF1.7763568394002505e-15
aF20.468521072912587
asVmomentum
p107
(lp108
F0
aF0
aF0
asa(dp109
Vmagmom
p110
F0
sVindex
p111
I8
sVsymbol
p112
VCu
p113
sVcharge
p114
F0
sVtag
p115
I0
sVposition
p116
(lp117
F0
aF6.6348089483165413
aF12.965388586867473
asVmomentum
p118
(lp119
F0
aF0
aF0
asa(dp120
Vmagmom
p121
F0
sVindex
p122
I9
sVsymbol
p123
VCu
p124
sVcharge
p125
F0
sVtag
p126
I0
sVposition
p127
(lp128
F1.9721522630525295e-31
aF2.4575597497629511
aF17.142637785421062
asVmomentum
p129
(lp130
F0
aF0
aF0
asa(dp131
Vmagmom
p132
F0
sVindex
p133
I10
sVsymbol
p134
VCu
p135
sVcharge
p136
F0
sVtag
p137
I0
sVposition
p138
(lp139
F3.61685393
aF5.0286151096156519
aF18.010961323149637
asVmomentum
p140
(lp141
F0
aF0
aF0
asa(dp142
Vmagmom
p143
F0
sVindex
p144
I11
sVsymbol
p145
VCu
p146
sVcharge
p147
F0
sVtag
p148
I0
sVposition
p149
(lp150
F3.61685393
aF0.8513659110620635
aF13.833712124596051
asVmomentum
p151
(lp152
F0
aF0
aF0
asa(dp153
Vmagmom
p154
F0
sVindex
p155
I12
sVsymbol
p156
VCu
p157
sVcharge
p158
F0
sVtag
p159
I0
sVposition
p160
(lp161
F3.61685393
aF3.3258832874915267
aF14.57158242556836
asVmomentum
p162
(lp163
F0
aF0
aF0
asa(dp164
Vmagmom
p165
F0
sVindex
p166
I13
sVsymbol
p167
VCu
p168
sVcharge
p169
F0
sVtag
p170
I0
sVposition
p171
(lp172
F3.61685393
aF7.5031324860451178
aF18.748831624121951
asVmomentum
p173
(lp174
F0
aF0
aF0
asa(dp175
Vmagmom
p176
F0
sVindex
p177
I14
sVsymbol
p178
VCu
p179
sVcharge
p180
F0
sVtag
p181
I0
sVposition
p182
(lp183
F0
aF1.7196894487906409
aF19.617155161850526
asVmomentum
p184
(lp185
F0
aF0
aF0
asa(dp186
Vmagmom
p187
F0
sVindex
p188
I15
sVsymbol
p189
VCu
p190
sVcharge
p191
F0
sVtag
p192
I0
sVposition
p193
(lp194
F0
aF5.8969386473442302
aF15.439905963296939
asVmomentum
p195
(lp196
F0
aF0
aF0
asa(dp197
Vmagmom
p198
F0
sVindex
p199
I16
sVsymbol
p200
VCu
p201
sVcharge
p202
F0
sVtag
p203
I0
sVposition
p204
(lp205
F5.4307250558725144
aF3.3400338026966097
aF18.822960587129579
asVmomentum
p206
(lp207
F0
aF0
aF0
asa(dp208
Vmagmom
p209
F0
sVindex
p210
I17
sVsymbol
p211
VCu
p212
sVcharge
p213
F0
sVtag
p214
I0
sVposition
p215
(lp216
F5.4307250558725144
aF7.5172830012502008
aF14.64571138857599
asVmomentum
p217
(lp218
F0
aF0
aF0
asa(dp219
Vmagmom
p220
F0
sVindex
p221
I18
sVsymbol
p222
VCu
p223
sVcharge
p224
F0
sVtag
p225
I0
sVposition
p226
(lp227
F1.8138711258725142
aF2.5316887127705794
aF12.951238071662392
asVmomentum
p228
(lp229
F0
aF0
aF0
asa(dp230
Vmagmom
p231
F0
sVindex
p232
I19
sVsymbol
p233
VCu
p234
sVcharge
p235
F0
sVtag
p236
I0
sVposition
p237
(lp238
F1.8138711258725142
aF6.7089379113241696
aF17.128487270215977
asVmomentum
p239
(lp240
F0
aF0
aF0
asa(dp241
Vmagmom
p242
F0
sVindex
p243
I20
sVsymbol
p244
VCu
p245
sVcharge
p246
F0
sVtag
p247
I0
sVposition
p248
(lp249
F1.8138711258725142
aF5.8228096843366002
aF19.631305677055611
asVmomentum
p250
(lp251
F0
aF0
aF0
asa(dp252
Vmagmom
p253
F0
sVindex
p254
I21
sVsymbol
p255
VCu
p256
sVcharge
p257
F0
sVtag
p258
I0
sVposition
p259
(lp260
F1.8138711258725149
aF1.64556048578301
aF15.454056478502022
asVmomentum
p261
(lp262
F0
aF0
aF0
asa(dp263
Vmagmom
p264
F0
sVindex
p265
I22
sVsymbol
p266
VCu
p267
sVcharge
p268
F0
sVtag
p269
I0
sVposition
p270
(lp271
F5.4307250558725144
aF5.014464594410569
aF13.75958316158842
asVmomentum
p272
(lp273
F0
aF0
aF0
asa(dp274
Vmagmom
p275
F0
sVindex
p276
I23
sVsymbol
p277
VCu
p278
sVcharge
p279
F0
sVtag
p280
I0
sVposition
p281
(lp282
F5.4307250558725144
aF0.83721539585697791
aF17.936832360142013
asVmomentum
p283
(lp284
F0
aF0
aF0
asa(dp285
Vmagmom
p286
F0
sVindex
p287
I24
sVsymbol
p288
VCu
p289
sVcharge
p290
F0
sVtag
p291
I0
sVposition
p292
(lp293
F1.8029828041274858
aF5.014464594410569
aF13.75958316158842
asVmomentum
p294
(lp295
F0
aF0
aF0
asa(dp296
Vmagmom
p297
F0
sVindex
p298
I25
sVsymbol
p299
VCu
p300
sVcharge
p301
F0
sVtag
p302
I0
sVposition
p303
(lp304
F1.8029828041274858
aF0.83721539585697791
aF17.936832360142013
asVmomentum
p305
(lp306
F0
aF0
aF0
asa(dp307
Vmagmom
p308
F0
sVindex
p309
I26
sVsymbol
p310
VCu
p311
sVcharge
p312
F0
sVtag
p313
I0
sVposition
p314
(lp315
F5.419836734127486
aF5.8228096843366002
aF19.631305677055611
asVmomentum
p316
(lp317
F0
aF0
aF0
asa(dp318
Vmagmom
p319
F0
sVindex
p320
I27
sVsymbol
p321
VCu
p322
sVcharge
p323
F0
sVtag
p324
I0
sVposition
p325
(lp326
F5.419836734127486
aF1.64556048578301
aF15.454056478502022
asVmomentum
p327
(lp328
F0
aF0
aF0
asa(dp329
Vmagmom
p330
F0
sVindex
p331
I28
sVsymbol
p332
VCu
p333
sVcharge
p334
F0
sVtag
p335
I0
sVposition
p336
(lp337
F5.4198367341274869
aF2.5316887127705794
aF12.951238071662392
asVmomentum
p338
(lp339
F0
aF0
aF0
asa(dp340
Vmagmom
p341
F0
sVindex
p342
I29
sVsymbol
p343
VCu
p344
sVcharge
p345
F0
sVtag
p346
I0
sVposition
p347
(lp348
F5.4198367341274869
aF6.7089379113241696
aF17.128487270215977
asVmomentum
p349
(lp350
F0
aF0
aF0
asa(dp351
Vmagmom
p352
F0
sVindex
p353
I30
sVsymbol
p354
VCu
p355
sVcharge
p356
F0
sVtag
p357
I0
sVposition
p358
(lp359
F1.8029828041274851
aF3.3400338026966097
aF18.822960587129579
asVmomentum
p360
(lp361
F0
aF0
aF0
asa(dp362
Vmagmom
p363
F0
sVindex
p364
I31
sVsymbol
p365
VCu
p366
sVcharge
p367
F0
sVtag
p368
I0
sVposition
p369
(lp370
F1.8029828041274858
aF7.5172830012502008
aF14.64571138857599
asVmomentum
p371
(lp372
F0
aF0
aF0
asa(dp373
Vmagmom
p374
F0
sVindex
p375
I32
sVsymbol
p376
VPd
p377
sVcharge
p378
F0
sVtag
p379
I0
sVposition
p380
(lp381
F0
aF4.9714546341224519
aF17.940044581230712
asVmomentum
p382
(lp383
F0
aF0
aF0
asa(dp384
Vmagmom
p385
F0
sVindex
p386
I33
sVsymbol
p387
VPd
p388
sVcharge
p389
F0
sVtag
p390
I0
sVposition
p391
(lp392
F0
aF0.79420543556886347
aF13.762795382677124
asVmomentum
p393
(lp394
F0
aF0
aF0
asa(dp395
Vmagmom
p396
F0
sVindex
p397
I34
sVsymbol
p398
VPd
p399
sVcharge
p400
F0
sVtag
p401
I0
sVposition
p402
(lp403
F3.61685393
aF1.6487727068717142
aF19.674315637343728
asVmomentum
p404
(lp405
F0
aF0
aF0
asa(dp406
Vmagmom
p407
F0
sVindex
p408
I35
sVsymbol
p409
VPd
p410
sVcharge
p411
F0
sVtag
p412
I0
sVposition
p413
(lp414
F3.61685393
aF5.8260219054253035
aF15.49706643879014
asVmomentum
p415
(lp416
F0
aF0
aF0
asa(dp417
Vmagmom
p418
F0
sVindex
p419
I36
sVsymbol
p420
VPd
p421
sVcharge
p422
F0
sVtag
p423
I0
sVposition
p424
(lp425
F3.61685393
aF6.7057256902354681
aF12.908228111374271
asVmomentum
p426
(lp427
F0
aF0
aF0
asa(dp428
Vmagmom
p429
F0
sVindex
p430
I37
sVsymbol
p431
VPd
p432
sVcharge
p433
F0
sVtag
p434
I0
sVposition
p435
(lp436
F3.61685393
aF2.5284764916818778
aF17.08547730992786
asVmomentum
p437
(lp438
F0
aF0
aF0
asa(dp439
Vmagmom
p440
F0
sVindex
p441
I38
sVsymbol
p442
VPd
p443
sVcharge
p444
F0
sVtag
p445
I0
sVposition
p446
(lp447
F0
aF3.3830437629847285
aF14.642499167487285
asVmomentum
p448
(lp449
F0
aF0
aF0
asa(dp450
Vmagmom
p451
F0
sVindex
p452
I39
sVsymbol
p453
VPd
p454
sVcharge
p455
F0
sVtag
p456
I0
sVposition
p457
(lp458
F0
aF7.5602929615383161
aF18.819748366040876
asVmomentum
p459
(lp460
F0
aF0
aF0
asasVcell
p461
(lp462
(lp463
F7.23370786
aF0
aF0
aa(lp464
F-4.9303806576313238e-32
aF8.3544983971071805
aF0
aa(lp465
F0
aF3.5527136788005009e-15
aF33.417993588428715
aasVmass
p466
F2884.8320000000017
sVpbc
p467
(lp468
I01
aI01
aI01
asVspacegroup
p469
VPm (6)
p470
sVconstraints
p471
(lp472
(dp473
Vname
p474
VFixAtoms
p475
sVkwargs
p476
(dp477
Vindices
p478
(lp479
I1
aI3
aI4
aI6
aI8
aI9
aI11
aI12
aI15
aI17
aI18
aI19
aI21
aI22
aI24
aI27
aI28
aI29
aI31
aI33
aI35
aI36
aI37
aI38
assasaa(lp480
S'results'
p481
ag2
((ltRp482
aa(lp483
S'user'
p484
aS'ktran'
p485
aa(lp486
S'inserted-hash'
p487
aS'e3c35ac41367bae35475c5592762666942a98ab4'
p488
aa(lp489
S'ctime'
p490
acdatetime
datetime
p491
(S'\x07\xe1\x03\x1f\x13-\x00\x05\xa8f'
tRp492
aa(lp493
S'mtime'
p494
ag491
(S'\x07\xe1\x03\x1f\x13-\x00\x05\xa8\x8e'
tRp495
aa(lp496
S'tags'
p497
a(dp498
S'get_slab_settings'
p499
g2
((lp500
(lp501
S'max_broken_bonds'
p502
aI0
aa(lp503
S'bonds'
p504
aNaa(lp505
S'tol'
p506
aF0.29999999999999999
aa(lp507
S'symmetrize'
p508
aI00
aatRp509
sS'relaxed'
p510
I00
sS'mpid'
p511
Vmp-30594
p512
sS'shift'
p513
cnumpy.core.multiarray
scalar
p514
(cnumpy
dtype
p515
(S'f8'
I0
I1
tRp516
(I3
S'<'
NNNI-1
I-1
I0
tbS',\xb6\x00\x02\x10V\xa8?'
tRp517
sS'slab_generate_settings'
p518
g2
((lp519
(lp520
S'primitive'
p521
aI01
aa(lp522
S'min_vacuum_size'
p523
aF20
aa(lp524
S'lll_reduce'
p525
aI00
aa(lp526
S'max_normal_search'
p527
aI1
aa(lp528
S'min_slab_size'
p529
aF7
aa(lp530
S'center_slab'
p531
aI01
aatRp532
sS'miller'
p533
(I1
I1
I0
tp534
sS'top'
p535
I01
sS'type'
p536
S'slab'
p537
sS'num_slab_atoms'
p538
I40
saatRp539
ag2
((lp540
(lp541
g5
a(dp542
Vinfo
p543
(dp544
sVvolume
p545
F2019.5830486345715
sVnatoms
p546
I40
sVsymbol_counts
p547
(dp548
VCu
p549
I32
sVPd
p550
I8
ssVchemical_symbols
p551
(lp552
VPd
p553
aVCu
p554
asVatoms
p555
(lp556
(dp557
Vmagmom
p558
F0
sVindex
p559
I0
sVsymbol
p560
VCu
p561
sVcharge
p562
F0
sVtag
p563
I0
sVposition
p564
(lp565
F1.9721522630525295e-31
aF-4.1772491985535938
aF-20.468521072912587
asVmomentum
p566
(lp567
F0
aF0
aF0
asa(dp568
Vmagmom
p569
F0
sVindex
p570
I1
sVsymbol
p571
VCu
p572
sVcharge
p573
F0
sVtag
p574
I0
sVposition
p575
(lp576
F1.9721522630525295e-31
aF-1.9951053954973048e-15
aF-16.291271874358998
asVmomentum
p577
(lp578
F0
aF0
aF0
asa(dp579
Vmagmom
p580
F0
sVindex
p581
I2
sVsymbol
p582
VCu
p583
sVcharge
p584
F0
sVtag
p585
I0
sVposition
p586
(lp587
F3.61685393
aF-4.1772491985535938
aF-20.468521072912587
asVmomentum
p588
(lp589
F0
aF0
aF0
asa(dp590
Vmagmom
p591
F0
sVindex
p592
I3
sVsymbol
p593
VCu
p594
sVcharge
p595
F0
sVtag
p596
I0
sVposition
p597
(lp598
F3.61685393
aF-1.9951053954973048e-15
aF-16.291271874358998
asVmomentum
p599
(lp600
F0
aF0
aF0
asa(dp601
Vmagmom
p602
F0
sVindex
p603
I4
sVsymbol
p604
VCu
p605
sVcharge
p606
F0
sVtag
p607
I0
sVposition
p608
(lp609
F5.4252808950000002
aF-4.1772491985535929
aF-16.291271874358998
asVmomentum
p610
(lp611
F0
aF0
aF0
asa(dp612
Vmagmom
p613
F0
sVindex
p614
I5
sVsymbol
p615
VCu
p616
sVcharge
p617
F0
sVtag
p618
I0
sVposition
p619
(lp620
F5.4252808950000002
aF-4.2830277209225051e-15
aF-20.468521072912587
asVmomentum
p621
(lp622
F0
aF0
aF0
asa(dp623
Vmagmom
p624
F0
sVindex
p625
I6
sVsymbol
p626
VCu
p627
sVcharge
p628
F0
sVtag
p629
I0
sVposition
p630
(lp631
F1.808426965
aF-4.1772491985535929
aF-16.291271874358998
asVmomentum
p632
(lp633
F0
aF0
aF0
asa(dp634
Vmagmom
p635
F0
sVindex
p636
I7
sVsymbol
p637
VCu
p638
sVcharge
p639
F0
sVtag
p640
I0
sVposition
p641
(lp642
F1.808426965
aF-4.2830277209225051e-15
aF-20.468521072912587
asVmomentum
p643
(lp644
F0
aF0
aF0
asa(dp645
Vmagmom
p646
F0
sVindex
p647
I8
sVsymbol
p648
VCu
p649
sVcharge
p650
F0
sVtag
p651
I0
sVposition
p652
(lp653
F0
aF-6.6348089483165431
aF-12.965388586867473
asVmomentum
p654
(lp655
F0
aF0
aF0
asa(dp656
Vmagmom
p657
F0
sVindex
p658
I9
sVsymbol
p659
VCu
p660
sVcharge
p661
F0
sVtag
p662
I0
sVposition
p663
(lp664
F1.9721522630525295e-31
aF-2.4575597497629533
aF-17.142637785421062
asVmomentum
p665
(lp666
F0
aF0
aF0
asa(dp667
Vmagmom
p668
F0
sVindex
p669
I10
sVsymbol
p670
VCu
p671
sVcharge
p672
F0
sVtag
p673
I0
sVposition
p674
(lp675
F3.61685393
aF-5.0286151096156537
aF-18.010961323149637
asVmomentum
p676
(lp677
F0
aF0
aF0
asa(dp678
Vmagmom
p679
F0
sVindex
p680
I11
sVsymbol
p681
VCu
p682
sVcharge
p683
F0
sVtag
p684
I0
sVposition
p685
(lp686
F3.61685393
aF-0.85136591106206516
aF-13.833712124596051
asVmomentum
p687
(lp688
F0
aF0
aF0
asa(dp689
Vmagmom
p690
F0
sVindex
p691
I12
sVsymbol
p692
VCu
p693
sVcharge
p694
F0
sVtag
p695
I0
sVposition
p696
(lp697
F3.61685393
aF-3.3258832874915285
aF-14.57158242556836
asVmomentum
p698
(lp699
F0
aF0
aF0
asa(dp700
Vmagmom
p701
F0
sVindex
p702
I13
sVsymbol
p703
VCu
p704
sVcharge
p705
F0
sVtag
p706
I0
sVposition
p707
(lp708
F3.61685393
aF-7.5031324860451205
aF-18.748831624121951
asVmomentum
p709
(lp710
F0
aF0
aF0
asa(dp711
Vmagmom
p712
F0
sVindex
p713
I14
sVsymbol
p714
VCu
p715
sVcharge
p716
F0
sVtag
p717
I0
sVposition
p718
(lp719
F0
aF-1.7196894487906433
aF-19.617155161850526
asVmomentum
p720
(lp721
F0
aF0
aF0
asa(dp722
Vmagmom
p723
F0
sVindex
p724
I15
sVsymbol
p725
VCu
p726
sVcharge
p727
F0
sVtag
p728
I0
sVposition
p729
(lp730
F0
aF-5.896938647344232
aF-15.439905963296939
asVmomentum
p731
(lp732
F0
aF0
aF0
asa(dp733
Vmagmom
p734
F0
sVindex
p735
I16
sVsymbol
p736
VCu
p737
sVcharge
p738
F0
sVtag
p739
I0
sVposition
p740
(lp741
F5.4307250558725144
aF-3.3400338026966119
aF-18.822960587129579
asVmomentum
p742
(lp743
F0
aF0
aF0
asa(dp744
Vmagmom
p745
F0
sVindex
p746
I17
sVsymbol
p747
VCu
p748
sVcharge
p749
F0
sVtag
p750
I0
sVposition
p751
(lp752
F5.4307250558725144
aF-7.5172830012502025
aF-14.645711388575988
asVmomentum
p753
(lp754
F0
aF0
aF0
asa(dp755
Vmagmom
p756
F0
sVindex
p757
I18
sVsymbol
p758
VCu
p759
sVcharge
p760
F0
sVtag
p761
I0
sVposition
p762
(lp763
F1.8138711258725142
aF-2.5316887127705812
aF-12.951238071662392
asVmomentum
p764
(lp765
F0
aF0
aF0
asa(dp766
Vmagmom
p767
F0
sVindex
p768
I19
sVsymbol
p769
VCu
p770
sVcharge
p771
F0
sVtag
p772
I0
sVposition
p773
(lp774
F1.8138711258725142
aF-6.7089379113241714
aF-17.128487270215977
asVmomentum
p775
(lp776
F0
aF0
aF0
asa(dp777
Vmagmom
p778
F0
sVindex
p779
I20
sVsymbol
p780
VCu
p781
sVcharge
p782
F0
sVtag
p783
I0
sVposition
p784
(lp785
F1.8138711258725142
aF-5.8228096843366028
aF-19.631305677055611
asVmomentum
p786
(lp787
F0
aF0
aF0
asa(dp788
Vmagmom
p789
F0
sVindex
p790
I21
sVsymbol
p791
VCu
p792
sVcharge
p793
F0
sVtag
p794
I0
sVposition
p795
(lp796
F1.8138711258725149
aF-1.645560485783012
aF-15.454056478502022
asVmomentum
p797
(lp798
F0
aF0
aF0
asa(dp799
Vmagmom
p800
F0
sVindex
p801
I22
sVsymbol
p802
VCu
p803
sVcharge
p804
F0
sVtag
p805
I0
sVposition
p806
(lp807
F5.4307250558725144
aF-5.0144645944105708
aF-13.75958316158842
asVmomentum
p808
(lp809
F0
aF0
aF0
asa(dp810
Vmagmom
p811
F0
sVindex
p812
I23
sVsymbol
p813
VCu
p814
sVcharge
p815
F0
sVtag
p816
I0
sVposition
p817
(lp818
F5.4307250558725144
aF-0.83721539585698013
aF-17.936832360142013
asVmomentum
p819
(lp820
F0
aF0
aF0
asa(dp821
Vmagmom
p822
F0
sVindex
p823
I24
sVsymbol
p824
VCu
p825
sVcharge
p826
F0
sVtag
p827
I0
sVposition
p828
(lp829
F1.8029828041274858
aF-5.0144645944105708
aF-13.75958316158842
asVmomentum
p830
(lp831
F0
aF0
aF0
asa(dp832
Vmagmom
p833
F0
sVindex
p834
I25
sVsymbol
p835
VCu
p836
sVcharge
p837
F0
sVtag
p838
I0
sVposition
p839
(lp840
F1.8029828041274858
aF-0.83721539585698013
aF-17.936832360142013
asVmomentum
p841
(lp842
F0
aF0
aF0
asa(dp843
Vmagmom
p844
F0
sVindex
p845
I26
sVsymbol
p846
VCu
p847
sVcharge
p848
F0
sVtag
p849
I0
sVposition
p850
(lp851
F5.419836734127486
aF-5.8228096843366028
aF-19.631305677055611
asVmomentum
p852
(lp853
F0
aF0
aF0
asa(dp854
Vmagmom
p855
F0
sVindex
p856
I27
sVsymbol
p857
VCu
p858
sVcharge
p859
F0
sVtag
p860
I0
sVposition
p861
(lp862
F5.419836734127486
aF-1.645560485783012
aF-15.454056478502022
asVmomentum
p863
(lp864
F0
aF0
aF0
asa(dp865
Vmagmom
p866
F0
sVindex
p867
I28
sVsymbol
p868
VCu
p869
sVcharge
p870
F0
sVtag
p871
I0
sVposition
p872
(lp873
F5.4198367341274869
aF-2.5316887127705812
aF-12.951238071662392
asVmomentum
p874
(lp875
F0
aF0
aF0
asa(dp876
Vmagmom
p877
F0
sVindex
p878
I29
sVsymbol
p879
VCu
p880
sVcharge
p881
F0
sVtag
p882
I0
sVposition
p883
(lp884
F5.4198367341274869
aF-6.7089379113241714
aF-17.128487270215977
asVmomentum
p885
(lp886
F0
aF0
aF0
asa(dp887
Vmagmom
p888
F0
sVindex
p889
I30
sVsymbol
p890
VCu
p891
sVcharge
p892
F0
sVtag
p893
I0
sVposition
p894
(lp895
F1.8029828041274851
aF-3.3400338026966119
aF-18.822960587129579
asVmomentum
p896
(lp897
F0
aF0
aF0
asa(dp898
Vmagmom
p899
F0
sVindex
p900
I31
sVsymbol
p901
VCu
p902
sVcharge
p903
F0
sVtag
p904
I0
sVposition
p905
(lp906
F1.8029828041274858
aF-7.5172830012502025
aF-14.645711388575988
asVmomentum
p907
(lp908
F0
aF0
aF0
asa(dp909
Vmagmom
p910
F0
sVindex
p911
I32
sVsymbol
p912
VPd
p913
sVcharge
p914
F0
sVtag
p915
I0
sVposition
p916
(lp917
F0
aF-4.9714546341224537
aF-17.940044581230712
asVmomentum
p918
(lp919
F0
aF0
aF0
asa(dp920
Vmagmom
p921
F0
sVindex
p922
I33
sVsymbol
p923
VPd
p924
sVcharge
p925
F0
sVtag
p926
I0
sVposition
p927
(lp928
F0
aF-0.79420543556886514
aF-13.762795382677124
asVmomentum
p929
(lp930
F0
aF0
aF0
asa(dp931
Vmagmom
p932
F0
sVindex
p933
I34
sVsymbol
p934
VPd
p935
sVcharge
p936
F0
sVtag
p937
I0
sVposition
p938
(lp939
F3.61685393
aF-1.6487727068717166
aF-19.674315637343728
asVmomentum
p940
(lp941
F0
aF0
aF0
asa(dp942
Vmagmom
p943
F0
sVindex
p944
I35
sVsymbol
p945
VPd
p946
sVcharge
p947
F0
sVtag
p948
I0
sVposition
p949
(lp950
F3.61685393
aF-5.8260219054253053
aF-15.49706643879014
asVmomentum
p951
(lp952
F0
aF0
aF0
asa(dp953
Vmagmom
p954
F0
sVindex
p955
I36
sVsymbol
p956
VPd
p957
sVcharge
p958
F0
sVtag
p959
I0
sVposition
p960
(lp961
F3.61685393
aF-6.7057256902354698
aF-12.908228111374271
asVmomentum
p962
(lp963
F0
aF0
aF0
asa(dp964
Vmagmom
p965
F0
sVindex
p966
I37
sVsymbol
p967
VPd
p968
sVcharge
p969
F0
sVtag
p970
I0
sVposition
p971
(lp972
F3.61685393
aF-2.52847649168188
aF-17.08547730992786
asVmomentum
p973
(lp974
F0
aF0
aF0
asa(dp975
Vmagmom
p976
F0
sVindex
p977
I38
sVsymbol
p978
VPd
p979
sVcharge
p980
F0
sVtag
p981
I0
sVposition
p982
(lp983
F0
aF-3.3830437629847303
aF-14.642499167487285
asVmomentum
p984
(lp985
F0
aF0
aF0
asa(dp986
Vmagmom
p987
F0
sVindex
p988
I39
sVsymbol
p989
VPd
p990
sVcharge
p991
F0
sVtag
p992
I0
sVposition
p993
(lp994
F0
aF-7.5602929615383188
aF-18.819748366040876
asVmomentum
p995
(lp996
F0
aF0
aF0
asasVcell
p997
(lp998
(lp999
F7.23370786
aF0
aF0
aa(lp1000
F-4.9303806576313238e-32
aF-8.3544983971071805
aF1.0231309720499002e-15
aa(lp1001
F0
aF-7.6452375670001008e-15
aF-33.417993588428715
aasVmass
p1002
F2884.8320000000017
sVpbc
p1003
(lp1004
I01
aI01
aI01
asVspacegroup
p1005
VPm (6)
p1006
sVconstraints
p1007
(lp1008
(dp1009
Vname
p1010
VFixAtoms
p1011
sVkwargs
p1012
(dp1013
Vindices
p1014
(lp1015
I0
aI1
aI2
aI3
aI4
aI5
aI6
aI7
aI9
aI10
aI13
aI14
aI16
aI19
aI20
aI23
aI25
aI26
aI29
aI30
aI32
aI34
aI37
aI39
assasaa(lp1016
g481
ag2
((ltRp1017
aa(lp1018
g484
ag485
aa(lp1019
g487
aS'9c6c6fc3d474fda4f8253c1a22b8ae8fca0247dc'
p1020
aa(lp1021
g490
ag491
(S'\x07\xe1\x03\x1f\x13-\x00\x05\xe4\xb6'
tRp1022
aa(lp1023
g494
ag491
(S'\x07\xe1\x03\x1f\x13-\x00\x05\xe4\xbe'
tRp1024
aa(lp1025
g497
a(dp1026
g499
g509
sg510
I00
sg511
g512
sg513
g517
sg518
g532
sg533
g534
sg535
I00
sg536
g537
sg538
I40
saatRp1027
ag2
((lp1028
(lp1029
g5
a(dp1030
Vinfo
p1031
(dp1032
sVvolume
p1033
F2019.5830486345715
sVnatoms
p1034
I40
sVsymbol_counts
p1035
(dp1036
VCu
p1037
I32
sVPd
p1038
I8
ssVchemical_symbols
p1039
(lp1040
VPd
p1041
aVCu
p1042
asVatoms
p1043
(lp1044
(dp1045
Vmagmom
p1046
F0
sVindex
p1047
I0
sVsymbol
p1048
VCu
p1049
sVcharge
p1050
F0
sVtag
p1051
I0
sVposition
p1052
(lp1053
F0
aF4.1772491985535902
aF19.633071233201875
asVmomentum
p1054
(lp1055
F0
aF0
aF0
asa(dp1056
Vmagmom
p1057
F0
sVindex
p1058
I1
sVsymbol
p1059
VCu
p1060
sVcharge
p1061
F0
sVtag
p1062
I0
sVposition
p1063
(lp1064
F0
aF0
aF15.455822034648282
asVmomentum
p1065
(lp1066
F0
aF0
aF0
asa(dp1067
Vmagmom
p1068
F0
sVindex
p1069
I2
sVsymbol
p1070
VCu
p1071
sVcharge
p1072
F0
sVtag
p1073
I0
sVposition
p1074
(lp1075
F3.61685393
aF4.1772491985535902
aF19.633071233201875
asVmomentum
p1076
(lp1077
F0
aF0
aF0
asa(dp1078
Vmagmom
p1079
F0
sVindex
p1080
I3
sVsymbol
p1081
VCu
p1082
sVcharge
p1083
F0
sVtag
p1084
I0
sVposition
p1085
(lp1086
F3.61685393
aF0
aF15.455822034648282
asVmomentum
p1087
(lp1088
F0
aF0
aF0
asa(dp1089
Vmagmom
p1090
F0
sVindex
p1091
I4
sVsymbol
p1092
VCu
p1093
sVcharge
p1094
F0
sVtag
p1095
I0
sVposition
p1096
(lp1097
F5.4252808950000002
aF4.1772491985535893
aF15.455822034648284
asVmomentum
p1098
(lp1099
F0
aF0
aF0
asa(dp1100
Vmagmom
p1101
F0
sVindex
p1102
I5
sVsymbol
p1103
VCu
p1104
sVcharge
p1105
F0
sVtag
p1106
I0
sVposition
p1107
(lp1108
F5.4252808950000002
aF-1.7763568394002505e-15
aF19.633071233201875
asVmomentum
p1109
(lp1110
F0
aF0
aF0
asa(dp1111
Vmagmom
p1112
F0
sVindex
p1113
I6
sVsymbol
p1114
VCu
p1115
sVcharge
p1116
F0
sVtag
p1117
I0
sVposition
p1118
(lp1119
F1.808426965
aF4.1772491985535893
aF15.455822034648284
asVmomentum
p1120
(lp1121
F0
aF0
aF0
asa(dp1122
Vmagmom
p1123
F0
sVindex
p1124
I7
sVsymbol
p1125
VCu
p1126
sVcharge
p1127
F0
sVtag
p1128
I0
sVposition
p1129
(lp1130
F1.808426965
aF-1.7763568394002505e-15
aF19.633071233201875
asVmomentum
p1131
(lp1132
F0
aF0
aF0
asa(dp1133
Vmagmom
p1134
F0
sVindex
p1135
I8
sVsymbol
p1136
VCu
p1137
sVcharge
p1138
F0
sVtag
p1139
I0
sVposition
p1140
(lp1141
F1.9721522630525295e-31
aF6.6348089483165404
aF20.484437144263936
asVmomentum
p1142
(lp1143
F0
aF0
aF0
asa(dp1144
Vmagmom
p1145
F0
sVindex
p1146
I9
sVsymbol
p1147
VCu
p1148
sVcharge
p1149
F0
sVtag
p1150
I0
sVposition
p1151
(lp1152
F0
aF2.4575597497629511
aF16.307187945710346
asVmomentum
p1153
(lp1154
F0
aF0
aF0
asa(dp1155
Vmagmom
p1156
F0
sVindex
p1157
I10
sVsymbol
p1158
VCu
p1159
sVcharge
p1160
F0
sVtag
p1161
I0
sVposition
p1162
(lp1163
F3.61685393
aF5.0286151096156528
aF17.175511483438925
asVmomentum
p1164
(lp1165
F0
aF0
aF0
asa(dp1166
Vmagmom
p1167
F0
sVindex
p1168
I11
sVsymbol
p1169
VCu
p1170
sVcharge
p1171
F0
sVtag
p1172
I0
sVposition
p1173
(lp1174
F3.61685393
aF0.85136591106206438
aF12.998262284885334
asVmomentum
p1175
(lp1176
F0
aF0
aF0
asa(dp1177
Vmagmom
p1178
F0
sVindex
p1179
I12
sVsymbol
p1180
VCu
p1181
sVcharge
p1182
F0
sVtag
p1183
I0
sVposition
p1184
(lp1185
F3.61685393
aF3.3258832874915276
aF13.736132585857643
asVmomentum
p1186
(lp1187
F0
aF0
aF0
asa(dp1188
Vmagmom
p1189
F0
sVindex
p1190
I13
sVsymbol
p1191
VCu
p1192
sVcharge
p1193
F0
sVtag
p1194
I0
sVposition
p1195
(lp1196
F3.61685393
aF7.5031324860451187
aF17.913381784411236
asVmomentum
p1197
(lp1198
F0
aF0
aF0
asa(dp1199
Vmagmom
p1200
F0
sVindex
p1201
I14
sVsymbol
p1202
VCu
p1203
sVcharge
p1204
F0
sVtag
p1205
I0
sVposition
p1206
(lp1207
F0
aF1.7196894487906409
aF18.781705322139807
asVmomentum
p1208
(lp1209
F0
aF0
aF0
asa(dp1210
Vmagmom
p1211
F0
sVindex
p1212
I15
sVsymbol
p1213
VCu
p1214
sVcharge
p1215
F0
sVtag
p1216
I0
sVposition
p1217
(lp1218
F0
aF5.8969386473442302
aF14.604456123586219
asVmomentum
p1219
(lp1220
F0
aF0
aF0
asa(dp1221
Vmagmom
p1222
F0
sVindex
p1223
I16
sVsymbol
p1224
VCu
p1225
sVcharge
p1226
F0
sVtag
p1227
I0
sVposition
p1228
(lp1229
F5.4307250558725144
aF3.3400338026966105
aF17.987510747418863
asVmomentum
p1230
(lp1231
F0
aF0
aF0
asa(dp1232
Vmagmom
p1233
F0
sVindex
p1234
I17
sVsymbol
p1235
VCu
p1236
sVcharge
p1237
F0
sVtag
p1238
I0
sVposition
p1239
(lp1240
F5.4307250558725144
aF7.5172830012502008
aF13.810261548865272
asVmomentum
p1241
(lp1242
F0
aF0
aF0
asa(dp1243
Vmagmom
p1244
F0
sVindex
p1245
I18
sVsymbol
p1246
VCu
p1247
sVcharge
p1248
F0
sVtag
p1249
I0
sVposition
p1250
(lp1251
F1.8138711258725142
aF2.5316887127705794
aF20.470286629058855
asVmomentum
p1252
(lp1253
F0
aF0
aF0
asa(dp1254
Vmagmom
p1255
F0
sVindex
p1256
I19
sVsymbol
p1257
VCu
p1258
sVcharge
p1259
F0
sVtag
p1260
I0
sVposition
p1261
(lp1262
F1.8138711258725142
aF6.7089379113241687
aF16.293037430505265
asVmomentum
p1263
(lp1264
F0
aF0
aF0
asa(dp1265
Vmagmom
p1266
F0
sVindex
p1267
I20
sVsymbol
p1268
VCu
p1269
sVcharge
p1270
F0
sVtag
p1271
I0
sVposition
p1272
(lp1273
F1.8138711258725142
aF5.8228096843366002
aF18.795855837344895
asVmomentum
p1274
(lp1275
F0
aF0
aF0
asa(dp1276
Vmagmom
p1277
F0
sVindex
p1278
I21
sVsymbol
p1279
VCu
p1280
sVcharge
p1281
F0
sVtag
p1282
I0
sVposition
p1283
(lp1284
F1.8138711258725149
aF1.6455604857830108
aF14.618606638791306
asVmomentum
p1285
(lp1286
F0
aF0
aF0
asa(dp1287
Vmagmom
p1288
F0
sVindex
p1289
I22
sVsymbol
p1290
VCu
p1291
sVcharge
p1292
F0
sVtag
p1293
I0
sVposition
p1294
(lp1295
F5.4307250558725144
aF5.0144645944105681
aF12.924133321877704
asVmomentum
p1296
(lp1297
F0
aF0
aF0
asa(dp1298
Vmagmom
p1299
F0
sVindex
p1300
I23
sVsymbol
p1301
VCu
p1302
sVcharge
p1303
F0
sVtag
p1304
I0
sVposition
p1305
(lp1306
F5.4307250558725144
aF0.83721539585697791
aF17.101382520431294
asVmomentum
p1307
(lp1308
F0
aF0
aF0
asa(dp1309
Vmagmom
p1310
F0
sVindex
p1311
I24
sVsymbol
p1312
VCu
p1313
sVcharge
p1314
F0
sVtag
p1315
I0
sVposition
p1316
(lp1317
F1.8029828041274858
aF5.0144645944105681
aF12.924133321877704
asVmomentum
p1318
(lp1319
F0
aF0
aF0
asa(dp1320
Vmagmom
p1321
F0
sVindex
p1322
I25
sVsymbol
p1323
VCu
p1324
sVcharge
p1325
F0
sVtag
p1326
I0
sVposition
p1327
(lp1328
F1.8029828041274858
aF0.83721539585697791
aF17.101382520431294
asVmomentum
p1329
(lp1330
F0
aF0
aF0
asa(dp1331
Vmagmom
p1332
F0
sVindex
p1333
I26
sVsymbol
p1334
VCu
p1335
sVcharge
p1336
F0
sVtag
p1337
I0
sVposition
p1338
(lp1339
F5.419836734127486
aF5.8228096843366002
aF18.795855837344895
asVmomentum
p1340
(lp1341
F0
aF0
aF0
asa(dp1342
Vmagmom
p1343
F0
sVindex
p1344
I27
sVsymbol
p1345
VCu
p1346
sVcharge
p1347
F0
sVtag
p1348
I0
sVposition
p1349
(lp1350
F5.419836734127486
aF1.6455604857830108
aF14.618606638791306
asVmomentum
p1351
(lp1352
F0
aF0
aF0
asa(dp1353
Vmagmom
p1354
F0
sVindex
p1355
I28
sVsymbol
p1356
VCu
p1357
sVcharge
p1358
F0
sVtag
p1359
I0
sVposition
p1360
(lp1361
F5.4198367341274869
aF2.5316887127705794
aF20.470286629058855
asVmomentum
p1362
(lp1363
F0
aF0
aF0
asa(dp1364
Vmagmom
p1365
F0
sVindex
p1366
I29
sVsymbol
p1367
VCu
p1368
sVcharge
p1369
F0
sVtag
p1370
I0
sVposition
p1371
(lp1372
F5.4198367341274869
aF6.7089379113241687
aF16.293037430505265
asVmomentum
p1373
(lp1374
F0
aF0
aF0
asa(dp1375
Vmagmom
p1376
F0
sVindex
p1377
I30
sVsymbol
p1378
VCu
p1379
sVcharge
p1380
F0
sVtag
p1381
I0
sVposition
p1382
(lp1383
F1.8029828041274851
aF3.3400338026966105
aF17.987510747418863
asVmomentum
p1384
(lp1385
F0
aF0
aF0
asa(dp1386
Vmagmom
p1387
F0
sVindex
p1388
I31
sVsymbol
p1389
VCu
p1390
sVcharge
p1391
F0
sVtag
p1392
I0
sVposition
p1393
(lp1394
F1.8029828041274858
aF7.5172830012502008
aF13.810261548865272
asVmomentum
p1395
(lp1396
F0
aF0
aF0
asa(dp1397
Vmagmom
p1398
F0
sVindex
p1399
I32
sVsymbol
p1400
VPd
p1401
sVcharge
p1402
F0
sVtag
p1403
I0
sVposition
p1404
(lp1405
F0
aF4.9714546341224537
aF17.104594741519996
asVmomentum
p1406
(lp1407
F0
aF0
aF0
asa(dp1408
Vmagmom
p1409
F0
sVindex
p1410
I33
sVsymbol
p1411
VPd
p1412
sVcharge
p1413
F0
sVtag
p1414
I0
sVposition
p1415
(lp1416
F0
aF0.79420543556886436
aF12.927345542966407
asVmomentum
p1417
(lp1418
F0
aF0
aF0
asa(dp1419
Vmagmom
p1420
F0
sVindex
p1421
I34
sVsymbol
p1422
VPd
p1423
sVcharge
p1424
F0
sVtag
p1425
I0
sVposition
p1426
(lp1427
F3.61685393
aF1.6487727068717142
aF18.838865797633009
asVmomentum
p1428
(lp1429
F0
aF0
aF0
asa(dp1430
Vmagmom
p1431
F0
sVindex
p1432
I35
sVsymbol
p1433
VPd
p1434
sVcharge
p1435
F0
sVtag
p1436
I0
sVposition
p1437
(lp1438
F3.61685393
aF5.8260219054253035
aF14.661616599079419
asVmomentum
p1439
(lp1440
F0
aF0
aF0
asa(dp1441
Vmagmom
p1442
F0
sVindex
p1443
I36
sVsymbol
p1444
VPd
p1445
sVcharge
p1446
F0
sVtag
p1447
I0
sVposition
p1448
(lp1449
F3.61685393
aF6.7057256902354681
aF20.427276668770737
asVmomentum
p1450
(lp1451
F0
aF0
aF0
asa(dp1452
Vmagmom
p1453
F0
sVindex
p1454
I37
sVsymbol
p1455
VPd
p1456
sVcharge
p1457
F0
sVtag
p1458
I0
sVposition
p1459
(lp1460
F3.61685393
aF2.5284764916818778
aF16.250027470217145
asVmomentum
p1461
(lp1462
F0
aF0
aF0
asa(dp1463
Vmagmom
p1464
F0
sVindex
p1465
I38
sVsymbol
p1466
VPd
p1467
sVcharge
p1468
F0
sVtag
p1469
I0
sVposition
p1470
(lp1471
F1.9721522630525295e-31
aF3.3830437629847259
aF13.807049327776571
asVmomentum
p1472
(lp1473
F0
aF0
aF0
asa(dp1474
Vmagmom
p1475
F0
sVindex
p1476
I39
sVsymbol
p1477
VPd
p1478
sVcharge
p1479
F0
sVtag
p1480
I0
sVposition
p1481
(lp1482
F1.9721522630525295e-31
aF7.560292961538317
aF17.984298526330161
asVmomentum
p1483
(lp1484
F0
aF0
aF0
asasVcell
p1485
(lp1486
(lp1487
F7.23370786
aF0
aF0
aa(lp1488
F-4.9303806576313238e-32
aF8.3544983971071805
aF0
aa(lp1489
F0
aF3.5527136788005009e-15
aF33.417993588428715
aasVmass
p1490
F2884.8320000000017
sVpbc
p1491
(lp1492
I01
aI01
aI01
asVspacegroup
p1493
VPm (6)
p1494
sVconstraints
p1495
(lp1496
(dp1497
Vname
p1498
VFixAtoms
p1499
sVkwargs
p1500
(dp1501
Vindices
p1502
(lp1503
I1
aI3
aI4
aI6
aI9
aI10
aI11
aI12
aI15
aI17
aI19
aI21
aI22
aI23
aI24
aI25
aI27
aI29
aI31
aI32
aI33
aI35
aI37
aI38
assasaa(lp1504
g481
ag2
((ltRp1505
aa(lp1506
g484
ag485
aa(lp1507
g487
aS'755c6e8d8a45bb884f20431a329b4e25589e8d55'
p1508
aa(lp1509
g490
ag491
(S'\x07\xe1\x03\x1f\x13-\x00\x06\t\x1b'
tRp1510
aa(lp1511
g494
ag491
(S'\x07\xe1\x03\x1f\x13-\x00\x06\t#'
tRp1512
aa(lp1513
g497
a(dp1514
g499
g509
sg510
I00
sg511
g512
sg513
g514
(g516
S'[\xa8W%\xec\xb6\xc2?'
tRp1515
sg518
g532
sg533
g534
sg535
I01
sg536
g537
sg538
I40
saatRp1516
ag2
((lp1517
(lp1518
g5
a(dp1519
Vinfo
p1520
(dp1521
sVvolume
p1522
F2019.5830486345715
sVnatoms
p1523
I40
sVsymbol_counts
p1524
(dp1525
VCu
p1526
I32
sVPd
p1527
I8
ssVchemical_symbols
p1528
(lp1529
VPd
p1530
aVCu
p1531
asVatoms
p1532
(lp1533
(dp1534
Vmagmom
p1535
F0
sVindex
p1536
I0
sVsymbol
p1537
VCu
p1538
sVcharge
p1539
F0
sVtag
p1540
I0
sVposition
p1541
(lp1542
F0
aF-4.1772491985535929
aF-19.633071233201875
asVmomentum
p1543
(lp1544
F0
aF0
aF0
asa(dp1545
Vmagmom
p1546
F0
sVindex
p1547
I1
sVsymbol
p1548
VCu
p1549
sVcharge
p1550
F0
sVtag
p1551
I0
sVposition
p1552
(lp1553
F0
aF-1.892792298292315e-15
aF-15.455822034648282
asVmomentum
p1554
(lp1555
F0
aF0
aF0
asa(dp1556
Vmagmom
p1557
F0
sVindex
p1558
I2
sVsymbol
p1559
VCu
p1560
sVcharge
p1561
F0
sVtag
p1562
I0
sVposition
p1563
(lp1564
F3.61685393
aF-4.1772491985535929
aF-19.633071233201875
asVmomentum
p1565
(lp1566
F0
aF0
aF0
asa(dp1567
Vmagmom
p1568
F0
sVindex
p1569
I3
sVsymbol
p1570
VCu
p1571
sVcharge
p1572
F0
sVtag
p1573
I0
sVposition
p1574
(lp1575
F3.61685393
aF-1.892792298292315e-15
aF-15.455822034648282
asVmomentum
p1576
(lp1577
F0
aF0
aF0
asa(dp1578
Vmagmom
p1579
F0
sVindex
p1580
I4
sVsymbol
p1581
VCu
p1582
sVcharge
p1583
F0
sVtag
p1584
I0
sVposition
p1585
(lp1586
F5.4252808950000002
aF-4.1772491985535911
aF-15.455822034648284
asVmomentum
p1587
(lp1588
F0
aF0
aF0
asa(dp1589
Vmagmom
p1590
F0
sVindex
p1591
I5
sVsymbol
p1592
VCu
p1593
sVcharge
p1594
F0
sVtag
p1595
I0
sVposition
p1596
(lp1597
F5.4252808950000002
aF-6.2800094491701516e-16
aF-19.633071233201875
asVmomentum
p1598
(lp1599
F0
aF0
aF0
asa(dp1600
Vmagmom
p1601
F0
sVindex
p1602
I6
sVsymbol
p1603
VCu
p1604
sVcharge
p1605
F0
sVtag
p1606
I0
sVposition
p1607
(lp1608
F1.808426965
aF-4.1772491985535911
aF-15.455822034648284
asVmomentum
p1609
(lp1610
F0
aF0
aF0
asa(dp1611
Vmagmom
p1612
F0
sVindex
p1613
I7
sVsymbol
p1614
VCu
p1615
sVcharge
p1616
F0
sVtag
p1617
I0
sVposition
p1618
(lp1619
F1.808426965
aF-6.2800094491701516e-16
aF-19.633071233201875
asVmomentum
p1620
(lp1621
F0
aF0
aF0
asa(dp1622
Vmagmom
p1623
F0
sVindex
p1624
I8
sVsymbol
p1625
VCu
p1626
sVcharge
p1627
F0
sVtag
p1628
I0
sVposition
p1629
(lp1630
F1.9721522630525295e-31
aF-6.6348089483165431
aF-20.484437144263936
asVmomentum
p1631
(lp1632
F0
aF0
aF0
asa(dp1633
Vmagmom
p1634
F0
sVindex
p1635
I9
sVsymbol
p1636
VCu
p1637
sVcharge
p1638
F0
sVtag
p1639
I0
sVposition
p1640
(lp1641
F0
aF-2.4575597497629529
aF-16.307187945710346
asVmomentum
p1642
(lp1643
F0
aF0
aF0
asa(dp1644
Vmagmom
p1645
F0
sVindex
p1646
I10
sVsymbol
p1647
VCu
p1648
sVcharge
p1649
F0
sVtag
p1650
I0
sVposition
p1651
(lp1652
F3.61685393
aF-5.0286151096156546
aF-17.175511483438925
asVmomentum
p1653
(lp1654
F0
aF0
aF0
asa(dp1655
Vmagmom
p1656
F0
sVindex
p1657
I11
sVsymbol
p1658
VCu
p1659
sVcharge
p1660
F0
sVtag
p1661
I0
sVposition
p1662
(lp1663
F3.61685393
aF-0.85136591106206594
aF-12.998262284885334
asVmomentum
p1664
(lp1665
F0
aF0
aF0
asa(dp1666
Vmagmom
p1667
F0
sVindex
p1668
I12
sVsymbol
p1669
VCu
p1670
sVcharge
p1671
F0
sVtag
p1672
I0
sVposition
p1673
(lp1674
F3.61685393
aF-3.3258832874915294
aF-13.736132585857643
asVmomentum
p1675
(lp1676
F0
aF0
aF0
asa(dp1677
Vmagmom
p1678
F0
sVindex
p1679
I13
sVsymbol
p1680
VCu
p1681
sVcharge
p1682
F0
sVtag
p1683
I0
sVposition
p1684
(lp1685
F3.61685393
aF-7.5031324860451205
aF-17.913381784411236
asVmomentum
p1686
(lp1687
F0
aF0
aF0
asa(dp1688
Vmagmom
p1689
F0
sVindex
p1690
I14
sVsymbol
p1691
VCu
p1692
sVcharge
p1693
F0
sVtag
p1694
I0
sVposition
p1695
(lp1696
F0
aF-1.7196894487906431
aF-18.781705322139807
asVmomentum
p1697
(lp1698
F0
aF0
aF0
asa(dp1699
Vmagmom
p1700
F0
sVindex
p1701
I15
sVsymbol
p1702
VCu
p1703
sVcharge
p1704
F0
sVtag
p1705
I0
sVposition
p1706
(lp1707
F0
aF-5.896938647344232
aF-14.604456123586219
asVmomentum
p1708
(lp1709
F0
aF0
aF0
asa(dp1710
Vmagmom
p1711
F0
sVindex
p1712
I16
sVsymbol
p1713
VCu
p1714
sVcharge
p1715
F0
sVtag
p1716
I0
sVposition
p1717
(lp1718
F5.4307250558725144
aF-3.3400338026966128
aF-17.987510747418863
asVmomentum
p1719
(lp1720
F0
aF0
aF0
asa(dp1721
Vmagmom
p1722
F0
sVindex
p1723
I17
sVsymbol
p1724
VCu
p1725
sVcharge
p1726
F0
sVtag
p1727
I0
sVposition
p1728
(lp1729
F5.4307250558725144
aF-7.5172830012502025
aF-13.81026154886527
asVmomentum
p1730
(lp1731
F0
aF0
aF0
asa(dp1732
Vmagmom
p1733
F0
sVindex
p1734
I18
sVsymbol
p1735
VCu
p1736
sVcharge
p1737
F0
sVtag
p1738
I0
sVposition
p1739
(lp1740
F1.8138711258725142
aF-2.5316887127705821
aF-20.470286629058855
asVmomentum
p1741
(lp1742
F0
aF0
aF0
asa(dp1743
Vmagmom
p1744
F0
sVindex
p1745
I19
sVsymbol
p1746
VCu
p1747
sVcharge
p1748
F0
sVtag
p1749
I0
sVposition
p1750
(lp1751
F1.8138711258725142
aF-6.7089379113241705
aF-16.293037430505265
asVmomentum
p1752
(lp1753
F0
aF0
aF0
asa(dp1754
Vmagmom
p1755
F0
sVindex
p1756
I20
sVsymbol
p1757
VCu
p1758
sVcharge
p1759
F0
sVtag
p1760
I0
sVposition
p1761
(lp1762
F1.8138711258725142
aF-5.8228096843366028
aF-18.795855837344895
asVmomentum
p1763
(lp1764
F0
aF0
aF0
asa(dp1765
Vmagmom
p1766
F0
sVindex
p1767
I21
sVsymbol
p1768
VCu
p1769
sVcharge
p1770
F0
sVtag
p1771
I0
sVposition
p1772
(lp1773
F1.8138711258725149
aF-1.6455604857830126
aF-14.618606638791306
asVmomentum
p1774
(lp1775
F0
aF0
aF0
asa(dp1776
Vmagmom
p1777
F0
sVindex
p1778
I22
sVsymbol
p1779
VCu
p1780
sVcharge
p1781
F0
sVtag
p1782
I0
sVposition
p1783
(lp1784
F5.4307250558725144
aF-5.0144645944105699
aF-12.924133321877704
asVmomentum
p1785
(lp1786
F0
aF0
aF0
asa(dp1787
Vmagmom
p1788
F0
sVindex
p1789
I23
sVsymbol
p1790
VCu
p1791
sVcharge
p1792
F0
sVtag
p1793
I0
sVposition
p1794
(lp1795
F5.4307250558725144
aF-0.83721539585698002
aF-17.101382520431294
asVmomentum
p1796
(lp1797
F0
aF0
aF0
asa(dp1798
Vmagmom
p1799
F0
sVindex
p1800
I24
sVsymbol
p1801
VCu
p1802
sVcharge
p1803
F0
sVtag
p1804
I0
sVposition
p1805
(lp1806
F1.8029828041274858
aF-5.0144645944105699
aF-12.924133321877704
asVmomentum
p1807
(lp1808
F0
aF0
aF0
asa(dp1809
Vmagmom
p1810
F0
sVindex
p1811
I25
sVsymbol
p1812
VCu
p1813
sVcharge
p1814
F0
sVtag
p1815
I0
sVposition
p1816
(lp1817
F1.8029828041274858
aF-0.83721539585698002
aF-17.101382520431294
asVmomentum
p1818
(lp1819
F0
aF0
aF0
asa(dp1820
Vmagmom
p1821
F0
sVindex
p1822
I26
sVsymbol
p1823
VCu
p1824
sVcharge
p1825
F0
sVtag
p1826
I0
sVposition
p1827
(lp1828
F5.419836734127486
aF-5.8228096843366028
aF-18.795855837344895
asVmomentum
p1829
(lp1830
F0
aF0
aF0
asa(dp1831
Vmagmom
p1832
F0
sVindex
p1833
I27
sVsymbol
p1834
VCu
p1835
sVcharge
p1836
F0
sVtag
p1837
I0
sVposition
p1838
(lp1839
F5.419836734127486
aF-1.6455604857830126
aF-14.618606638791306
asVmomentum
p1840
(lp1841
F0
aF0
aF0
asa(dp1842
Vmagmom
p1843
F0
sVindex
p1844
I28
sVsymbol
p1845
VCu
p1846
sVcharge
p1847
F0
sVtag
p1848
I0
sVposition
p1849
(lp1850
F5.4198367341274869
aF-2.5316887127705821
aF-20.470286629058855
asVmomentum
p1851
(lp1852
F0
aF0
aF0
asa(dp1853
Vmagmom
p1854
F0
sVindex
p1855
I29
sVsymbol
p1856
VCu
p1857
sVcharge
p1858
F0
sVtag
p1859
I0
sVposition
p1860
(lp1861
F5.4198367341274869
aF-6.7089379113241705
aF-16.293037430505265
asVmomentum
p1862
(lp1863
F0
aF0
aF0
asa(dp1864
Vmagmom
p1865
F0
sVindex
p1866
I30
sVsymbol
p1867
VCu
p1868
sVcharge
p1869
F0
sVtag
p1870
I0
sVposition
p1871
(lp1872
F1.8029828041274851
aF-3.3400338026966128
aF-17.987510747418863
asVmomentum
p1873
(lp1874
F0
aF0
aF0
asa(dp1875
Vmagmom
p1876
F0
sVindex
p1877
I31
sVsymbol
p1878
VCu
p1879
sVcharge
p1880
F0
sVtag
p1881
I0
sVposition
p1882
(lp1883
F1.8029828041274858
aF-7.5172830012502025
aF-13.81026154886527
asVmomentum
p1884
(lp1885
F0
aF0
aF0
asa(dp1886
Vmagmom
p1887
F0
sVindex
p1888
I32
sVsymbol
p1889
VPd
p1890
sVcharge
p1891
F0
sVtag
p1892
I0
sVposition
p1893
(lp1894
F0
aF-4.9714546341224555
aF-17.104594741519996
asVmomentum
p1895
(lp1896
F0
aF0
aF0
asa(dp1897
Vmagmom
p1898
F0
sVindex
p1899
I33
sVsymbol
p1900
VPd
p1901
sVcharge
p1902
F0
sVtag
p1903
I0
sVposition
p1904
(lp1905
F0
aF-0.79420543556886591
aF-12.927345542966407
asVmomentum
p1906
(lp1907
F0
aF0
aF0
asa(dp1908
Vmagmom
p1909
F0
sVindex
p1910
I34
sVsymbol
p1911
VPd
p1912
sVcharge
p1913
F0
sVtag
p1914
I0
sVposition
p1915
(lp1916
F3.61685393
aF-1.6487727068717164
aF-18.838865797633009
asVmomentum
p1917
(lp1918
F0
aF0
aF0
asa(dp1919
Vmagmom
p1920
F0
sVindex
p1921
I35
sVsymbol
p1922
VPd
p1923
sVcharge
p1924
F0
sVtag
p1925
I0
sVposition
p1926
(lp1927
F3.61685393
aF-5.8260219054253053
aF-14.661616599079419
asVmomentum
p1928
(lp1929
F0
aF0
aF0
asa(dp1930
Vmagmom
p1931
F0
sVindex
p1932
I36
sVsymbol
p1933
VPd
p1934
sVcharge
p1935
F0
sVtag
p1936
I0
sVposition
p1937
(lp1938
F3.61685393
aF-6.7057256902354707
aF-20.427276668770737
asVmomentum
p1939
(lp1940
F0
aF0
aF0
asa(dp1941
Vmagmom
p1942
F0
sVindex
p1943
I37
sVsymbol
p1944
VPd
p1945
sVcharge
p1946
F0
sVtag
p1947
I0
sVposition
p1948
(lp1949
F3.61685393
aF-2.5284764916818796
aF-16.250027470217145
asVmomentum
p1950
(lp1951
F0
aF0
aF0
asa(dp1952
Vmagmom
p1953
F0
sVindex
p1954
I38
sVsymbol
p1955
VPd
p1956
sVcharge
p1957
F0
sVtag
p1958
I0
sVposition
p1959
(lp1960
F1.9721522630525295e-31
aF-3.3830437629847276
aF-13.807049327776571
asVmomentum
p1961
(lp1962
F0
aF0
aF0
asa(dp1963
Vmagmom
p1964
F0
sVindex
p1965
I39
sVsymbol
p1966
VPd
p1967
sVcharge
p1968
F0
sVtag
p1969
I0
sVposition
p1970
(lp1971
F1.9721522630525295e-31
aF-7.5602929615383188
aF-17.984298526330161
asVmomentum
p1972
(lp1973
F0
aF0
aF0
asasVcell
p1974
(lp1975
(lp1976
F7.23370786
aF0
aF0
aa(lp1977
F-4.9303806576313238e-32
aF-8.3544983971071805
aF1.0231309720499002e-15
aa(lp1978
F0
aF-7.6452375670001008e-15
aF-33.417993588428715
aasVmass
p1979
F2884.8320000000017
sVpbc
p1980
(lp1981
I01
aI01
aI01
asVspacegroup
p1982
VPm (6)
p1983
sVconstraints
p1984
(lp1985
(dp1986
Vname
p1987
VFixAtoms
p1988
sVkwargs
p1989
(dp1990
Vindices
p1991
(lp1992
I0
aI2
aI5
aI7
aI8
aI9
aI10
aI13
aI14
aI16
aI18
aI19
aI20
aI23
aI25
aI26
aI28
aI29
aI30
aI32
aI34
aI36
aI37
aI39
assasaa(lp1993
g481
ag2
((ltRp1994
aa(lp1995
g484
ag485
aa(lp1996
g487
aS'16499088fbdd8000d67fbb9cafd04013212ebe45'
p1997
aa(lp1998
g490
ag491
(S'\x07\xe1\x03\x1f\x13-\x00\x06@|'
tRp1999
aa(lp2000
g494
ag491
(S'\x07\xe1\x03\x1f\x13-\x00\x06@\x85'
tRp2001
aa(lp2002
g497
a(dp2003
g499
g509
sg510
I00
sg511
g512
sg513
g1515
sg518
g532
sg533
g534
sg535
I00
sg536
g537
sg538
I40
saatRp2004
ag2
((lp2005
(lp2006
g5
a(dp2007
Vinfo
p2008
(dp2009
sVvolume
p2010
F2019.5830486345715
sVnatoms
p2011
I40
sVsymbol_counts
p2012
(dp2013
VCu
p2014
I32
sVPd
p2015
I8
ssVchemical_symbols
p2016
(lp2017
VPd
p2018
aVCu
p2019
asVatoms
p2020
(lp2021
(dp2022
Vmagmom
p2023
F0
sVindex
p2024
I0
sVsymbol
p2025
VCu
p2026
sVcharge
p2027
F0
sVtag
p2028
I0
sVposition
p2029
(lp2030
F3.944304526105059e-31
aF4.1772491985535876
aF18.797621393491156
asVmomentum
p2031
(lp2032
F0
aF0
aF0
asa(dp2033
Vmagmom
p2034
F0
sVindex
p2035
I1
sVsymbol
p2036
VCu
p2037
sVcharge
p2038
F0
sVtag
p2039
I0
sVposition
p2040
(lp2041
F0
aF8.8817841970012523e-16
aF14.620372194937566
asVmomentum
p2042
(lp2043
F0
aF0
aF0
asa(dp2044
Vmagmom
p2045
F0
sVindex
p2046
I2
sVsymbol
p2047
VCu
p2048
sVcharge
p2049
F0
sVtag
p2050
I0
sVposition
p2051
(lp2052
F3.61685393
aF4.1772491985535876
aF18.797621393491156
asVmomentum
p2053
(lp2054
F0
aF0
aF0
asa(dp2055
Vmagmom
p2056
F0
sVindex
p2057
I3
sVsymbol
p2058
VCu
p2059
sVcharge
p2060
F0
sVtag
p2061
I0
sVposition
p2062
(lp2063
F3.61685393
aF8.8817841970012523e-16
aF14.620372194937566
asVmomentum
p2064
(lp2065
F0
aF0
aF0
asa(dp2066
Vmagmom
p2067
F0
sVindex
p2068
I4
sVsymbol
p2069
VCu
p2070
sVcharge
p2071
F0
sVtag
p2072
I0
sVposition
p2073
(lp2074
F5.4252808950000002
aF4.1772491985535911
aF14.620372194937564
asVmomentum
p2075
(lp2076
F0
aF0
aF0
asa(dp2077
Vmagmom
p2078
F0
sVindex
p2079
I5
sVsymbol
p2080
VCu
p2081
sVcharge
p2082
F0
sVtag
p2083
I0
sVposition
p2084
(lp2085
F5.4252808950000002
aF-1.7763568394002505e-15
aF18.797621393491156
asVmomentum
p2086
(lp2087
F0
aF0
aF0
asa(dp2088
Vmagmom
p2089
F0
sVindex
p2090
I6
sVsymbol
p2091
VCu
p2092
sVcharge
p2093
F0
sVtag
p2094
I0
sVposition
p2095
(lp2096
F1.808426965
aF4.1772491985535911
aF14.620372194937564
asVmomentum
p2097
(lp2098
F0
aF0
aF0
asa(dp2099
Vmagmom
p2100
F0
sVindex
p2101
I7
sVsymbol
p2102
VCu
p2103
sVcharge
p2104
F0
sVtag
p2105
I0
sVposition
p2106
(lp2107
F1.808426965
aF-1.7763568394002505e-15
aF18.797621393491156
asVmomentum
p2108
(lp2109
F0
aF0
aF0
asa(dp2110
Vmagmom
p2111
F0
sVindex
p2112
I8
sVsymbol
p2113
VCu
p2114
sVcharge
p2115
F0
sVtag
p2116
I0
sVposition
p2117
(lp2118
F1.9721522630525295e-31
aF6.6348089483165404
aF19.64898730455322
asVmomentum
p2119
(lp2120
F0
aF0
aF0
asa(dp2121
Vmagmom
p2122
F0
sVindex
p2123
I9
sVsymbol
p2124
VCu
p2125
sVcharge
p2126
F0
sVtag
p2127
I0
sVposition
p2128
(lp2129
F1.9721522630525295e-31
aF2.4575597497629511
aF15.471738105999627
asVmomentum
p2130
(lp2131
F0
aF0
aF0
asa(dp2132
Vmagmom
p2133
F0
sVindex
p2134
I10
sVsymbol
p2135
VCu
p2136
sVcharge
p2137
F0
sVtag
p2138
I0
sVposition
p2139
(lp2140
F3.61685393
aF5.0286151096156511
aF16.340061643728205
asVmomentum
p2141
(lp2142
F0
aF0
aF0
asa(dp2143
Vmagmom
p2144
F0
sVindex
p2145
I11
sVsymbol
p2146
VCu
p2147
sVcharge
p2148
F0
sVtag
p2149
I0
sVposition
p2150
(lp2151
F3.61685393
aF0.85136591106206438
aF20.517310842281795
asVmomentum
p2152
(lp2153
F0
aF0
aF0
asa(dp2154
Vmagmom
p2155
F0
sVindex
p2156
I12
sVsymbol
p2157
VCu
p2158
sVcharge
p2159
F0
sVtag
p2160
I0
sVposition
p2161
(lp2162
F3.61685393
aF3.3258832874915276
aF12.900682746146924
asVmomentum
p2163
(lp2164
F0
aF0
aF0
asa(dp2165
Vmagmom
p2166
F0
sVindex
p2167
I13
sVsymbol
p2168
VCu
p2169
sVcharge
p2170
F0
sVtag
p2171
I0
sVposition
p2172
(lp2173
F3.61685393
aF7.503132486045117
aF17.077931944700513
asVmomentum
p2174
(lp2175
F0
aF0
aF0
asa(dp2176
Vmagmom
p2177
F0
sVindex
p2178
I14
sVsymbol
p2179
VCu
p2180
sVcharge
p2181
F0
sVtag
p2182
I0
sVposition
p2183
(lp2184
F1.9721522630525295e-31
aF1.7196894487906391
aF17.946255482429095
asVmomentum
p2185
(lp2186
F0
aF0
aF0
asa(dp2187
Vmagmom
p2188
F0
sVindex
p2189
I15
sVsymbol
p2190
VCu
p2191
sVcharge
p2192
F0
sVtag
p2193
I0
sVposition
p2194
(lp2195
F1.9721522630525295e-31
aF5.8969386473442285
aF13.769006283875504
asVmomentum
p2196
(lp2197
F0
aF0
aF0
asa(dp2198
Vmagmom
p2199
F0
sVindex
p2200
I16
sVsymbol
p2201
VCu
p2202
sVcharge
p2203
F0
sVtag
p2204
I0
sVposition
p2205
(lp2206
F5.4307250558725144
aF3.3400338026966105
aF17.152060907708147
asVmomentum
p2207
(lp2208
F0
aF0
aF0
asa(dp2209
Vmagmom
p2210
F0
sVindex
p2211
I17
sVsymbol
p2212
VCu
p2213
sVcharge
p2214
F0
sVtag
p2215
I0
sVposition
p2216
(lp2217
F5.4307250558725144
aF7.5172830012502008
aF12.974811709154553
asVmomentum
p2218
(lp2219
F0
aF0
aF0
asa(dp2220
Vmagmom
p2221
F0
sVindex
p2222
I18
sVsymbol
p2223
VCu
p2224
sVcharge
p2225
F0
sVtag
p2226
I0
sVposition
p2227
(lp2228
F1.8138711258725142
aF2.5316887127705794
aF19.634836789348135
asVmomentum
p2229
(lp2230
F0
aF0
aF0
asa(dp2231
Vmagmom
p2232
F0
sVindex
p2233
I19
sVsymbol
p2234
VCu
p2235
sVcharge
p2236
F0
sVtag
p2237
I0
sVposition
p2238
(lp2239
F1.8138711258725142
aF6.7089379113241687
aF15.457587590794544
asVmomentum
p2240
(lp2241
F0
aF0
aF0
asa(dp2242
Vmagmom
p2243
F0
sVindex
p2244
I20
sVsymbol
p2245
VCu
p2246
sVcharge
p2247
F0
sVtag
p2248
I0
sVposition
p2249
(lp2250
F1.8138711258725142
aF5.8228096843366002
aF17.960405997634172
asVmomentum
p2251
(lp2252
F0
aF0
aF0
asa(dp2253
Vmagmom
p2254
F0
sVindex
p2255
I21
sVsymbol
p2256
VCu
p2257
sVcharge
p2258
F0
sVtag
p2259
I0
sVposition
p2260
(lp2261
F1.8138711258725149
aF1.6455604857830108
aF13.783156799080585
asVmomentum
p2262
(lp2263
F0
aF0
aF0
asa(dp2264
Vmagmom
p2265
F0
sVindex
p2266
I22
sVsymbol
p2267
VCu
p2268
sVcharge
p2269
F0
sVtag
p2270
I0
sVposition
p2271
(lp2272
F5.4307250558725144
aF5.0144645944105708
aF20.443181879274164
asVmomentum
p2273
(lp2274
F0
aF0
aF0
asa(dp2275
Vmagmom
p2276
F0
sVindex
p2277
I23
sVsymbol
p2278
VCu
p2279
sVcharge
p2280
F0
sVtag
p2281
I0
sVposition
p2282
(lp2283
F5.4307250558725144
aF0.83721539585697791
aF16.265932680720578
asVmomentum
p2284
(lp2285
F0
aF0
aF0
asa(dp2286
Vmagmom
p2287
F0
sVindex
p2288
I24
sVsymbol
p2289
VCu
p2290
sVcharge
p2291
F0
sVtag
p2292
I0
sVposition
p2293
(lp2294
F1.8029828041274858
aF5.0144645944105708
aF20.443181879274164
asVmomentum
p2295
(lp2296
F0
aF0
aF0
asa(dp2297
Vmagmom
p2298
F0
sVindex
p2299
I25
sVsymbol
p2300
VCu
p2301
sVcharge
p2302
F0
sVtag
p2303
I0
sVposition
p2304
(lp2305
F1.8029828041274858
aF0.83721539585697791
aF16.265932680720578
asVmomentum
p2306
(lp2307
F0
aF0
aF0
asa(dp2308
Vmagmom
p2309
F0
sVindex
p2310
I26
sVsymbol
p2311
VCu
p2312
sVcharge
p2313
F0
sVtag
p2314
I0
sVposition
p2315
(lp2316
F5.419836734127486
aF5.8228096843366002
aF17.960405997634172
asVmomentum
p2317
(lp2318
F0
aF0
aF0
asa(dp2319
Vmagmom
p2320
F0
sVindex
p2321
I27
sVsymbol
p2322
VCu
p2323
sVcharge
p2324
F0
sVtag
p2325
I0
sVposition
p2326
(lp2327
F5.419836734127486
aF1.6455604857830108
aF13.783156799080585
asVmomentum
p2328
(lp2329
F0
aF0
aF0
asa(dp2330
Vmagmom
p2331
F0
sVindex
p2332
I28
sVsymbol
p2333
VCu
p2334
sVcharge
p2335
F0
sVtag
p2336
I0
sVposition
p2337
(lp2338
F5.4198367341274869
aF2.5316887127705794
aF19.634836789348135
asVmomentum
p2339
(lp2340
F0
aF0
aF0
asa(dp2341
Vmagmom
p2342
F0
sVindex
p2343
I29
sVsymbol
p2344
VCu
p2345
sVcharge
p2346
F0
sVtag
p2347
I0
sVposition
p2348
(lp2349
F5.4198367341274869
aF6.7089379113241687
aF15.457587590794544
asVmomentum
p2350
(lp2351
F0
aF0
aF0
asa(dp2352
Vmagmom
p2353
F0
sVindex
p2354
I30
sVsymbol
p2355
VCu
p2356
sVcharge
p2357
F0
sVtag
p2358
I0
sVposition
p2359
(lp2360
F1.8029828041274851
aF3.3400338026966105
aF17.152060907708147
asVmomentum
p2361
(lp2362
F0
aF0
aF0
asa(dp2363
Vmagmom
p2364
F0
sVindex
p2365
I31
sVsymbol
p2366
VCu
p2367
sVcharge
p2368
F0
sVtag
p2369
I0
sVposition
p2370
(lp2371
F1.8029828041274858
aF7.5172830012502008
aF12.974811709154553
asVmomentum
p2372
(lp2373
F0
aF0
aF0
asa(dp2374
Vmagmom
p2375
F0
sVindex
p2376
I32
sVsymbol
p2377
VPd
p2378
sVcharge
p2379
F0
sVtag
p2380
I0
sVposition
p2381
(lp2382
F-1.9721522630525295e-31
aF4.9714546341224528
aF16.26914490180928
asVmomentum
p2383
(lp2384
F0
aF0
aF0
asa(dp2385
Vmagmom
p2386
F0
sVindex
p2387
I33
sVsymbol
p2388
VPd
p2389
sVcharge
p2390
F0
sVtag
p2391
I0
sVposition
p2392
(lp2393
F0
aF0.79420543556886436
aF20.446394100362866
asVmomentum
p2394
(lp2395
F0
aF0
aF0
asa(dp2396
Vmagmom
p2397
F0
sVindex
p2398
I34
sVsymbol
p2399
VPd
p2400
sVcharge
p2401
F0
sVtag
p2402
I0
sVposition
p2403
(lp2404
F3.61685393
aF1.6487727068717142
aF18.003415957922289
asVmomentum
p2405
(lp2406
F0
aF0
aF0
asa(dp2407
Vmagmom
p2408
F0
sVindex
p2409
I35
sVsymbol
p2410
VPd
p2411
sVcharge
p2412
F0
sVtag
p2413
I0
sVposition
p2414
(lp2415
F3.61685393
aF5.8260219054253053
aF13.826166759368702
asVmomentum
p2416
(lp2417
F0
aF0
aF0
asa(dp2418
Vmagmom
p2419
F0
sVindex
p2420
I36
sVsymbol
p2421
VPd
p2422
sVcharge
p2423
F0
sVtag
p2424
I0
sVposition
p2425
(lp2426
F3.61685393
aF6.7057256902354663
aF19.591826829060018
asVmomentum
p2427
(lp2428
F0
aF0
aF0
asa(dp2429
Vmagmom
p2430
F0
sVindex
p2431
I37
sVsymbol
p2432
VPd
p2433
sVcharge
p2434
F0
sVtag
p2435
I0
sVposition
p2436
(lp2437
F3.61685393
aF2.5284764916818778
aF15.414577630506425
asVmomentum
p2438
(lp2439
F0
aF0
aF0
asa(dp2440
Vmagmom
p2441
F0
sVindex
p2442
I38
sVsymbol
p2443
VPd
p2444
sVcharge
p2445
F0
sVtag
p2446
I0
sVposition
p2447
(lp2448
F1.9721522630525295e-31
aF3.3830437629847276
aF12.971599488065852
asVmomentum
p2449
(lp2450
F0
aF0
aF0
asa(dp2451
Vmagmom
p2452
F0
sVindex
p2453
I39
sVsymbol
p2454
VPd
p2455
sVcharge
p2456
F0
sVtag
p2457
I0
sVposition
p2458
(lp2459
F3.944304526105059e-31
aF7.5602929615383161
aF17.148848686619438
asVmomentum
p2460
(lp2461
F0
aF0
aF0
asasVcell
p2462
(lp2463
(lp2464
F7.23370786
aF0
aF0
aa(lp2465
F-4.9303806576313238e-32
aF8.3544983971071805
aF0
aa(lp2466
F0
aF3.5527136788005009e-15
aF33.417993588428715
aasVmass
p2467
F2884.8320000000017
sVpbc
p2468
(lp2469
I01
aI01
aI01
asVspacegroup
p2470
VP2/m (10)
p2471
sVconstraints
p2472
(lp2473
(dp2474
Vname
p2475
VFixAtoms
p2476
sVkwargs
p2477
(dp2478
Vindices
p2479
(lp2480
I1
aI3
aI4
aI6
aI9
aI10
aI12
aI13
aI15
aI16
aI17
aI19
aI21
aI23
aI25
aI27
aI29
aI30
aI31
aI32
aI35
aI37
aI38
aI39
assasaa(lp2481
g481
ag2
((ltRp2482
aa(lp2483
g484
ag485
aa(lp2484
g487
aS'0eeb4786290d7a28738470e85d894d4ba92c9467'
p2485
aa(lp2486
g490
ag491
(S'\x07\xe1\x03\x1f\x13-\x00\x06g\x11'
tRp2487
aa(lp2488
g494
ag491
(S'\x07\xe1\x03\x1f\x13-\x00\x06g\x19'
tRp2489
aa(lp2490
g497
a(dp2491
g499
g509
sg510
I00
sg511
g512
sg513
g514
(g516
S'\x00\x00\x00\x00\x00\x00\xd0?'
tRp2492
sg518
g532
sg533
g534
sg535
I01
sg536
g537
sg538
I40
saatRp2493
a.