(lp1
ccollections
OrderedDict
p2
((lp3
(lp4
S'atoms'
p5
a(dp6
Vinfo
p7
(dp8
sVvolume
p9
F922.67269216590853
sVnatoms
p10
I24
sVsymbol_counts
p11
(dp12
VCu
p13
I18
sVPd
p14
I6
ssVchemical_symbols
p15
(lp16
VPd
p17
aVCu
p18
asVatoms
p19
(lp20
(dp21
Vmagmom
p22
F0
sVindex
p23
I0
sVsymbol
p24
VCu
p25
sVcharge
p26
F0
sVtag
p27
I0
sVposition
p28
(lp29
F6.5667436814963729
aF3.7913112322112035
aF16.085171291311617
asVmomentum
p30
(lp31
F0
aF0
aF0
asa(dp32
Vmagmom
p33
F0
sVindex
p34
I1
sVsymbol
p35
VCu
p36
sVcharge
p37
F0
sVtag
p38
I0
sVposition
p39
(lp40
F1.3133487362992744
aF0.75826224644224194
aF13.940481785803403
asVmomentum
p41
(lp42
F0
aF0
aF0
asa(dp43
Vmagmom
p44
F0
sVindex
p45
I2
sVsymbol
p46
VCu
p47
sVcharge
p48
F0
sVtag
p49
I0
sVposition
p50
(lp51
F3.9400462088978232
aF2.2747867393267249
aF18.229860796819835
asVmomentum
p52
(lp53
F0
aF0
aF0
asa(dp54
Vmagmom
p55
F0
sVindex
p56
I3
sVsymbol
p57
VCu
p58
sVcharge
p59
F0
sVtag
p60
I0
sVposition
p61
(lp62
F5.2533949451970976
aF1.5165244928844821
aF16.085171291311617
asVmomentum
p63
(lp64
F0
aF0
aF0
asa(dp65
Vmagmom
p66
F0
sVindex
p67
I4
sVsymbol
p68
VCu
p69
sVcharge
p70
F0
sVtag
p71
I0
sVposition
p72
(lp73
F2.6266974725985484
aF3.0330489857689633
aF13.940481785803403
asVmomentum
p74
(lp75
F0
aF0
aF0
asa(dp76
Vmagmom
p77
F0
sVindex
p78
I5
sVsymbol
p79
VCu
p80
sVcharge
p81
F0
sVtag
p82
I0
sVposition
p83
(lp84
F2.6266974725985479
aF0
aF18.229860796819835
asVmomentum
p85
(lp86
F0
aF0
aF0
asa(dp87
Vmagmom
p88
F0
sVindex
p89
I6
sVsymbol
p90
VCu
p91
sVcharge
p92
F0
sVtag
p93
I0
sVposition
p94
(lp95
F3.9400462088978228
aF3.7913112322112035
aF16.085171291311617
asVmomentum
p96
(lp97
F0
aF0
aF0
asa(dp98
Vmagmom
p99
F0
sVindex
p100
I7
sVsymbol
p101
VCu
p102
sVcharge
p103
F0
sVtag
p104
I0
sVposition
p105
(lp106
F3.9400462088978228
aF0.75826224644224016
aF13.940481785803403
asVmomentum
p107
(lp108
F0
aF0
aF0
asa(dp109
Vmagmom
p110
F0
sVindex
p111
I8
sVsymbol
p112
VCu
p113
sVcharge
p114
F0
sVtag
p115
I0
sVposition
p116
(lp117
F6.5667436814963729
aF2.2747867393267249
aF18.229860796819835
asVmomentum
p118
(lp119
F0
aF0
aF0
asa(dp120
Vmagmom
p121
F0
sVindex
p122
I9
sVsymbol
p123
VPd
p124
sVcharge
p125
F0
sVtag
p126
I0
sVposition
p127
(lp128
F5.2533949451970976
aF3.0330489857689624
aF13.940481785803403
asVmomentum
p129
(lp130
F0
aF0
aF0
asa(dp131
Vmagmom
p132
F0
sVindex
p133
I10
sVsymbol
p134
VPd
p135
sVcharge
p136
F0
sVtag
p137
I0
sVposition
p138
(lp139
F0
aF0
aF18.229860796819835
asVmomentum
p140
(lp141
F0
aF0
aF0
asa(dp142
Vmagmom
p143
F0
sVindex
p144
I11
sVsymbol
p145
VPd
p146
sVcharge
p147
F0
sVtag
p148
I0
sVposition
p149
(lp150
F2.6266974725985488
aF1.5165244928844812
aF16.085171291311617
asVmomentum
p151
(lp152
F0
aF0
aF0
asa(dp153
Vmagmom
p154
F0
sVindex
p155
I12
sVsymbol
p156
VCu
p157
sVcharge
p158
F0
sVtag
p159
I0
sVposition
p160
(lp161
F6.5667436814963729
aF3.7913112322112035
aF22.519239807836261
asVmomentum
p162
(lp163
F0
aF0
aF0
asa(dp164
Vmagmom
p165
F0
sVindex
p166
I13
sVsymbol
p167
VCu
p168
sVcharge
p169
F0
sVtag
p170
I0
sVposition
p171
(lp172
F1.3133487362992753
aF0.75826224644224105
aF20.374550302328046
asVmomentum
p173
(lp174
F0
aF0
aF0
asa(dp175
Vmagmom
p176
F0
sVindex
p177
I14
sVsymbol
p178
VCu
p179
sVcharge
p180
F0
sVtag
p181
I0
sVposition
p182
(lp183
F3.9400462088978241
aF2.2747867393267232
aF24.663929313344479
asVmomentum
p184
(lp185
F0
aF0
aF0
asa(dp186
Vmagmom
p187
F0
sVindex
p188
I15
sVsymbol
p189
VCu
p190
sVcharge
p191
F0
sVtag
p192
I0
sVposition
p193
(lp194
F5.2533949451970985
aF1.5165244928844821
aF22.519239807836264
asVmomentum
p195
(lp196
F0
aF0
aF0
asa(dp197
Vmagmom
p198
F0
sVindex
p199
I16
sVsymbol
p200
VCu
p201
sVcharge
p202
F0
sVtag
p203
I0
sVposition
p204
(lp205
F2.6266974725985497
aF3.0330489857689642
aF20.374550302328046
asVmomentum
p206
(lp207
F0
aF0
aF0
asa(dp208
Vmagmom
p209
F0
sVindex
p210
I17
sVsymbol
p211
VCu
p212
sVcharge
p213
F0
sVtag
p214
I0
sVposition
p215
(lp216
F2.6266974725985506
aF0
aF24.663929313344479
asVmomentum
p217
(lp218
F0
aF0
aF0
asa(dp219
Vmagmom
p220
F0
sVindex
p221
I18
sVsymbol
p222
VCu
p223
sVcharge
p224
F0
sVtag
p225
I0
sVposition
p226
(lp227
F3.9400462088978232
aF3.7913112322112035
aF22.519239807836261
asVmomentum
p228
(lp229
F0
aF0
aF0
asa(dp230
Vmagmom
p231
F0
sVindex
p232
I19
sVsymbol
p233
VCu
p234
sVcharge
p235
F0
sVtag
p236
I0
sVposition
p237
(lp238
F3.9400462088978232
aF0.75826224644224105
aF20.374550302328046
asVmomentum
p239
(lp240
F0
aF0
aF0
asa(dp241
Vmagmom
p242
F0
sVindex
p243
I20
sVsymbol
p244
VCu
p245
sVcharge
p246
F0
sVtag
p247
I0
sVposition
p248
(lp249
F6.5667436814963756
aF2.2747867393267232
aF24.663929313344482
asVmomentum
p250
(lp251
F0
aF0
aF0
asa(dp252
Vmagmom
p253
F0
sVindex
p254
I21
sVsymbol
p255
VPd
p256
sVcharge
p257
F0
sVtag
p258
I0
sVposition
p259
(lp260
F5.2533949451970976
aF3.0330489857689642
aF20.374550302328046
asVmomentum
p261
(lp262
F0
aF0
aF0
asa(dp263
Vmagmom
p264
F0
sVindex
p265
I22
sVsymbol
p266
VPd
p267
sVcharge
p268
F0
sVtag
p269
I0
sVposition
p270
(lp271
F0
aF0
aF24.663929313344479
asVmomentum
p272
(lp273
F0
aF0
aF0
asa(dp274
Vmagmom
p275
F0
sVindex
p276
I23
sVsymbol
p277
VPd
p278
sVcharge
p279
F0
sVtag
p280
I0
sVposition
p281
(lp282
F2.6266974725985488
aF1.5165244928844821
aF22.519239807836264
asVmomentum
p283
(lp284
F0
aF0
aF0
asasVcell
p285
(lp286
(lp287
F5.2533949451970985
aF0
aF0
aa(lp288
F2.6266974725985492
aF4.5495734786534454
aF4.4408920985006262e-16
aa(lp289
F0
aF0
aF38.604411099147875
aasVmass
p290
F1782.3480000000004
sVpbc
p291
(lp292
I01
aI01
aI01
asVspacegroup
p293
VP-3m1 (164)
p294
sVconstraints
p295
(lp296
(dp297
Vname
p298
VFixAtoms
p299
sVkwargs
p300
(dp301
Vindices
p302
(lp303
I0
aI1
aI2
aI3
aI4
aI5
aI6
aI7
aI8
aI9
aI10
aI11
aI13
aI16
aI19
aI21
assasaa(lp304
S'results'
p305
ag2
((ltRp306
aa(lp307
S'user'
p308
aS'ktran'
p309
aa(lp310
S'inserted-hash'
p311
aS'b8b7d58f31260a81f9849d27bfbe6ad861e08697'
p312
aa(lp313
S'ctime'
p314
acdatetime
datetime
p315
(S'\x07\xe1\x03\x1f\x13,\x04\x0c\xcb\xe5'
tRp316
aa(lp317
S'mtime'
p318
ag315
(S'\x07\xe1\x03\x1f\x13,\x04\x0c\xcc\x13'
tRp319
aa(lp320
S'tags'
p321
a(dp322
S'get_slab_settings'
p323
g2
((lp324
(lp325
S'max_broken_bonds'
p326
aI0
aa(lp327
S'bonds'
p328
aNaa(lp329
S'tol'
p330
aF0.29999999999999999
aa(lp331
S'symmetrize'
p332
aI00
aatRp333
sS'relaxed'
p334
I00
sS'mpid'
p335
Vmp-580357
p336
sS'shift'
p337
I0
sS'slab_generate_settings'
p338
g2
((lp339
(lp340
S'primitive'
p341
aI01
aa(lp342
S'min_vacuum_size'
p343
aF20
aa(lp344
S'lll_reduce'
p345
aI00
aa(lp346
S'max_normal_search'
p347
aI1
aa(lp348
S'min_slab_size'
p349
aF7
aa(lp350
S'center_slab'
p351
aI01
aatRp352
sS'miller'
p353
(I1
I1
I1
tp354
sS'top'
p355
I01
sS'type'
p356
S'slab'
p357
sS'num_slab_atoms'
p358
I24
saatRp359
a.