(lp1
ccollections
OrderedDict
p2
((lp3
(lp4
S'atoms'
p5
a(dp6
Vinfo
p7
(dp8
sVvolume
p9
F8615.1825618652601
sVnatoms
p10
I224
sVsymbol_counts
p11
(dp12
VCu
p13
I168
sVPd
p14
I56
ssVchemical_symbols
p15
(lp16
VPd
p17
aVCu
p18
asVatoms
p19
(lp20
(dp21
Vmagmom
p22
F0
sVindex
p23
I0
sVsymbol
p24
VCu
p25
sVcharge
p26
F0
sVtag
p27
I0
sVposition
p28
(lp29
F3.9544143782754864
aF47.95974665001097
aF12.192777666349418
asVmomentum
p30
(lp31
F0
aF0
aF0
asa(dp32
Vmagmom
p33
F0
sVindex
p34
I1
sVsymbol
p35
VCu
p36
sVcharge
p37
F0
sVtag
p38
I0
sVposition
p39
(lp40
F3.9544143782754837
aF22.13468229000771
aF12.192777666349416
asVmomentum
p41
(lp42
F0
aF0
aF0
asa(dp43
Vmagmom
p44
F0
sVindex
p45
I2
sVsymbol
p46
VCu
p47
sVcharge
p48
F0
sVtag
p49
I0
sVposition
p50
(lp51
F1.3181381260918279
aF22.13468229000771
aF9.5565014141657585
asVmomentum
p52
(lp53
F0
aF0
aF0
asa(dp54
Vmagmom
p55
F0
sVindex
p56
I3
sVsymbol
p57
VCu
p58
sVcharge
p59
F0
sVtag
p60
I0
sVposition
p61
(lp62
F6.5906906304591422
aF47.95974665001097
aF9.5565014141657603
asVmomentum
p63
(lp64
F0
aF0
aF0
asa(dp65
Vmagmom
p66
F0
sVindex
p67
I4
sVsymbol
p68
VCu
p69
sVcharge
p70
F0
sVtag
p71
I0
sVposition
p72
(lp73
F5.2725525043673134
aF27.668171312307177
aF10.874639540257586
asVmomentum
p74
(lp75
F0
aF0
aF0
asa(dp76
Vmagmom
p77
F0
sVindex
p78
I5
sVsymbol
p79
VCu
p80
sVcharge
p81
F0
sVtag
p82
I0
sVposition
p83
(lp84
F5.2725525043673134
aF1.8431069523039172
aF10.874639540257585
asVmomentum
p85
(lp86
F0
aF0
aF0
asa(dp87
Vmagmom
p88
F0
sVindex
p89
I6
sVsymbol
p90
VCu
p91
sVcharge
p92
F0
sVtag
p93
I0
sVposition
p94
(lp95
F2.6362762521836558
aF1.8431069523039172
aF13.510915792441242
asVmomentum
p96
(lp97
F0
aF0
aF0
asa(dp98
Vmagmom
p99
F0
sVindex
p100
I7
sVsymbol
p101
VCu
p102
sVcharge
p103
F0
sVtag
p104
I0
sVposition
p105
(lp106
F2.6362762521836558
aF27.668171312307177
aF13.510915792441244
asVmomentum
p107
(lp108
F0
aF0
aF0
asa(dp109
Vmagmom
p110
F0
sVindex
p111
I8
sVsymbol
p112
VCu
p113
sVcharge
p114
F0
sVtag
p115
I0
sVposition
p116
(lp117
F5.2725525043673134
aF35.046144279342258
aF13.510915792441246
asVmomentum
p118
(lp119
F0
aF0
aF0
asa(dp120
Vmagmom
p121
F0
sVindex
p122
I9
sVsymbol
p123
VCu
p124
sVcharge
p125
F0
sVtag
p126
I0
sVposition
p127
(lp128
F5.2725525043673143
aF9.2210799193389974
aF13.510915792441242
asVmomentum
p129
(lp130
F0
aF0
aF0
asa(dp131
Vmagmom
p132
F0
sVindex
p133
I10
sVsymbol
p134
VCu
p135
sVcharge
p136
F0
sVtag
p137
I0
sVposition
p138
(lp139
F2.6362762521836585
aF9.2210799193389974
aF10.874639540257585
asVmomentum
p140
(lp141
F0
aF0
aF0
asa(dp142
Vmagmom
p143
F0
sVindex
p144
I11
sVsymbol
p145
VCu
p146
sVcharge
p147
F0
sVtag
p148
I0
sVposition
p149
(lp150
F2.6362762521836585
aF35.046144279342258
aF10.874639540257588
asVmomentum
p151
(lp152
F0
aF0
aF0
asa(dp153
Vmagmom
p154
F0
sVindex
p155
I12
sVsymbol
p156
VCu
p157
sVcharge
p158
F0
sVtag
p159
I0
sVposition
p160
(lp161
F5.2725525043673134
aF31.359896285649452
aF10.87463954025759
asVmomentum
p162
(lp163
F0
aF0
aF0
asa(dp164
Vmagmom
p165
F0
sVindex
p166
I13
sVsymbol
p167
VCu
p168
sVcharge
p169
F0
sVtag
p170
I0
sVposition
p171
(lp172
F5.2725525043673134
aF5.5348319256461949
aF10.874639540257585
asVmomentum
p173
(lp174
F0
aF0
aF0
asa(dp175
Vmagmom
p176
F0
sVindex
p177
I14
sVsymbol
p178
VCu
p179
sVcharge
p180
F0
sVtag
p181
I0
sVposition
p182
(lp183
F2.6362762521836558
aF5.5348319256461949
aF13.510915792441242
asVmomentum
p184
(lp185
F0
aF0
aF0
asa(dp186
Vmagmom
p187
F0
sVindex
p188
I15
sVsymbol
p189
VCu
p190
sVcharge
p191
F0
sVtag
p192
I0
sVposition
p193
(lp194
F2.6362762521836558
aF31.359896285649452
aF13.510915792441246
asVmomentum
p195
(lp196
F0
aF0
aF0
asa(dp197
Vmagmom
p198
F0
sVindex
p199
I16
sVsymbol
p200
VCu
p201
sVcharge
p202
F0
sVtag
p203
I0
sVposition
p204
(lp205
F3.9544143782754846
aF44.27141922213589
aF12.192777666349418
asVmomentum
p206
(lp207
F0
aF0
aF0
asa(dp208
Vmagmom
p209
F0
sVindex
p210
I17
sVsymbol
p211
VCu
p212
sVcharge
p213
F0
sVtag
p214
I0
sVposition
p215
(lp216
F3.9544143782754846
aF18.446354862132637
aF12.192777666349416
asVmomentum
p217
(lp218
F0
aF0
aF0
asa(dp219
Vmagmom
p220
F0
sVindex
p221
I18
sVsymbol
p222
VCu
p223
sVcharge
p224
F0
sVtag
p225
I0
sVposition
p226
(lp227
F1.318138126091827
aF18.446354862132637
aF14.829053918533074
asVmomentum
p228
(lp229
F0
aF0
aF0
asa(dp230
Vmagmom
p231
F0
sVindex
p232
I19
sVsymbol
p233
VCu
p234
sVcharge
p235
F0
sVtag
p236
I0
sVposition
p237
(lp238
F6.5906906304591413
aF44.27141922213589
aF9.5565014141657603
asVmomentum
p239
(lp240
F0
aF0
aF0
asa(dp241
Vmagmom
p242
F0
sVindex
p243
I20
sVsymbol
p244
VCu
p245
sVcharge
p246
F0
sVtag
p247
I0
sVposition
p248
(lp249
F6.5906906304591422
aF33.203773857873877
aF12.192777666349418
asVmomentum
p250
(lp251
F0
aF0
aF0
asa(dp252
Vmagmom
p253
F0
sVindex
p254
I21
sVsymbol
p255
VCu
p256
sVcharge
p257
F0
sVtag
p258
I0
sVposition
p259
(lp260
F1.318138126091827
aF7.3787094978706218
aF12.192777666349414
asVmomentum
p261
(lp262
F0
aF0
aF0
asa(dp263
Vmagmom
p264
F0
sVindex
p265
I22
sVsymbol
p266
VCu
p267
sVcharge
p268
F0
sVtag
p269
I0
sVposition
p270
(lp271
F3.9544143782754855
aF7.3787094978706218
aF14.82905391853307
asVmomentum
p272
(lp273
F0
aF0
aF0
asa(dp274
Vmagmom
p275
F0
sVindex
p276
I23
sVsymbol
p277
VCu
p278
sVcharge
p279
F0
sVtag
p280
I0
sVposition
p281
(lp282
F3.9544143782754846
aF33.203773857873877
aF9.5565014141657585
asVmomentum
p283
(lp284
F0
aF0
aF0
asa(dp285
Vmagmom
p286
F0
sVindex
p287
I24
sVsymbol
p288
VCu
p289
sVcharge
p290
F0
sVtag
p291
I0
sVposition
p292
(lp293
F3.9544143782754846
aF29.515446429998804
aF12.192777666349416
asVmomentum
p294
(lp295
F0
aF0
aF0
asa(dp296
Vmagmom
p297
F0
sVindex
p298
I25
sVsymbol
p299
VCu
p300
sVcharge
p301
F0
sVtag
p302
I0
sVposition
p303
(lp304
F3.9544143782754837
aF3.6903820699955454
aF12.192777666349414
asVmomentum
p305
(lp306
F0
aF0
aF0
asa(dp307
Vmagmom
p308
F0
sVindex
p309
I26
sVsymbol
p310
VCu
p311
sVcharge
p312
F0
sVtag
p313
I0
sVposition
p314
(lp315
F1.318138126091827
aF3.6903820699955454
aF14.829053918533072
asVmomentum
p316
(lp317
F0
aF0
aF0
asa(dp318
Vmagmom
p319
F0
sVindex
p320
I27
sVsymbol
p321
VCu
p322
sVcharge
p323
F0
sVtag
p324
I0
sVposition
p325
(lp326
F6.5906906304591413
aF29.515446429998804
aF9.5565014141657585
asVmomentum
p327
(lp328
F0
aF0
aF0
asa(dp329
Vmagmom
p330
F0
sVindex
p331
I28
sVsymbol
p332
VCu
p333
sVcharge
p334
F0
sVtag
p335
I0
sVposition
p336
(lp337
F5.2725525043673125
aF49.807021767702594
aF10.87463954025759
asVmomentum
p338
(lp339
F0
aF0
aF0
asa(dp340
Vmagmom
p341
F0
sVindex
p342
I29
sVsymbol
p343
VCu
p344
sVcharge
p345
F0
sVtag
p346
I0
sVposition
p347
(lp348
F5.2725525043673134
aF23.98195740769934
aF10.874639540257588
asVmomentum
p349
(lp350
F0
aF0
aF0
asa(dp351
Vmagmom
p352
F0
sVindex
p353
I30
sVsymbol
p354
VCu
p355
sVcharge
p356
F0
sVtag
p357
I0
sVposition
p358
(lp359
F2.6362762521836567
aF23.98195740769934
aF13.510915792441244
asVmomentum
p360
(lp361
F0
aF0
aF0
asa(dp362
Vmagmom
p363
F0
sVindex
p364
I31
sVsymbol
p365
VCu
p366
sVcharge
p367
F0
sVtag
p368
I0
sVposition
p369
(lp370
F2.6362762521836571
aF49.807021767702594
aF8.2383632880739306
asVmomentum
p371
(lp372
F0
aF0
aF0
asa(dp373
Vmagmom
p374
F0
sVindex
p375
I32
sVsymbol
p376
VCu
p377
sVcharge
p378
F0
sVtag
p379
I0
sVposition
p380
(lp381
F3.9544143782754873
aF36.893108205008346
aF12.192777666349418
asVmomentum
p382
(lp383
F0
aF0
aF0
asa(dp384
Vmagmom
p385
F0
sVindex
p386
I33
sVsymbol
p387
VCu
p388
sVcharge
p389
F0
sVtag
p390
I0
sVposition
p391
(lp392
F3.9544143782754855
aF11.068043845005093
aF12.192777666349416
asVmomentum
p393
(lp394
F0
aF0
aF0
asa(dp395
Vmagmom
p396
F0
sVindex
p397
I34
sVsymbol
p398
VCu
p399
sVcharge
p400
F0
sVtag
p401
I0
sVposition
p402
(lp403
F1.3181381260918288
aF11.068043845005093
aF14.829053918533074
asVmomentum
p404
(lp405
F0
aF0
aF0
asa(dp406
Vmagmom
p407
F0
sVindex
p408
I35
sVsymbol
p409
VCu
p410
sVcharge
p411
F0
sVtag
p412
I0
sVposition
p413
(lp414
F6.5906906304591431
aF36.893108205008346
aF9.5565014141657585
asVmomentum
p415
(lp416
F0
aF0
aF0
asa(dp417
Vmagmom
p418
F0
sVindex
p419
I36
sVsymbol
p420
VCu
p421
sVcharge
p422
F0
sVtag
p423
I0
sVposition
p424
(lp425
F6.5906906304591431
aF47.95974665001097
aF12.192777666349418
asVmomentum
p426
(lp427
F0
aF0
aF0
asa(dp428
Vmagmom
p429
F0
sVindex
p430
I37
sVsymbol
p431
VCu
p432
sVcharge
p433
F0
sVtag
p434
I0
sVposition
p435
(lp436
F1.318138126091827
aF22.13468229000771
aF12.192777666349416
asVmomentum
p437
(lp438
F0
aF0
aF0
asa(dp439
Vmagmom
p440
F0
sVindex
p441
I38
sVsymbol
p442
VCu
p443
sVcharge
p444
F0
sVtag
p445
I0
sVposition
p446
(lp447
F3.9544143782754841
aF22.13468229000771
aF9.5565014141657567
asVmomentum
p448
(lp449
F0
aF0
aF0
asa(dp450
Vmagmom
p451
F0
sVindex
p452
I39
sVsymbol
p453
VCu
p454
sVcharge
p455
F0
sVtag
p456
I0
sVposition
p457
(lp458
F3.9544143782754868
aF47.95974665001097
aF9.5565014141657585
asVmomentum
p459
(lp460
F0
aF0
aF0
asa(dp461
Vmagmom
p462
F0
sVindex
p463
I40
sVsymbol
p464
VCu
p465
sVcharge
p466
F0
sVtag
p467
I0
sVposition
p468
(lp469
F6.5906906304591413
aF40.582084875001421
aF12.192777666349418
asVmomentum
p470
(lp471
F0
aF0
aF0
asa(dp472
Vmagmom
p473
F0
sVindex
p474
I41
sVsymbol
p475
VCu
p476
sVcharge
p477
F0
sVtag
p478
I0
sVposition
p479
(lp480
F1.318138126091827
aF14.757020514998164
aF12.192777666349416
asVmomentum
p481
(lp482
F0
aF0
aF0
asa(dp483
Vmagmom
p484
F0
sVindex
p485
I42
sVsymbol
p486
VCu
p487
sVcharge
p488
F0
sVtag
p489
I0
sVposition
p490
(lp491
F3.9544143782754855
aF14.757020514998164
aF14.829053918533072
asVmomentum
p492
(lp493
F0
aF0
aF0
asa(dp494
Vmagmom
p495
F0
sVindex
p496
I43
sVsymbol
p497
VCu
p498
sVcharge
p499
F0
sVtag
p500
I0
sVposition
p501
(lp502
F3.9544143782754855
aF40.582084875001421
aF9.5565014141657603
asVmomentum
p503
(lp504
F0
aF0
aF0
asa(dp505
Vmagmom
p506
F0
sVindex
p507
I44
sVsymbol
p508
VCu
p509
sVcharge
p510
F0
sVtag
p511
I0
sVposition
p512
(lp513
F3.9544143782754846
aF33.203773857873877
aF12.192777666349418
asVmomentum
p514
(lp515
F0
aF0
aF0
asa(dp516
Vmagmom
p517
F0
sVindex
p518
I45
sVsymbol
p519
VCu
p520
sVcharge
p521
F0
sVtag
p522
I0
sVposition
p523
(lp524
F3.9544143782754846
aF7.3787094978706218
aF12.192777666349414
asVmomentum
p525
(lp526
F0
aF0
aF0
asa(dp527
Vmagmom
p528
F0
sVindex
p529
I46
sVsymbol
p530
VCu
p531
sVcharge
p532
F0
sVtag
p533
I0
sVposition
p534
(lp535
F1.318138126091827
aF7.3787094978706218
aF14.829053918533072
asVmomentum
p536
(lp537
F0
aF0
aF0
asa(dp538
Vmagmom
p539
F0
sVindex
p540
I47
sVsymbol
p541
VCu
p542
sVcharge
p543
F0
sVtag
p544
I0
sVposition
p545
(lp546
F6.5906906304591413
aF33.203773857873877
aF9.5565014141657603
asVmomentum
p547
(lp548
F0
aF0
aF0
asa(dp549
Vmagmom
p550
F0
sVindex
p551
I48
sVsymbol
p552
VCu
p553
sVcharge
p554
F0
sVtag
p555
I0
sVposition
p556
(lp557
F6.5906906304591431
aF29.515446429998804
aF12.192777666349416
asVmomentum
p558
(lp559
F0
aF0
aF0
asa(dp560
Vmagmom
p561
F0
sVindex
p562
I49
sVsymbol
p563
VCu
p564
sVcharge
p565
F0
sVtag
p566
I0
sVposition
p567
(lp568
F1.318138126091827
aF3.6903820699955454
aF12.192777666349414
asVmomentum
p569
(lp570
F0
aF0
aF0
asa(dp571
Vmagmom
p572
F0
sVindex
p573
I50
sVsymbol
p574
VCu
p575
sVcharge
p576
F0
sVtag
p577
I0
sVposition
p578
(lp579
F3.9544143782754855
aF3.6903820699955454
aF14.82905391853307
asVmomentum
p580
(lp581
F0
aF0
aF0
asa(dp582
Vmagmom
p583
F0
sVindex
p584
I51
sVsymbol
p585
VCu
p586
sVcharge
p587
F0
sVtag
p588
I0
sVposition
p589
(lp590
F3.9544143782754855
aF29.515446429998804
aF9.5565014141657585
asVmomentum
p591
(lp592
F0
aF0
aF0
asa(dp593
Vmagmom
p594
F0
sVindex
p595
I52
sVsymbol
p596
VCu
p597
sVcharge
p598
F0
sVtag
p599
I0
sVposition
p600
(lp601
F6.5906906304591431
aF36.893108205008346
aF12.192777666349416
asVmomentum
p602
(lp603
F0
aF0
aF0
asa(dp604
Vmagmom
p605
F0
sVindex
p606
I53
sVsymbol
p607
VCu
p608
sVcharge
p609
F0
sVtag
p610
I0
sVposition
p611
(lp612
F1.3181381260918306
aF11.068043845005093
aF12.192777666349414
asVmomentum
p613
(lp614
F0
aF0
aF0
asa(dp615
Vmagmom
p616
F0
sVindex
p617
I54
sVsymbol
p618
VCu
p619
sVcharge
p620
F0
sVtag
p621
I0
sVposition
p622
(lp623
F3.9544143782754846
aF11.068043845005093
aF14.829053918533074
asVmomentum
p624
(lp625
F0
aF0
aF0
asa(dp626
Vmagmom
p627
F0
sVindex
p628
I55
sVsymbol
p629
VCu
p630
sVcharge
p631
F0
sVtag
p632
I0
sVposition
p633
(lp634
F3.9544143782754855
aF36.893108205008346
aF9.5565014141657585
asVmomentum
p635
(lp636
F0
aF0
aF0
asa(dp637
Vmagmom
p638
F0
sVindex
p639
I56
sVsymbol
p640
VCu
p641
sVcharge
p642
F0
sVtag
p643
I0
sVposition
p644
(lp645
F5.2725525043673134
aF42.429048800667516
aF13.510915792441246
asVmomentum
p646
(lp647
F0
aF0
aF0
asa(dp648
Vmagmom
p649
F0
sVindex
p650
I57
sVsymbol
p651
VCu
p652
sVcharge
p653
F0
sVtag
p654
I0
sVposition
p655
(lp656
F5.2725525043673134
aF16.603984440664259
aF13.510915792441244
asVmomentum
p657
(lp658
F0
aF0
aF0
asa(dp659
Vmagmom
p660
F0
sVindex
p661
I58
sVsymbol
p662
VCu
p663
sVcharge
p664
F0
sVtag
p665
I0
sVposition
p666
(lp667
F2.6362762521836567
aF16.603984440664259
aF10.874639540257585
asVmomentum
p668
(lp669
F0
aF0
aF0
asa(dp670
Vmagmom
p671
F0
sVindex
p672
I59
sVsymbol
p673
VCu
p674
sVcharge
p675
F0
sVtag
p676
I0
sVposition
p677
(lp678
F2.6362762521836558
aF42.429048800667516
aF10.874639540257588
asVmomentum
p679
(lp680
F0
aF0
aF0
asa(dp681
Vmagmom
p682
F0
sVindex
p683
I60
sVsymbol
p684
VCu
p685
sVcharge
p686
F0
sVtag
p687
I0
sVposition
p688
(lp689
F3.9544143782754855
aF40.582084875001421
aF12.192777666349418
asVmomentum
p690
(lp691
F0
aF0
aF0
asa(dp692
Vmagmom
p693
F0
sVindex
p694
I61
sVsymbol
p695
VCu
p696
sVcharge
p697
F0
sVtag
p698
I0
sVposition
p699
(lp700
F3.9544143782754846
aF14.757020514998164
aF12.192777666349414
asVmomentum
p701
(lp702
F0
aF0
aF0
asa(dp703
Vmagmom
p704
F0
sVindex
p705
I62
sVsymbol
p706
VCu
p707
sVcharge
p708
F0
sVtag
p709
I0
sVposition
p710
(lp711
F1.318138126091827
aF14.757020514998164
aF14.829053918533074
asVmomentum
p712
(lp713
F0
aF0
aF0
asa(dp714
Vmagmom
p715
F0
sVindex
p716
I63
sVsymbol
p717
VCu
p718
sVcharge
p719
F0
sVtag
p720
I0
sVposition
p721
(lp722
F6.5906906304591413
aF40.582084875001421
aF9.556501414165762
asVmomentum
p723
(lp724
F0
aF0
aF0
asa(dp725
Vmagmom
p726
F0
sVindex
p727
I64
sVsymbol
p728
VCu
p729
sVcharge
p730
F0
sVtag
p731
I0
sVposition
p732
(lp733
F5.2725525043673152
aF46.115296794360319
aF10.87463954025759
asVmomentum
p734
(lp735
F0
aF0
aF0
asa(dp736
Vmagmom
p737
F0
sVindex
p738
I65
sVsymbol
p739
VCu
p740
sVcharge
p741
F0
sVtag
p742
I0
sVposition
p743
(lp744
F5.2725525043673134
aF20.290232434357062
aF10.874639540257588
asVmomentum
p745
(lp746
F0
aF0
aF0
asa(dp747
Vmagmom
p748
F0
sVindex
p749
I66
sVsymbol
p750
VCu
p751
sVcharge
p752
F0
sVtag
p753
I0
sVposition
p754
(lp755
F2.6362762521836558
aF20.290232434357062
aF13.510915792441244
asVmomentum
p756
(lp757
F0
aF0
aF0
asa(dp758
Vmagmom
p759
F0
sVindex
p760
I67
sVsymbol
p761
VCu
p762
sVcharge
p763
F0
sVtag
p764
I0
sVposition
p765
(lp766
F2.6362762521836571
aF46.115296794360319
aF8.2383632880739306
asVmomentum
p767
(lp768
F0
aF0
aF0
asa(dp769
Vmagmom
p770
F0
sVindex
p771
I68
sVsymbol
p772
VCu
p773
sVcharge
p774
F0
sVtag
p775
I0
sVposition
p776
(lp777
F6.5906906304591422
aF44.27141922213589
aF12.192777666349418
asVmomentum
p778
(lp779
F0
aF0
aF0
asa(dp780
Vmagmom
p781
F0
sVindex
p782
I69
sVsymbol
p783
VCu
p784
sVcharge
p785
F0
sVtag
p786
I0
sVposition
p787
(lp788
F1.318138126091827
aF18.446354862132637
aF12.192777666349416
asVmomentum
p789
(lp790
F0
aF0
aF0
asa(dp791
Vmagmom
p792
F0
sVindex
p793
I70
sVsymbol
p794
VCu
p795
sVcharge
p796
F0
sVtag
p797
I0
sVposition
p798
(lp799
F3.9544143782754855
aF18.446354862132637
aF14.829053918533072
asVmomentum
p800
(lp801
F0
aF0
aF0
asa(dp802
Vmagmom
p803
F0
sVindex
p804
I71
sVsymbol
p805
VCu
p806
sVcharge
p807
F0
sVtag
p808
I0
sVposition
p809
(lp810
F3.9544143782754841
aF44.27141922213589
aF9.5565014141657585
asVmomentum
p811
(lp812
F0
aF0
aF0
asa(dp813
Vmagmom
p814
F0
sVindex
p815
I72
sVsymbol
p816
VCu
p817
sVcharge
p818
F0
sVtag
p819
I0
sVposition
p820
(lp821
F5.2725525043673143
aF38.737596540004887
aF13.510915792441246
asVmomentum
p822
(lp823
F0
aF0
aF0
asa(dp824
Vmagmom
p825
F0
sVindex
p826
I73
sVsymbol
p827
VCu
p828
sVcharge
p829
F0
sVtag
p830
I0
sVposition
p831
(lp832
F5.2725525043673134
aF12.912532180001628
aF13.510915792441244
asVmomentum
p833
(lp834
F0
aF0
aF0
asa(dp835
Vmagmom
p836
F0
sVindex
p837
I74
sVsymbol
p838
VCu
p839
sVcharge
p840
F0
sVtag
p841
I0
sVposition
p842
(lp843
F2.6362762521836567
aF12.912532180001628
aF10.874639540257588
asVmomentum
p844
(lp845
F0
aF0
aF0
asa(dp846
Vmagmom
p847
F0
sVindex
p848
I75
sVsymbol
p849
VCu
p850
sVcharge
p851
F0
sVtag
p852
I0
sVposition
p853
(lp854
F2.6362762521836567
aF38.737596540004887
aF10.874639540257586
asVmomentum
p855
(lp856
F0
aF0
aF0
asa(dp857
Vmagmom
p858
F0
sVindex
p859
I76
sVsymbol
p860
VCu
p861
sVcharge
p862
F0
sVtag
p863
I0
sVposition
p864
(lp865
F1.3181381260918288
aF25.825064360003257
aF12.192777666349416
asVmomentum
p866
(lp867
F0
aF0
aF0
asa(dp868
Vmagmom
p869
F0
sVindex
p870
I77
sVsymbol
p871
VCu
p872
sVcharge
p873
F0
sVtag
p874
I0
sVposition
p875
(lp876
F1.3181381260918297
aF0
aF12.192777666349414
asVmomentum
p877
(lp878
F0
aF0
aF0
asa(dp879
Vmagmom
p880
F0
sVindex
p881
I78
sVsymbol
p882
VCu
p883
sVcharge
p884
F0
sVtag
p885
I0
sVposition
p886
(lp887
F3.9544143782754846
aF0
aF14.829053918533072
asVmomentum
p888
(lp889
F0
aF0
aF0
asa(dp890
Vmagmom
p891
F0
sVindex
p892
I79
sVsymbol
p893
VCu
p894
sVcharge
p895
F0
sVtag
p896
I0
sVposition
p897
(lp898
F3.954414378275485
aF25.825064360003257
aF9.5565014141657567
asVmomentum
p899
(lp900
F0
aF0
aF0
asa(dp901
Vmagmom
p902
F0
sVindex
p903
I80
sVsymbol
p904
VCu
p905
sVcharge
p906
F0
sVtag
p907
I0
sVposition
p908
(lp909
F3.9544143782754855
aF25.825064360003257
aF12.192777666349416
asVmomentum
p910
(lp911
F0
aF0
aF0
asa(dp912
Vmagmom
p913
F0
sVindex
p914
I81
sVsymbol
p915
VCu
p916
sVcharge
p917
F0
sVtag
p918
I0
sVposition
p919
(lp920
F3.9544143782754855
aF0
aF12.192777666349414
asVmomentum
p921
(lp922
F0
aF0
aF0
asa(dp923
Vmagmom
p924
F0
sVindex
p925
I82
sVsymbol
p926
VCu
p927
sVcharge
p928
F0
sVtag
p929
I0
sVposition
p930
(lp931
F1.3181381260918288
aF0
aF14.829053918533072
asVmomentum
p932
(lp933
F0
aF0
aF0
asa(dp934
Vmagmom
p935
F0
sVindex
p936
I83
sVsymbol
p937
VCu
p938
sVcharge
p939
F0
sVtag
p940
I0
sVposition
p941
(lp942
F1.3181381260918279
aF25.825064360003257
aF9.5565014141657567
asVmomentum
p943
(lp944
F0
aF0
aF0
asa(dp945
Vmagmom
p946
F0
sVindex
p947
I84
sVsymbol
p948
VPd
p949
sVcharge
p950
F0
sVtag
p951
I0
sVposition
p952
(lp953
F5.2725525043673134
aF42.429041569649499
aF10.87463954025759
asVmomentum
p954
(lp955
F0
aF0
aF0
asa(dp956
Vmagmom
p957
F0
sVindex
p958
I85
sVsymbol
p959
VPd
p960
sVcharge
p961
F0
sVtag
p962
I0
sVposition
p963
(lp964
F5.2725525043673134
aF16.603977209646239
aF10.874639540257588
asVmomentum
p965
(lp966
F0
aF0
aF0
asa(dp967
Vmagmom
p968
F0
sVindex
p969
I86
sVsymbol
p970
VPd
p971
sVcharge
p972
F0
sVtag
p973
I0
sVposition
p974
(lp975
F2.6362762521836567
aF16.603977209646239
aF13.510915792441242
asVmomentum
p976
(lp977
F0
aF0
aF0
asa(dp978
Vmagmom
p979
F0
sVindex
p980
I87
sVsymbol
p981
VPd
p982
sVcharge
p983
F0
sVtag
p984
I0
sVposition
p985
(lp986
F2.6362762521836576
aF42.429041569649499
aF13.510915792441246
asVmomentum
p987
(lp988
F0
aF0
aF0
asa(dp989
Vmagmom
p990
F0
sVindex
p991
I88
sVsymbol
p992
VPd
p993
sVcharge
p994
F0
sVtag
p995
I0
sVposition
p996
(lp997
F5.2725525043673134
aF27.671441798457732
aF13.510915792441244
asVmomentum
p998
(lp999
F0
aF0
aF0
asa(dp1000
Vmagmom
p1001
F0
sVindex
p1002
I89
sVsymbol
p1003
VPd
p1004
sVcharge
p1005
F0
sVtag
p1006
I0
sVposition
p1007
(lp1008
F5.2725525043673116
aF1.8463774384544756
aF13.510915792441242
asVmomentum
p1009
(lp1010
F0
aF0
aF0
asa(dp1011
Vmagmom
p1012
F0
sVindex
p1013
I90
sVsymbol
p1014
VPd
p1015
sVcharge
p1016
F0
sVtag
p1017
I0
sVposition
p1018
(lp1019
F2.6362762521836567
aF1.8463774384544756
aF10.874639540257583
asVmomentum
p1020
(lp1021
F0
aF0
aF0
asa(dp1022
Vmagmom
p1023
F0
sVindex
p1024
I91
sVsymbol
p1025
VPd
p1026
sVcharge
p1027
F0
sVtag
p1028
I0
sVposition
p1029
(lp1030
F2.6362762521836567
aF27.671441798457732
aF10.874639540257585
asVmomentum
p1031
(lp1032
F0
aF0
aF0
asa(dp1033
Vmagmom
p1034
F0
sVindex
p1035
I92
sVsymbol
p1036
VPd
p1037
sVcharge
p1038
F0
sVtag
p1039
I0
sVposition
p1040
(lp1041
F5.2725525043673134
aF35.046151510360275
aF10.87463954025759
asVmomentum
p1042
(lp1043
F0
aF0
aF0
asa(dp1044
Vmagmom
p1045
F0
sVindex
p1046
I93
sVsymbol
p1047
VPd
p1048
sVcharge
p1049
F0
sVtag
p1050
I0
sVposition
p1051
(lp1052
F5.2725525043673134
aF9.2210871503570164
aF10.874639540257583
asVmomentum
p1053
(lp1054
F0
aF0
aF0
asa(dp1055
Vmagmom
p1056
F0
sVindex
p1057
I94
sVsymbol
p1058
VPd
p1059
sVcharge
p1060
F0
sVtag
p1061
I0
sVposition
p1062
(lp1063
F2.6362762521836558
aF9.2210871503570164
aF13.510915792441242
asVmomentum
p1064
(lp1065
F0
aF0
aF0
asa(dp1066
Vmagmom
p1067
F0
sVindex
p1068
I95
sVsymbol
p1069
VPd
p1070
sVcharge
p1071
F0
sVtag
p1072
I0
sVposition
p1073
(lp1074
F2.6362762521836558
aF35.046151510360275
aF13.510915792441246
asVmomentum
p1075
(lp1076
F0
aF0
aF0
asa(dp1077
Vmagmom
p1078
F0
sVindex
p1079
I96
sVsymbol
p1080
VPd
p1081
sVcharge
p1082
F0
sVtag
p1083
I0
sVposition
p1084
(lp1085
F5.2725525043673134
aF31.361604871907517
aF13.510915792441242
asVmomentum
p1086
(lp1087
F0
aF0
aF0
asa(dp1088
Vmagmom
p1089
F0
sVindex
p1090
I97
sVsymbol
p1091
VPd
p1092
sVcharge
p1093
F0
sVtag
p1094
I0
sVposition
p1095
(lp1096
F5.2725525043673125
aF5.5365405119042563
aF13.510915792441242
asVmomentum
p1097
(lp1098
F0
aF0
aF0
asa(dp1099
Vmagmom
p1100
F0
sVindex
p1101
I98
sVsymbol
p1102
VPd
p1103
sVcharge
p1104
F0
sVtag
p1105
I0
sVposition
p1106
(lp1107
F2.6362762521836585
aF5.5365405119042563
aF10.874639540257585
asVmomentum
p1108
(lp1109
F0
aF0
aF0
asa(dp1110
Vmagmom
p1111
F0
sVindex
p1112
I99
sVsymbol
p1113
VPd
p1114
sVcharge
p1115
F0
sVtag
p1116
I0
sVposition
p1117
(lp1118
F2.6362762521836567
aF31.361604871907517
aF10.874639540257586
asVmomentum
p1119
(lp1120
F0
aF0
aF0
asa(dp1121
Vmagmom
p1122
F0
sVindex
p1123
I100
sVsymbol
p1124
VPd
p1125
sVcharge
p1126
F0
sVtag
p1127
I0
sVposition
p1128
(lp1129
F5.2725525043673134
aF38.737596540004887
aF10.874639540257588
asVmomentum
p1130
(lp1131
F0
aF0
aF0
asa(dp1132
Vmagmom
p1133
F0
sVindex
p1134
I101
sVsymbol
p1135
VPd
p1136
sVcharge
p1137
F0
sVtag
p1138
I0
sVposition
p1139
(lp1140
F5.2725525043673134
aF12.912532180001628
aF10.874639540257588
asVmomentum
p1141
(lp1142
F0
aF0
aF0
asa(dp1143
Vmagmom
p1144
F0
sVindex
p1145
I102
sVsymbol
p1146
VPd
p1147
sVcharge
p1148
F0
sVtag
p1149
I0
sVposition
p1150
(lp1151
F2.6362762521836558
aF12.912532180001628
aF13.510915792441244
asVmomentum
p1152
(lp1153
F0
aF0
aF0
asa(dp1154
Vmagmom
p1155
F0
sVindex
p1156
I103
sVsymbol
p1157
VPd
p1158
sVcharge
p1159
F0
sVtag
p1160
I0
sVposition
p1161
(lp1162
F2.6362762521836558
aF38.737596540004887
aF13.510915792441246
asVmomentum
p1163
(lp1164
F0
aF0
aF0
asa(dp1165
Vmagmom
p1166
F0
sVindex
p1167
I104
sVsymbol
p1168
VPd
p1169
sVcharge
p1170
F0
sVtag
p1171
I0
sVposition
p1172
(lp1173
F5.2725525043673125
aF49.803751281552039
aF8.2383632880739306
asVmomentum
p1174
(lp1175
F0
aF0
aF0
asa(dp1176
Vmagmom
p1177
F0
sVindex
p1178
I105
sVsymbol
p1179
VPd
p1180
sVcharge
p1181
F0
sVtag
p1182
I0
sVposition
p1183
(lp1184
F5.2725525043673134
aF23.978686921548782
aF13.510915792441244
asVmomentum
p1185
(lp1186
F0
aF0
aF0
asa(dp1187
Vmagmom
p1188
F0
sVindex
p1189
I106
sVsymbol
p1190
VPd
p1191
sVcharge
p1192
F0
sVtag
p1193
I0
sVposition
p1194
(lp1195
F2.6362762521836558
aF23.978686921548782
aF10.874639540257586
asVmomentum
p1196
(lp1197
F0
aF0
aF0
asa(dp1198
Vmagmom
p1199
F0
sVindex
p1200
I107
sVsymbol
p1201
VPd
p1202
sVcharge
p1203
F0
sVtag
p1204
I0
sVposition
p1205
(lp1206
F2.6362762521836567
aF49.803751281552039
aF10.87463954025759
asVmomentum
p1207
(lp1208
F0
aF0
aF0
asa(dp1209
Vmagmom
p1210
F0
sVindex
p1211
I108
sVsymbol
p1212
VPd
p1213
sVcharge
p1214
F0
sVtag
p1215
I0
sVposition
p1216
(lp1217
F5.2725525043673143
aF46.113588208102257
aF8.2383632880739324
asVmomentum
p1218
(lp1219
F0
aF0
aF0
asa(dp1220
Vmagmom
p1221
F0
sVindex
p1222
I109
sVsymbol
p1223
VPd
p1224
sVcharge
p1225
F0
sVtag
p1226
I0
sVposition
p1227
(lp1228
F5.2725525043673152
aF20.288523848099
aF13.510915792441244
asVmomentum
p1229
(lp1230
F0
aF0
aF0
asa(dp1231
Vmagmom
p1232
F0
sVindex
p1233
I110
sVsymbol
p1234
VPd
p1235
sVcharge
p1236
F0
sVtag
p1237
I0
sVposition
p1238
(lp1239
F2.6362762521836558
aF20.288523848099
aF10.874639540257586
asVmomentum
p1240
(lp1241
F0
aF0
aF0
asa(dp1242
Vmagmom
p1243
F0
sVindex
p1244
I111
sVsymbol
p1245
VPd
p1246
sVcharge
p1247
F0
sVtag
p1248
I0
sVposition
p1249
(lp1250
F2.6362762521836585
aF46.113588208102257
aF10.874639540257588
asVmomentum
p1251
(lp1252
F0
aF0
aF0
asa(dp1253
Vmagmom
p1254
F0
sVindex
p1255
I112
sVsymbol
p1256
VCu
p1257
sVcharge
p1258
F0
sVtag
p1259
I0
sVposition
p1260
(lp1261
F3.9544143782754846
aF47.95974665001097
aF17.465330170716729
asVmomentum
p1262
(lp1263
F0
aF0
aF0
asa(dp1264
Vmagmom
p1265
F0
sVindex
p1266
I113
sVsymbol
p1267
VCu
p1268
sVcharge
p1269
F0
sVtag
p1270
I0
sVposition
p1271
(lp1272
F3.9544143782754828
aF22.13468229000771
aF17.465330170716729
asVmomentum
p1273
(lp1274
F0
aF0
aF0
asa(dp1275
Vmagmom
p1276
F0
sVindex
p1277
I114
sVsymbol
p1278
VCu
p1279
sVcharge
p1280
F0
sVtag
p1281
I0
sVposition
p1282
(lp1283
F1.318138126091827
aF22.13468229000771
aF14.829053918533074
asVmomentum
p1284
(lp1285
F0
aF0
aF0
asa(dp1286
Vmagmom
p1287
F0
sVindex
p1288
I115
sVsymbol
p1289
VCu
p1290
sVcharge
p1291
F0
sVtag
p1292
I0
sVposition
p1293
(lp1294
F6.5906906304591413
aF47.95974665001097
aF14.82905391853307
asVmomentum
p1295
(lp1296
F0
aF0
aF0
asa(dp1297
Vmagmom
p1298
F0
sVindex
p1299
I116
sVsymbol
p1300
VCu
p1301
sVcharge
p1302
F0
sVtag
p1303
I0
sVposition
p1304
(lp1305
F5.2725525043673152
aF27.668171312307177
aF16.147192044624905
asVmomentum
p1306
(lp1307
F0
aF0
aF0
asa(dp1308
Vmagmom
p1309
F0
sVindex
p1310
I117
sVsymbol
p1311
VCu
p1312
sVcharge
p1313
F0
sVtag
p1314
I0
sVposition
p1315
(lp1316
F5.2725525043673125
aF1.8431069523039172
aF16.147192044624894
asVmomentum
p1317
(lp1318
F0
aF0
aF0
asa(dp1319
Vmagmom
p1320
F0
sVindex
p1321
I118
sVsymbol
p1322
VCu
p1323
sVcharge
p1324
F0
sVtag
p1325
I0
sVposition
p1326
(lp1327
F2.6362762521836576
aF1.8431069523039172
aF18.783468296808557
asVmomentum
p1328
(lp1329
F0
aF0
aF0
asa(dp1330
Vmagmom
p1331
F0
sVindex
p1332
I119
sVsymbol
p1333
VCu
p1334
sVcharge
p1335
F0
sVtag
p1336
I0
sVposition
p1337
(lp1338
F2.6362762521836558
aF27.668171312307177
aF18.783468296808557
asVmomentum
p1339
(lp1340
F0
aF0
aF0
asa(dp1341
Vmagmom
p1342
F0
sVindex
p1343
I120
sVsymbol
p1344
VCu
p1345
sVcharge
p1346
F0
sVtag
p1347
I0
sVposition
p1348
(lp1349
F5.2725525043673125
aF35.046144279342258
aF18.783468296808561
asVmomentum
p1350
(lp1351
F0
aF0
aF0
asa(dp1352
Vmagmom
p1353
F0
sVindex
p1354
I121
sVsymbol
p1355
VCu
p1356
sVcharge
p1357
F0
sVtag
p1358
I0
sVposition
p1359
(lp1360
F5.2725525043673125
aF9.2210799193389974
aF18.783468296808557
asVmomentum
p1361
(lp1362
F0
aF0
aF0
asa(dp1363
Vmagmom
p1364
F0
sVindex
p1365
I122
sVsymbol
p1366
VCu
p1367
sVcharge
p1368
F0
sVtag
p1369
I0
sVposition
p1370
(lp1371
F2.6362762521836567
aF9.2210799193389974
aF16.147192044624898
asVmomentum
p1372
(lp1373
F0
aF0
aF0
asa(dp1374
Vmagmom
p1375
F0
sVindex
p1376
I123
sVsymbol
p1377
VCu
p1378
sVcharge
p1379
F0
sVtag
p1380
I0
sVposition
p1381
(lp1382
F2.6362762521836567
aF35.046144279342258
aF16.147192044624902
asVmomentum
p1383
(lp1384
F0
aF0
aF0
asa(dp1385
Vmagmom
p1386
F0
sVindex
p1387
I124
sVsymbol
p1388
VCu
p1389
sVcharge
p1390
F0
sVtag
p1391
I0
sVposition
p1392
(lp1393
F5.2725525043673116
aF31.359896285649452
aF16.147192044624902
asVmomentum
p1394
(lp1395
F0
aF0
aF0
asa(dp1396
Vmagmom
p1397
F0
sVindex
p1398
I125
sVsymbol
p1399
VCu
p1400
sVcharge
p1401
F0
sVtag
p1402
I0
sVposition
p1403
(lp1404
F5.2725525043673134
aF5.5348319256461949
aF16.147192044624898
asVmomentum
p1405
(lp1406
F0
aF0
aF0
asa(dp1407
Vmagmom
p1408
F0
sVindex
p1409
I126
sVsymbol
p1410
VCu
p1411
sVcharge
p1412
F0
sVtag
p1413
I0
sVposition
p1414
(lp1415
F2.6362762521836576
aF5.5348319256461949
aF18.783468296808557
asVmomentum
p1416
(lp1417
F0
aF0
aF0
asa(dp1418
Vmagmom
p1419
F0
sVindex
p1420
I127
sVsymbol
p1421
VCu
p1422
sVcharge
p1423
F0
sVtag
p1424
I0
sVposition
p1425
(lp1426
F2.636276252183654
aF31.359896285649452
aF18.783468296808561
asVmomentum
p1427
(lp1428
F0
aF0
aF0
asa(dp1429
Vmagmom
p1430
F0
sVindex
p1431
I128
sVsymbol
p1432
VCu
p1433
sVcharge
p1434
F0
sVtag
p1435
I0
sVposition
p1436
(lp1437
F3.9544143782754864
aF44.27141922213589
aF17.465330170716733
asVmomentum
p1438
(lp1439
F0
aF0
aF0
asa(dp1440
Vmagmom
p1441
F0
sVindex
p1442
I129
sVsymbol
p1443
VCu
p1444
sVcharge
p1445
F0
sVtag
p1446
I0
sVposition
p1447
(lp1448
F3.9544143782754855
aF18.446354862132637
aF17.465330170716722
asVmomentum
p1449
(lp1450
F0
aF0
aF0
asa(dp1451
Vmagmom
p1452
F0
sVindex
p1453
I130
sVsymbol
p1454
VCu
p1455
sVcharge
p1456
F0
sVtag
p1457
I0
sVposition
p1458
(lp1459
F1.3181381260918279
aF18.44635486213264
aF20.101606422900382
asVmomentum
p1460
(lp1461
F0
aF0
aF0
asa(dp1462
Vmagmom
p1463
F0
sVindex
p1464
I131
sVsymbol
p1465
VCu
p1466
sVcharge
p1467
F0
sVtag
p1468
I0
sVposition
p1469
(lp1470
F6.5906906304591422
aF44.27141922213589
aF14.829053918533074
asVmomentum
p1471
(lp1472
F0
aF0
aF0
asa(dp1473
Vmagmom
p1474
F0
sVindex
p1475
I132
sVsymbol
p1476
VCu
p1477
sVcharge
p1478
F0
sVtag
p1479
I0
sVposition
p1480
(lp1481
F6.5906906304591422
aF33.203773857873877
aF17.465330170716729
asVmomentum
p1482
(lp1483
F0
aF0
aF0
asa(dp1484
Vmagmom
p1485
F0
sVindex
p1486
I133
sVsymbol
p1487
VCu
p1488
sVcharge
p1489
F0
sVtag
p1490
I0
sVposition
p1491
(lp1492
F1.3181381260918279
aF7.3787094978706218
aF17.465330170716726
asVmomentum
p1493
(lp1494
F0
aF0
aF0
asa(dp1495
Vmagmom
p1496
F0
sVindex
p1497
I134
sVsymbol
p1498
VCu
p1499
sVcharge
p1500
F0
sVtag
p1501
I0
sVposition
p1502
(lp1503
F3.9544143782754837
aF7.3787094978706218
aF20.101606422900385
asVmomentum
p1504
(lp1505
F0
aF0
aF0
asa(dp1506
Vmagmom
p1507
F0
sVindex
p1508
I135
sVsymbol
p1509
VCu
p1510
sVcharge
p1511
F0
sVtag
p1512
I0
sVposition
p1513
(lp1514
F3.9544143782754837
aF33.203773857873877
aF14.829053918533074
asVmomentum
p1515
(lp1516
F0
aF0
aF0
asa(dp1517
Vmagmom
p1518
F0
sVindex
p1519
I136
sVsymbol
p1520
VCu
p1521
sVcharge
p1522
F0
sVtag
p1523
I0
sVposition
p1524
(lp1525
F3.9544143782754846
aF29.515446429998804
aF17.465330170716729
asVmomentum
p1526
(lp1527
F0
aF0
aF0
asa(dp1528
Vmagmom
p1529
F0
sVindex
p1530
I137
sVsymbol
p1531
VCu
p1532
sVcharge
p1533
F0
sVtag
p1534
I0
sVposition
p1535
(lp1536
F3.9544143782754855
aF3.6903820699955454
aF17.465330170716729
asVmomentum
p1537
(lp1538
F0
aF0
aF0
asa(dp1539
Vmagmom
p1540
F0
sVindex
p1541
I138
sVsymbol
p1542
VCu
p1543
sVcharge
p1544
F0
sVtag
p1545
I0
sVposition
p1546
(lp1547
F1.3181381260918261
aF3.6903820699955454
aF20.101606422900382
asVmomentum
p1548
(lp1549
F0
aF0
aF0
asa(dp1550
Vmagmom
p1551
F0
sVindex
p1552
I139
sVsymbol
p1553
VCu
p1554
sVcharge
p1555
F0
sVtag
p1556
I0
sVposition
p1557
(lp1558
F6.5906906304591431
aF29.515446429998804
aF14.829053918533072
asVmomentum
p1559
(lp1560
F0
aF0
aF0
asa(dp1561
Vmagmom
p1562
F0
sVindex
p1563
I140
sVsymbol
p1564
VCu
p1565
sVcharge
p1566
F0
sVtag
p1567
I0
sVposition
p1568
(lp1569
F5.2725525043673116
aF49.807021767702594
aF16.147192044624902
asVmomentum
p1570
(lp1571
F0
aF0
aF0
asa(dp1572
Vmagmom
p1573
F0
sVindex
p1574
I141
sVsymbol
p1575
VCu
p1576
sVcharge
p1577
F0
sVtag
p1578
I0
sVposition
p1579
(lp1580
F5.2725525043673134
aF23.98195740769934
aF16.147192044624902
asVmomentum
p1581
(lp1582
F0
aF0
aF0
asa(dp1583
Vmagmom
p1584
F0
sVindex
p1585
I142
sVsymbol
p1586
VCu
p1587
sVcharge
p1588
F0
sVtag
p1589
I0
sVposition
p1590
(lp1591
F2.6362762521836576
aF23.98195740769934
aF18.783468296808561
asVmomentum
p1592
(lp1593
F0
aF0
aF0
asa(dp1594
Vmagmom
p1595
F0
sVindex
p1596
I143
sVsymbol
p1597
VCu
p1598
sVcharge
p1599
F0
sVtag
p1600
I0
sVposition
p1601
(lp1602
F2.6362762521836567
aF49.807021767702594
aF13.510915792441248
asVmomentum
p1603
(lp1604
F0
aF0
aF0
asa(dp1605
Vmagmom
p1606
F0
sVindex
p1607
I144
sVsymbol
p1608
VCu
p1609
sVcharge
p1610
F0
sVtag
p1611
I0
sVposition
p1612
(lp1613
F3.9544143782754864
aF36.893108205008346
aF17.465330170716733
asVmomentum
p1614
(lp1615
F0
aF0
aF0
asa(dp1616
Vmagmom
p1617
F0
sVindex
p1618
I145
sVsymbol
p1619
VCu
p1620
sVcharge
p1621
F0
sVtag
p1622
I0
sVposition
p1623
(lp1624
F3.9544143782754846
aF11.068043845005093
aF17.465330170716726
asVmomentum
p1625
(lp1626
F0
aF0
aF0
asa(dp1627
Vmagmom
p1628
F0
sVindex
p1629
I146
sVsymbol
p1630
VCu
p1631
sVcharge
p1632
F0
sVtag
p1633
I0
sVposition
p1634
(lp1635
F1.3181381260918297
aF11.068043845005093
aF20.101606422900382
asVmomentum
p1636
(lp1637
F0
aF0
aF0
asa(dp1638
Vmagmom
p1639
F0
sVindex
p1640
I147
sVsymbol
p1641
VCu
p1642
sVcharge
p1643
F0
sVtag
p1644
I0
sVposition
p1645
(lp1646
F6.5906906304591422
aF36.893108205008346
aF14.829053918533074
asVmomentum
p1647
(lp1648
F0
aF0
aF0
asa(dp1649
Vmagmom
p1650
F0
sVindex
p1651
I148
sVsymbol
p1652
VCu
p1653
sVcharge
p1654
F0
sVtag
p1655
I0
sVposition
p1656
(lp1657
F6.5906906304591413
aF47.95974665001097
aF17.465330170716729
asVmomentum
p1658
(lp1659
F0
aF0
aF0
asa(dp1660
Vmagmom
p1661
F0
sVindex
p1662
I149
sVsymbol
p1663
VCu
p1664
sVcharge
p1665
F0
sVtag
p1666
I0
sVposition
p1667
(lp1668
F1.3181381260918279
aF22.13468229000771
aF17.465330170716729
asVmomentum
p1669
(lp1670
F0
aF0
aF0
asa(dp1671
Vmagmom
p1672
F0
sVindex
p1673
I150
sVsymbol
p1674
VCu
p1675
sVcharge
p1676
F0
sVtag
p1677
I0
sVposition
p1678
(lp1679
F3.9544143782754855
aF22.13468229000771
aF14.829053918533072
asVmomentum
p1680
(lp1681
F0
aF0
aF0
asa(dp1682
Vmagmom
p1683
F0
sVindex
p1684
I151
sVsymbol
p1685
VCu
p1686
sVcharge
p1687
F0
sVtag
p1688
I0
sVposition
p1689
(lp1690
F3.9544143782754846
aF47.95974665001097
aF14.829053918533074
asVmomentum
p1691
(lp1692
F0
aF0
aF0
asa(dp1693
Vmagmom
p1694
F0
sVindex
p1695
I152
sVsymbol
p1696
VCu
p1697
sVcharge
p1698
F0
sVtag
p1699
I0
sVposition
p1700
(lp1701
F6.5906906304591404
aF40.582084875001421
aF17.465330170716729
asVmomentum
p1702
(lp1703
F0
aF0
aF0
asa(dp1704
Vmagmom
p1705
F0
sVindex
p1706
I153
sVsymbol
p1707
VCu
p1708
sVcharge
p1709
F0
sVtag
p1710
I0
sVposition
p1711
(lp1712
F1.3181381260918279
aF14.757020514998164
aF17.465330170716729
asVmomentum
p1713
(lp1714
F0
aF0
aF0
asa(dp1715
Vmagmom
p1716
F0
sVindex
p1717
I154
sVsymbol
p1718
VCu
p1719
sVcharge
p1720
F0
sVtag
p1721
I0
sVposition
p1722
(lp1723
F3.9544143782754855
aF14.757020514998164
aF20.101606422900382
asVmomentum
p1724
(lp1725
F0
aF0
aF0
asa(dp1726
Vmagmom
p1727
F0
sVindex
p1728
I155
sVsymbol
p1729
VCu
p1730
sVcharge
p1731
F0
sVtag
p1732
I0
sVposition
p1733
(lp1734
F3.9544143782754846
aF40.582084875001421
aF14.829053918533074
asVmomentum
p1735
(lp1736
F0
aF0
aF0
asa(dp1737
Vmagmom
p1738
F0
sVindex
p1739
I156
sVsymbol
p1740
VCu
p1741
sVcharge
p1742
F0
sVtag
p1743
I0
sVposition
p1744
(lp1745
F3.9544143782754855
aF33.203773857873877
aF17.465330170716726
asVmomentum
p1746
(lp1747
F0
aF0
aF0
asa(dp1748
Vmagmom
p1749
F0
sVindex
p1750
I157
sVsymbol
p1751
VCu
p1752
sVcharge
p1753
F0
sVtag
p1754
I0
sVposition
p1755
(lp1756
F3.9544143782754828
aF7.3787094978706218
aF17.465330170716726
asVmomentum
p1757
(lp1758
F0
aF0
aF0
asa(dp1759
Vmagmom
p1760
F0
sVindex
p1761
I158
sVsymbol
p1762
VCu
p1763
sVcharge
p1764
F0
sVtag
p1765
I0
sVposition
p1766
(lp1767
F1.3181381260918279
aF7.3787094978706218
aF20.101606422900385
asVmomentum
p1768
(lp1769
F0
aF0
aF0
asa(dp1770
Vmagmom
p1771
F0
sVindex
p1772
I159
sVsymbol
p1773
VCu
p1774
sVcharge
p1775
F0
sVtag
p1776
I0
sVposition
p1777
(lp1778
F6.5906906304591404
aF33.203773857873877
aF14.829053918533072
asVmomentum
p1779
(lp1780
F0
aF0
aF0
asa(dp1781
Vmagmom
p1782
F0
sVindex
p1783
I160
sVsymbol
p1784
VCu
p1785
sVcharge
p1786
F0
sVtag
p1787
I0
sVposition
p1788
(lp1789
F6.5906906304591413
aF29.515446429998804
aF17.465330170716729
asVmomentum
p1790
(lp1791
F0
aF0
aF0
asa(dp1792
Vmagmom
p1793
F0
sVindex
p1794
I161
sVsymbol
p1795
VCu
p1796
sVcharge
p1797
F0
sVtag
p1798
I0
sVposition
p1799
(lp1800
F1.3181381260918279
aF3.6903820699955454
aF17.465330170716729
asVmomentum
p1801
(lp1802
F0
aF0
aF0
asa(dp1803
Vmagmom
p1804
F0
sVindex
p1805
I162
sVsymbol
p1806
VCu
p1807
sVcharge
p1808
F0
sVtag
p1809
I0
sVposition
p1810
(lp1811
F3.9544143782754837
aF3.6903820699955454
aF20.101606422900385
asVmomentum
p1812
(lp1813
F0
aF0
aF0
asa(dp1814
Vmagmom
p1815
F0
sVindex
p1816
I163
sVsymbol
p1817
VCu
p1818
sVcharge
p1819
F0
sVtag
p1820
I0
sVposition
p1821
(lp1822
F3.9544143782754837
aF29.515446429998804
aF14.829053918533072
asVmomentum
p1823
(lp1824
F0
aF0
aF0
asa(dp1825
Vmagmom
p1826
F0
sVindex
p1827
I164
sVsymbol
p1828
VCu
p1829
sVcharge
p1830
F0
sVtag
p1831
I0
sVposition
p1832
(lp1833
F6.5906906304591448
aF36.893108205008346
aF17.465330170716733
asVmomentum
p1834
(lp1835
F0
aF0
aF0
asa(dp1836
Vmagmom
p1837
F0
sVindex
p1838
I165
sVsymbol
p1839
VCu
p1840
sVcharge
p1841
F0
sVtag
p1842
I0
sVposition
p1843
(lp1844
F1.3181381260918279
aF11.068043845005093
aF17.465330170716726
asVmomentum
p1845
(lp1846
F0
aF0
aF0
asa(dp1847
Vmagmom
p1848
F0
sVindex
p1849
I166
sVsymbol
p1850
VCu
p1851
sVcharge
p1852
F0
sVtag
p1853
I0
sVposition
p1854
(lp1855
F3.9544143782754855
aF11.068043845005093
aF20.101606422900382
asVmomentum
p1856
(lp1857
F0
aF0
aF0
asa(dp1858
Vmagmom
p1859
F0
sVindex
p1860
I167
sVsymbol
p1861
VCu
p1862
sVcharge
p1863
F0
sVtag
p1864
I0
sVposition
p1865
(lp1866
F3.9544143782754837
aF36.893108205008346
aF14.829053918533074
asVmomentum
p1867
(lp1868
F0
aF0
aF0
asa(dp1869
Vmagmom
p1870
F0
sVindex
p1871
I168
sVsymbol
p1872
VCu
p1873
sVcharge
p1874
F0
sVtag
p1875
I0
sVposition
p1876
(lp1877
F5.2725525043673125
aF42.429048800667516
aF18.783468296808561
asVmomentum
p1878
(lp1879
F0
aF0
aF0
asa(dp1880
Vmagmom
p1881
F0
sVindex
p1882
I169
sVsymbol
p1883
VCu
p1884
sVcharge
p1885
F0
sVtag
p1886
I0
sVposition
p1887
(lp1888
F5.2725525043673125
aF16.603984440664259
aF18.783468296808557
asVmomentum
p1889
(lp1890
F0
aF0
aF0
asa(dp1891
Vmagmom
p1892
F0
sVindex
p1893
I170
sVsymbol
p1894
VCu
p1895
sVcharge
p1896
F0
sVtag
p1897
I0
sVposition
p1898
(lp1899
F2.6362762521836549
aF16.603984440664259
aF16.147192044624902
asVmomentum
p1900
(lp1901
F0
aF0
aF0
asa(dp1902
Vmagmom
p1903
F0
sVindex
p1904
I171
sVsymbol
p1905
VCu
p1906
sVcharge
p1907
F0
sVtag
p1908
I0
sVposition
p1909
(lp1910
F2.6362762521836567
aF42.429048800667516
aF16.147192044624905
asVmomentum
p1911
(lp1912
F0
aF0
aF0
asa(dp1913
Vmagmom
p1914
F0
sVindex
p1915
I172
sVsymbol
p1916
VCu
p1917
sVcharge
p1918
F0
sVtag
p1919
I0
sVposition
p1920
(lp1921
F3.9544143782754846
aF40.582084875001421
aF17.465330170716729
asVmomentum
p1922
(lp1923
F0
aF0
aF0
asa(dp1924
Vmagmom
p1925
F0
sVindex
p1926
I173
sVsymbol
p1927
VCu
p1928
sVcharge
p1929
F0
sVtag
p1930
I0
sVposition
p1931
(lp1932
F3.9544143782754846
aF14.757020514998164
aF17.465330170716726
asVmomentum
p1933
(lp1934
F0
aF0
aF0
asa(dp1935
Vmagmom
p1936
F0
sVindex
p1937
I174
sVsymbol
p1938
VCu
p1939
sVcharge
p1940
F0
sVtag
p1941
I0
sVposition
p1942
(lp1943
F1.3181381260918279
aF14.757020514998164
aF20.101606422900385
asVmomentum
p1944
(lp1945
F0
aF0
aF0
asa(dp1946
Vmagmom
p1947
F0
sVindex
p1948
I175
sVsymbol
p1949
VCu
p1950
sVcharge
p1951
F0
sVtag
p1952
I0
sVposition
p1953
(lp1954
F6.5906906304591413
aF40.582084875001421
aF14.82905391853307
asVmomentum
p1955
(lp1956
F0
aF0
aF0
asa(dp1957
Vmagmom
p1958
F0
sVindex
p1959
I176
sVsymbol
p1960
VCu
p1961
sVcharge
p1962
F0
sVtag
p1963
I0
sVposition
p1964
(lp1965
F5.2725525043673143
aF46.115296794360319
aF16.147192044624905
asVmomentum
p1966
(lp1967
F0
aF0
aF0
asa(dp1968
Vmagmom
p1969
F0
sVindex
p1970
I177
sVsymbol
p1971
VCu
p1972
sVcharge
p1973
F0
sVtag
p1974
I0
sVposition
p1975
(lp1976
F5.2725525043673116
aF20.290232434357062
aF16.147192044624898
asVmomentum
p1977
(lp1978
F0
aF0
aF0
asa(dp1979
Vmagmom
p1980
F0
sVindex
p1981
I178
sVsymbol
p1982
VCu
p1983
sVcharge
p1984
F0
sVtag
p1985
I0
sVposition
p1986
(lp1987
F2.6362762521836576
aF20.290232434357062
aF18.783468296808557
asVmomentum
p1988
(lp1989
F0
aF0
aF0
asa(dp1990
Vmagmom
p1991
F0
sVindex
p1992
I179
sVsymbol
p1993
VCu
p1994
sVcharge
p1995
F0
sVtag
p1996
I0
sVposition
p1997
(lp1998
F2.6362762521836558
aF46.115296794360319
aF13.510915792441246
asVmomentum
p1999
(lp2000
F0
aF0
aF0
asa(dp2001
Vmagmom
p2002
F0
sVindex
p2003
I180
sVsymbol
p2004
VCu
p2005
sVcharge
p2006
F0
sVtag
p2007
I0
sVposition
p2008
(lp2009
F6.5906906304591413
aF44.27141922213589
aF17.465330170716729
asVmomentum
p2010
(lp2011
F0
aF0
aF0
asa(dp2012
Vmagmom
p2013
F0
sVindex
p2014
I181
sVsymbol
p2015
VCu
p2016
sVcharge
p2017
F0
sVtag
p2018
I0
sVposition
p2019
(lp2020
F1.3181381260918279
aF18.446354862132637
aF17.465330170716726
asVmomentum
p2021
(lp2022
F0
aF0
aF0
asa(dp2023
Vmagmom
p2024
F0
sVindex
p2025
I182
sVsymbol
p2026
VCu
p2027
sVcharge
p2028
F0
sVtag
p2029
I0
sVposition
p2030
(lp2031
F3.9544143782754855
aF18.44635486213264
aF20.101606422900382
asVmomentum
p2032
(lp2033
F0
aF0
aF0
asa(dp2034
Vmagmom
p2035
F0
sVindex
p2036
I183
sVsymbol
p2037
VCu
p2038
sVcharge
p2039
F0
sVtag
p2040
I0
sVposition
p2041
(lp2042
F3.9544143782754837
aF44.27141922213589
aF14.829053918533074
asVmomentum
p2043
(lp2044
F0
aF0
aF0
asa(dp2045
Vmagmom
p2046
F0
sVindex
p2047
I184
sVsymbol
p2048
VCu
p2049
sVcharge
p2050
F0
sVtag
p2051
I0
sVposition
p2052
(lp2053
F5.272552504367316
aF38.737596540004887
aF18.783468296808561
asVmomentum
p2054
(lp2055
F0
aF0
aF0
asa(dp2056
Vmagmom
p2057
F0
sVindex
p2058
I185
sVsymbol
p2059
VCu
p2060
sVcharge
p2061
F0
sVtag
p2062
I0
sVposition
p2063
(lp2064
F5.2725525043673143
aF12.912532180001628
aF18.783468296808554
asVmomentum
p2065
(lp2066
F0
aF0
aF0
asa(dp2067
Vmagmom
p2068
F0
sVindex
p2069
I186
sVsymbol
p2070
VCu
p2071
sVcharge
p2072
F0
sVtag
p2073
I0
sVposition
p2074
(lp2075
F2.6362762521836567
aF12.912532180001628
aF16.147192044624902
asVmomentum
p2076
(lp2077
F0
aF0
aF0
asa(dp2078
Vmagmom
p2079
F0
sVindex
p2080
I187
sVsymbol
p2081
VCu
p2082
sVcharge
p2083
F0
sVtag
p2084
I0
sVposition
p2085
(lp2086
F2.6362762521836567
aF38.737596540004887
aF16.147192044624905
asVmomentum
p2087
(lp2088
F0
aF0
aF0
asa(dp2089
Vmagmom
p2090
F0
sVindex
p2091
I188
sVsymbol
p2092
VCu
p2093
sVcharge
p2094
F0
sVtag
p2095
I0
sVposition
p2096
(lp2097
F1.3181381260918279
aF25.825064360003257
aF17.465330170716733
asVmomentum
p2098
(lp2099
F0
aF0
aF0
asa(dp2100
Vmagmom
p2101
F0
sVindex
p2102
I189
sVsymbol
p2103
VCu
p2104
sVcharge
p2105
F0
sVtag
p2106
I0
sVposition
p2107
(lp2108
F1.3181381260918279
aF1.9721522630525295e-31
aF17.465330170716726
asVmomentum
p2109
(lp2110
F0
aF0
aF0
asa(dp2111
Vmagmom
p2112
F0
sVindex
p2113
I190
sVsymbol
p2114
VCu
p2115
sVcharge
p2116
F0
sVtag
p2117
I0
sVposition
p2118
(lp2119
F3.9544143782754855
aF1.9721522630525295e-31
aF20.101606422900382
asVmomentum
p2120
(lp2121
F0
aF0
aF0
asa(dp2122
Vmagmom
p2123
F0
sVindex
p2124
I191
sVsymbol
p2125
VCu
p2126
sVcharge
p2127
F0
sVtag
p2128
I0
sVposition
p2129
(lp2130
F3.9544143782754855
aF25.825064360003257
aF14.829053918533072
asVmomentum
p2131
(lp2132
F0
aF0
aF0
asa(dp2133
Vmagmom
p2134
F0
sVindex
p2135
I192
sVsymbol
p2136
VCu
p2137
sVcharge
p2138
F0
sVtag
p2139
I0
sVposition
p2140
(lp2141
F3.9544143782754864
aF25.825064360003257
aF17.465330170716733
asVmomentum
p2142
(lp2143
F0
aF0
aF0
asa(dp2144
Vmagmom
p2145
F0
sVindex
p2146
I193
sVsymbol
p2147
VCu
p2148
sVcharge
p2149
F0
sVtag
p2150
I0
sVposition
p2151
(lp2152
F3.9544143782754846
aF0
aF17.465330170716726
asVmomentum
p2153
(lp2154
F0
aF0
aF0
asa(dp2155
Vmagmom
p2156
F0
sVindex
p2157
I194
sVsymbol
p2158
VCu
p2159
sVcharge
p2160
F0
sVtag
p2161
I0
sVposition
p2162
(lp2163
F1.3181381260918297
aF1.9721522630525295e-31
aF20.101606422900382
asVmomentum
p2164
(lp2165
F0
aF0
aF0
asa(dp2166
Vmagmom
p2167
F0
sVindex
p2168
I195
sVsymbol
p2169
VCu
p2170
sVcharge
p2171
F0
sVtag
p2172
I0
sVposition
p2173
(lp2174
F1.318138126091827
aF25.825064360003257
aF14.829053918533074
asVmomentum
p2175
(lp2176
F0
aF0
aF0
asa(dp2177
Vmagmom
p2178
F0
sVindex
p2179
I196
sVsymbol
p2180
VPd
p2181
sVcharge
p2182
F0
sVtag
p2183
I0
sVposition
p2184
(lp2185
F5.2725525043673134
aF42.429041569649499
aF16.147192044624902
asVmomentum
p2186
(lp2187
F0
aF0
aF0
asa(dp2188
Vmagmom
p2189
F0
sVindex
p2190
I197
sVsymbol
p2191
VPd
p2192
sVcharge
p2193
F0
sVtag
p2194
I0
sVposition
p2195
(lp2196
F5.2725525043673134
aF16.603977209646239
aF16.147192044624898
asVmomentum
p2197
(lp2198
F0
aF0
aF0
asa(dp2199
Vmagmom
p2200
F0
sVindex
p2201
I198
sVsymbol
p2202
VPd
p2203
sVcharge
p2204
F0
sVtag
p2205
I0
sVposition
p2206
(lp2207
F2.6362762521836558
aF16.603977209646239
aF18.783468296808557
asVmomentum
p2208
(lp2209
F0
aF0
aF0
asa(dp2210
Vmagmom
p2211
F0
sVindex
p2212
I199
sVsymbol
p2213
VPd
p2214
sVcharge
p2215
F0
sVtag
p2216
I0
sVposition
p2217
(lp2218
F2.6362762521836576
aF42.429041569649499
aF18.783468296808561
asVmomentum
p2219
(lp2220
F0
aF0
aF0
asa(dp2221
Vmagmom
p2222
F0
sVindex
p2223
I200
sVsymbol
p2224
VPd
p2225
sVcharge
p2226
F0
sVtag
p2227
I0
sVposition
p2228
(lp2229
F5.2725525043673125
aF27.671441798457732
aF18.783468296808561
asVmomentum
p2230
(lp2231
F0
aF0
aF0
asa(dp2232
Vmagmom
p2233
F0
sVindex
p2234
I201
sVsymbol
p2235
VPd
p2236
sVcharge
p2237
F0
sVtag
p2238
I0
sVposition
p2239
(lp2240
F5.2725525043673116
aF1.8463774384544756
aF18.783468296808557
asVmomentum
p2241
(lp2242
F0
aF0
aF0
asa(dp2243
Vmagmom
p2244
F0
sVindex
p2245
I202
sVsymbol
p2246
VPd
p2247
sVcharge
p2248
F0
sVtag
p2249
I0
sVposition
p2250
(lp2251
F2.6362762521836567
aF1.8463774384544756
aF16.147192044624898
asVmomentum
p2252
(lp2253
F0
aF0
aF0
asa(dp2254
Vmagmom
p2255
F0
sVindex
p2256
I203
sVsymbol
p2257
VPd
p2258
sVcharge
p2259
F0
sVtag
p2260
I0
sVposition
p2261
(lp2262
F2.6362762521836567
aF27.671441798457732
aF16.147192044624902
asVmomentum
p2263
(lp2264
F0
aF0
aF0
asa(dp2265
Vmagmom
p2266
F0
sVindex
p2267
I204
sVsymbol
p2268
VPd
p2269
sVcharge
p2270
F0
sVtag
p2271
I0
sVposition
p2272
(lp2273
F5.2725525043673143
aF35.046151510360275
aF16.147192044624905
asVmomentum
p2274
(lp2275
F0
aF0
aF0
asa(dp2276
Vmagmom
p2277
F0
sVindex
p2278
I205
sVsymbol
p2279
VPd
p2280
sVcharge
p2281
F0
sVtag
p2282
I0
sVposition
p2283
(lp2284
F5.2725525043673125
aF9.2210871503570164
aF16.147192044624894
asVmomentum
p2285
(lp2286
F0
aF0
aF0
asa(dp2287
Vmagmom
p2288
F0
sVindex
p2289
I206
sVsymbol
p2290
VPd
p2291
sVcharge
p2292
F0
sVtag
p2293
I0
sVposition
p2294
(lp2295
F2.6362762521836576
aF9.2210871503570164
aF18.783468296808557
asVmomentum
p2296
(lp2297
F0
aF0
aF0
asa(dp2298
Vmagmom
p2299
F0
sVindex
p2300
I207
sVsymbol
p2301
VPd
p2302
sVcharge
p2303
F0
sVtag
p2304
I0
sVposition
p2305
(lp2306
F2.6362762521836558
aF35.046151510360275
aF18.783468296808557
asVmomentum
p2307
(lp2308
F0
aF0
aF0
asa(dp2309
Vmagmom
p2310
F0
sVindex
p2311
I208
sVsymbol
p2312
VPd
p2313
sVcharge
p2314
F0
sVtag
p2315
I0
sVposition
p2316
(lp2317
F5.2725525043673152
aF31.361604871907517
aF18.783468296808557
asVmomentum
p2318
(lp2319
F0
aF0
aF0
asa(dp2320
Vmagmom
p2321
F0
sVindex
p2322
I209
sVsymbol
p2323
VPd
p2324
sVcharge
p2325
F0
sVtag
p2326
I0
sVposition
p2327
(lp2328
F5.2725525043673125
aF5.5365405119042563
aF18.783468296808557
asVmomentum
p2329
(lp2330
F0
aF0
aF0
asa(dp2331
Vmagmom
p2332
F0
sVindex
p2333
I210
sVsymbol
p2334
VPd
p2335
sVcharge
p2336
F0
sVtag
p2337
I0
sVposition
p2338
(lp2339
F2.6362762521836567
aF5.5365405119042563
aF16.147192044624898
asVmomentum
p2340
(lp2341
F0
aF0
aF0
asa(dp2342
Vmagmom
p2343
F0
sVindex
p2344
I211
sVsymbol
p2345
VPd
p2346
sVcharge
p2347
F0
sVtag
p2348
I0
sVposition
p2349
(lp2350
F2.6362762521836549
aF31.361604871907517
aF16.147192044624905
asVmomentum
p2351
(lp2352
F0
aF0
aF0
asa(dp2353
Vmagmom
p2354
F0
sVindex
p2355
I212
sVsymbol
p2356
VPd
p2357
sVcharge
p2358
F0
sVtag
p2359
I0
sVposition
p2360
(lp2361
F5.2725525043673152
aF38.737596540004887
aF16.147192044624905
asVmomentum
p2362
(lp2363
F0
aF0
aF0
asa(dp2364
Vmagmom
p2365
F0
sVindex
p2366
I213
sVsymbol
p2367
VPd
p2368
sVcharge
p2369
F0
sVtag
p2370
I0
sVposition
p2371
(lp2372
F5.2725525043673134
aF12.912532180001628
aF16.147192044624898
asVmomentum
p2373
(lp2374
F0
aF0
aF0
asa(dp2375
Vmagmom
p2376
F0
sVindex
p2377
I214
sVsymbol
p2378
VPd
p2379
sVcharge
p2380
F0
sVtag
p2381
I0
sVposition
p2382
(lp2383
F2.6362762521836576
aF12.912532180001628
aF18.783468296808557
asVmomentum
p2384
(lp2385
F0
aF0
aF0
asa(dp2386
Vmagmom
p2387
F0
sVindex
p2388
I215
sVsymbol
p2389
VPd
p2390
sVcharge
p2391
F0
sVtag
p2392
I0
sVposition
p2393
(lp2394
F2.6362762521836576
aF38.737596540004887
aF18.783468296808561
asVmomentum
p2395
(lp2396
F0
aF0
aF0
asa(dp2397
Vmagmom
p2398
F0
sVindex
p2399
I216
sVsymbol
p2400
VPd
p2401
sVcharge
p2402
F0
sVtag
p2403
I0
sVposition
p2404
(lp2405
F5.2725525043673125
aF49.803751281552039
aF13.510915792441246
asVmomentum
p2406
(lp2407
F0
aF0
aF0
asa(dp2408
Vmagmom
p2409
F0
sVindex
p2410
I217
sVsymbol
p2411
VPd
p2412
sVcharge
p2413
F0
sVtag
p2414
I0
sVposition
p2415
(lp2416
F5.2725525043673125
aF23.978686921548782
aF18.783468296808561
asVmomentum
p2417
(lp2418
F0
aF0
aF0
asa(dp2419
Vmagmom
p2420
F0
sVindex
p2421
I218
sVsymbol
p2422
VPd
p2423
sVcharge
p2424
F0
sVtag
p2425
I0
sVposition
p2426
(lp2427
F2.6362762521836549
aF23.978686921548782
aF16.147192044624905
asVmomentum
p2428
(lp2429
F0
aF0
aF0
asa(dp2430
Vmagmom
p2431
F0
sVindex
p2432
I219
sVsymbol
p2433
VPd
p2434
sVcharge
p2435
F0
sVtag
p2436
I0
sVposition
p2437
(lp2438
F2.6362762521836567
aF49.803751281552039
aF16.147192044624902
asVmomentum
p2439
(lp2440
F0
aF0
aF0
asa(dp2441
Vmagmom
p2442
F0
sVindex
p2443
I220
sVsymbol
p2444
VPd
p2445
sVcharge
p2446
F0
sVtag
p2447
I0
sVposition
p2448
(lp2449
F5.2725525043673125
aF46.113588208102257
aF13.510915792441246
asVmomentum
p2450
(lp2451
F0
aF0
aF0
asa(dp2452
Vmagmom
p2453
F0
sVindex
p2454
I221
sVsymbol
p2455
VPd
p2456
sVcharge
p2457
F0
sVtag
p2458
I0
sVposition
p2459
(lp2460
F5.2725525043673143
aF20.288523848099
aF18.783468296808554
asVmomentum
p2461
(lp2462
F0
aF0
aF0
asa(dp2463
Vmagmom
p2464
F0
sVindex
p2465
I222
sVsymbol
p2466
VPd
p2467
sVcharge
p2468
F0
sVtag
p2469
I0
sVposition
p2470
(lp2471
F2.6362762521836576
aF20.288523848099
aF16.147192044624894
asVmomentum
p2472
(lp2473
F0
aF0
aF0
asa(dp2474
Vmagmom
p2475
F0
sVindex
p2476
I223
sVsymbol
p2477
VPd
p2478
sVcharge
p2479
F0
sVtag
p2480
I0
sVposition
p2481
(lp2482
F2.6362762521836567
aF46.113588208102257
aF16.147192044624905
asVmomentum
p2483
(lp2484
F0
aF0
aF0
asasVcell
p2485
(lp2486
(lp2487
F5.2725525043673134
aF-4.9303806576313238e-32
aF0
aa(lp2488
F2.6362762521836567
aF51.650128720006514
aF-2.6362762521836527
aa(lp2489
F2.3876654724424104e-47
aF0
aF31.635315026203884
aasVmass
p2490
F16635.248000000021
sVpbc
p2491
(lp2492
I01
aI01
aI01
asVspacegroup
p2493
VCm (8)
p2494
sVconstraints
p2495
(lp2496
(dp2497
Vname
p2498
VFixAtoms
p2499
sVkwargs
p2500
(dp2501
Vindices
p2502
(lp2503
I0
aI1
aI2
aI3
aI4
aI5
aI6
aI7
aI8
aI9
aI10
aI11
aI12
aI13
aI14
aI15
aI16
aI17
aI18
aI19
aI20
aI21
aI22
aI23
aI24
aI25
aI26
aI27
aI28
aI29
aI30
aI31
aI32
aI33
aI34
aI35
aI36
aI37
aI38
aI39
aI40
aI41
aI42
aI43
aI44
aI45
aI46
aI47
aI48
aI49
aI50
aI51
aI52
aI53
aI54
aI55
aI56
aI57
aI58
aI59
aI60
aI61
aI62
aI63
aI64
aI65
aI66
aI67
aI68
aI69
aI70
aI71
aI72
aI73
aI74
aI75
aI76
aI77
aI78
aI79
aI80
aI81
aI82
aI83
aI84
aI85
aI86
aI87
aI88
aI89
aI90
aI91
aI92
aI93
aI94
aI95
aI96
aI97
aI98
aI99
aI100
aI101
aI102
aI103
aI104
aI105
aI106
aI107
aI108
aI109
aI110
aI111
aI114
aI115
aI116
aI117
aI122
aI123
aI124
aI125
aI131
aI133
aI135
aI137
aI139
aI141
aI143
aI145
aI147
aI150
aI151
aI155
aI157
aI159
aI161
aI163
aI165
aI167
aI170
aI175
aI177
aI179
aI183
aI186
aI189
aI191
aI193
aI195
aI197
aI202
aI203
aI204
aI205
aI210
aI211
aI213
aI216
aI218
aI220
aI222
assasaa(lp2504
S'results'
p2505
ag2
((ltRp2506
aa(lp2507
S'user'
p2508
aS'ktran'
p2509
aa(lp2510
S'inserted-hash'
p2511
aS'37c94873a3cc505d87a198b9616b8e7bcfc0cfa8'
p2512
aa(lp2513
S'ctime'
p2514
acdatetime
datetime
p2515
(S'\x07\xe1\x03\x1f\x13+!\x00#\xfd'
tRp2516
aa(lp2517
S'mtime'
p2518
ag2515
(S"\x07\xe1\x03\x1f\x13+!\x00$'"
tRp2519
aa(lp2520
S'tags'
p2521
a(dp2522
S'get_slab_settings'
p2523
g2
((lp2524
(lp2525
S'max_broken_bonds'
p2526
aI0
aa(lp2527
S'bonds'
p2528
aNaa(lp2529
S'tol'
p2530
aF0.29999999999999999
aa(lp2531
S'symmetrize'
p2532
aI00
aatRp2533
sS'relaxed'
p2534
I00
sS'mpid'
p2535
Vmp-672265
p2536
sS'shift'
p2537
I0
sS'slab_generate_settings'
p2538
g2
((lp2539
(lp2540
S'primitive'
p2541
aI01
aa(lp2542
S'min_vacuum_size'
p2543
aF20
aa(lp2544
S'lll_reduce'
p2545
aI00
aa(lp2546
S'max_normal_search'
p2547
aI1
aa(lp2548
S'min_slab_size'
p2549
aF7
aa(lp2550
S'center_slab'
p2551
aI01
aatRp2552
sS'miller'
p2553
(I2
I2
I1
tp2554
sS'top'
p2555
I01
sS'type'
p2556
S'slab'
p2557
sS'num_slab_atoms'
p2558
I224
saatRp2559
ag2
((lp2560
(lp2561
g5
a(dp2562
Vinfo
p2563
(dp2564
sVvolume
p2565
F8615.1825618652601
sVnatoms
p2566
I224
sVsymbol_counts
p2567
(dp2568
VCu
p2569
I168
sVPd
p2570
I56
ssVchemical_symbols
p2571
(lp2572
VPd
p2573
aVCu
p2574
asVatoms
p2575
(lp2576
(dp2577
Vmagmom
p2578
F0
sVindex
p2579
I0
sVsymbol
p2580
VCu
p2581
sVcharge
p2582
F0
sVtag
p2583
I0
sVposition
p2584
(lp2585
F3.9544143782754864
aF-47.95974665001097
aF-12.192777666349413
asVmomentum
p2586
(lp2587
F0
aF0
aF0
asa(dp2588
Vmagmom
p2589
F0
sVindex
p2590
I1
sVsymbol
p2591
VCu
p2592
sVcharge
p2593
F0
sVtag
p2594
I0
sVposition
p2595
(lp2596
F3.9544143782754837
aF-22.13468229000771
aF-12.192777666349413
asVmomentum
p2597
(lp2598
F0
aF0
aF0
asa(dp2599
Vmagmom
p2600
F0
sVindex
p2601
I2
sVsymbol
p2602
VCu
p2603
sVcharge
p2604
F0
sVtag
p2605
I0
sVposition
p2606
(lp2607
F1.3181381260918279
aF-22.13468229000771
aF-9.5565014141657549
asVmomentum
p2608
(lp2609
F0
aF0
aF0
asa(dp2610
Vmagmom
p2611
F0
sVindex
p2612
I3
sVsymbol
p2613
VCu
p2614
sVcharge
p2615
F0
sVtag
p2616
I0
sVposition
p2617
(lp2618
F6.5906906304591422
aF-47.95974665001097
aF-9.5565014141657549
asVmomentum
p2619
(lp2620
F0
aF0
aF0
asa(dp2621
Vmagmom
p2622
F0
sVindex
p2623
I4
sVsymbol
p2624
VCu
p2625
sVcharge
p2626
F0
sVtag
p2627
I0
sVposition
p2628
(lp2629
F5.2725525043673134
aF-27.668171312307177
aF-10.874639540257583
asVmomentum
p2630
(lp2631
F0
aF0
aF0
asa(dp2632
Vmagmom
p2633
F0
sVindex
p2634
I5
sVsymbol
p2635
VCu
p2636
sVcharge
p2637
F0
sVtag
p2638
I0
sVposition
p2639
(lp2640
F5.2725525043673134
aF-1.8431069523039185
aF-10.874639540257585
asVmomentum
p2641
(lp2642
F0
aF0
aF0
asa(dp2643
Vmagmom
p2644
F0
sVindex
p2645
I6
sVsymbol
p2646
VCu
p2647
sVcharge
p2648
F0
sVtag
p2649
I0
sVposition
p2650
(lp2651
F2.6362762521836558
aF-1.8431069523039187
aF-13.510915792441242
asVmomentum
p2652
(lp2653
F0
aF0
aF0
asa(dp2654
Vmagmom
p2655
F0
sVindex
p2656
I7
sVsymbol
p2657
VCu
p2658
sVcharge
p2659
F0
sVtag
p2660
I0
sVposition
p2661
(lp2662
F2.6362762521836558
aF-27.668171312307177
aF-13.51091579244124
asVmomentum
p2663
(lp2664
F0
aF0
aF0
asa(dp2665
Vmagmom
p2666
F0
sVindex
p2667
I8
sVsymbol
p2668
VCu
p2669
sVcharge
p2670
F0
sVtag
p2671
I0
sVposition
p2672
(lp2673
F5.2725525043673134
aF-35.046144279342258
aF-13.510915792441242
asVmomentum
p2674
(lp2675
F0
aF0
aF0
asa(dp2676
Vmagmom
p2677
F0
sVindex
p2678
I9
sVsymbol
p2679
VCu
p2680
sVcharge
p2681
F0
sVtag
p2682
I0
sVposition
p2683
(lp2684
F5.2725525043673143
aF-9.2210799193389992
aF-13.51091579244124
asVmomentum
p2685
(lp2686
F0
aF0
aF0
asa(dp2687
Vmagmom
p2688
F0
sVindex
p2689
I10
sVsymbol
p2690
VCu
p2691
sVcharge
p2692
F0
sVtag
p2693
I0
sVposition
p2694
(lp2695
F2.6362762521836585
aF-9.2210799193389992
aF-10.874639540257583
asVmomentum
p2696
(lp2697
F0
aF0
aF0
asa(dp2698
Vmagmom
p2699
F0
sVindex
p2700
I11
sVsymbol
p2701
VCu
p2702
sVcharge
p2703
F0
sVtag
p2704
I0
sVposition
p2705
(lp2706
F2.6362762521836585
aF-35.046144279342258
aF-10.874639540257585
asVmomentum
p2707
(lp2708
F0
aF0
aF0
asa(dp2709
Vmagmom
p2710
F0
sVindex
p2711
I12
sVsymbol
p2712
VCu
p2713
sVcharge
p2714
F0
sVtag
p2715
I0
sVposition
p2716
(lp2717
F5.2725525043673134
aF-31.359896285649452
aF-10.874639540257586
asVmomentum
p2718
(lp2719
F0
aF0
aF0
asa(dp2720
Vmagmom
p2721
F0
sVindex
p2722
I13
sVsymbol
p2723
VCu
p2724
sVcharge
p2725
F0
sVtag
p2726
I0
sVposition
p2727
(lp2728
F5.2725525043673134
aF-5.5348319256461957
aF-10.874639540257585
asVmomentum
p2729
(lp2730
F0
aF0
aF0
asa(dp2731
Vmagmom
p2732
F0
sVindex
p2733
I14
sVsymbol
p2734
VCu
p2735
sVcharge
p2736
F0
sVtag
p2737
I0
sVposition
p2738
(lp2739
F2.6362762521836558
aF-5.5348319256461966
aF-13.510915792441242
asVmomentum
p2740
(lp2741
F0
aF0
aF0
asa(dp2742
Vmagmom
p2743
F0
sVindex
p2744
I15
sVsymbol
p2745
VCu
p2746
sVcharge
p2747
F0
sVtag
p2748
I0
sVposition
p2749
(lp2750
F2.6362762521836558
aF-31.359896285649452
aF-13.510915792441242
asVmomentum
p2751
(lp2752
F0
aF0
aF0
asa(dp2753
Vmagmom
p2754
F0
sVindex
p2755
I16
sVsymbol
p2756
VCu
p2757
sVcharge
p2758
F0
sVtag
p2759
I0
sVposition
p2760
(lp2761
F3.9544143782754846
aF-44.27141922213589
aF-12.192777666349413
asVmomentum
p2762
(lp2763
F0
aF0
aF0
asa(dp2764
Vmagmom
p2765
F0
sVindex
p2766
I17
sVsymbol
p2767
VCu
p2768
sVcharge
p2769
F0
sVtag
p2770
I0
sVposition
p2771
(lp2772
F3.9544143782754846
aF-18.446354862132637
aF-12.192777666349414
asVmomentum
p2773
(lp2774
F0
aF0
aF0
asa(dp2775
Vmagmom
p2776
F0
sVindex
p2777
I18
sVsymbol
p2778
VCu
p2779
sVcharge
p2780
F0
sVtag
p2781
I0
sVposition
p2782
(lp2783
F1.318138126091827
aF-18.44635486213264
aF-14.829053918533072
asVmomentum
p2784
(lp2785
F0
aF0
aF0
asa(dp2786
Vmagmom
p2787
F0
sVindex
p2788
I19
sVsymbol
p2789
VCu
p2790
sVcharge
p2791
F0
sVtag
p2792
I0
sVposition
p2793
(lp2794
F6.5906906304591413
aF-44.27141922213589
aF-9.5565014141657549
asVmomentum
p2795
(lp2796
F0
aF0
aF0
asa(dp2797
Vmagmom
p2798
F0
sVindex
p2799
I20
sVsymbol
p2800
VCu
p2801
sVcharge
p2802
F0
sVtag
p2803
I0
sVposition
p2804
(lp2805
F6.5906906304591422
aF-33.203773857873877
aF-12.192777666349414
asVmomentum
p2806
(lp2807
F0
aF0
aF0
asa(dp2808
Vmagmom
p2809
F0
sVindex
p2810
I21
sVsymbol
p2811
VCu
p2812
sVcharge
p2813
F0
sVtag
p2814
I0
sVposition
p2815
(lp2816
F1.318138126091827
aF-7.3787094978706236
aF-12.192777666349413
asVmomentum
p2817
(lp2818
F0
aF0
aF0
asa(dp2819
Vmagmom
p2820
F0
sVindex
p2821
I22
sVsymbol
p2822
VCu
p2823
sVcharge
p2824
F0
sVtag
p2825
I0
sVposition
p2826
(lp2827
F3.9544143782754855
aF-7.3787094978706236
aF-14.829053918533068
asVmomentum
p2828
(lp2829
F0
aF0
aF0
asa(dp2830
Vmagmom
p2831
F0
sVindex
p2832
I23
sVsymbol
p2833
VCu
p2834
sVcharge
p2835
F0
sVtag
p2836
I0
sVposition
p2837
(lp2838
F3.9544143782754846
aF-33.203773857873877
aF-9.5565014141657549
asVmomentum
p2839
(lp2840
F0
aF0
aF0
asa(dp2841
Vmagmom
p2842
F0
sVindex
p2843
I24
sVsymbol
p2844
VCu
p2845
sVcharge
p2846
F0
sVtag
p2847
I0
sVposition
p2848
(lp2849
F3.9544143782754846
aF-29.515446429998804
aF-12.192777666349413
asVmomentum
p2850
(lp2851
F0
aF0
aF0
asa(dp2852
Vmagmom
p2853
F0
sVindex
p2854
I25
sVsymbol
p2855
VCu
p2856
sVcharge
p2857
F0
sVtag
p2858
I0
sVposition
p2859
(lp2860
F3.9544143782754837
aF-3.6903820699955467
aF-12.192777666349414
asVmomentum
p2861
(lp2862
F0
aF0
aF0
asa(dp2863
Vmagmom
p2864
F0
sVindex
p2865
I26
sVsymbol
p2866
VCu
p2867
sVcharge
p2868
F0
sVtag
p2869
I0
sVposition
p2870
(lp2871
F1.318138126091827
aF-3.6903820699955472
aF-14.829053918533072
asVmomentum
p2872
(lp2873
F0
aF0
aF0
asa(dp2874
Vmagmom
p2875
F0
sVindex
p2876
I27
sVsymbol
p2877
VCu
p2878
sVcharge
p2879
F0
sVtag
p2880
I0
sVposition
p2881
(lp2882
F6.5906906304591413
aF-29.515446429998804
aF-9.5565014141657549
asVmomentum
p2883
(lp2884
F0
aF0
aF0
asa(dp2885
Vmagmom
p2886
F0
sVindex
p2887
I28
sVsymbol
p2888
VCu
p2889
sVcharge
p2890
F0
sVtag
p2891
I0
sVposition
p2892
(lp2893
F5.2725525043673125
aF-49.807021767702594
aF-10.874639540257585
asVmomentum
p2894
(lp2895
F0
aF0
aF0
asa(dp2896
Vmagmom
p2897
F0
sVindex
p2898
I29
sVsymbol
p2899
VCu
p2900
sVcharge
p2901
F0
sVtag
p2902
I0
sVposition
p2903
(lp2904
F5.2725525043673134
aF-23.98195740769934
aF-10.874639540257585
asVmomentum
p2905
(lp2906
F0
aF0
aF0
asa(dp2907
Vmagmom
p2908
F0
sVindex
p2909
I30
sVsymbol
p2910
VCu
p2911
sVcharge
p2912
F0
sVtag
p2913
I0
sVposition
p2914
(lp2915
F2.6362762521836567
aF-23.98195740769934
aF-13.51091579244124
asVmomentum
p2916
(lp2917
F0
aF0
aF0
asa(dp2918
Vmagmom
p2919
F0
sVindex
p2920
I31
sVsymbol
p2921
VCu
p2922
sVcharge
p2923
F0
sVtag
p2924
I0
sVposition
p2925
(lp2926
F2.6362762521836571
aF-49.807021767702594
aF-8.2383632880739253
asVmomentum
p2927
(lp2928
F0
aF0
aF0
asa(dp2929
Vmagmom
p2930
F0
sVindex
p2931
I32
sVsymbol
p2932
VCu
p2933
sVcharge
p2934
F0
sVtag
p2935
I0
sVposition
p2936
(lp2937
F3.9544143782754873
aF-36.893108205008346
aF-12.192777666349413
asVmomentum
p2938
(lp2939
F0
aF0
aF0
asa(dp2940
Vmagmom
p2941
F0
sVindex
p2942
I33
sVsymbol
p2943
VCu
p2944
sVcharge
p2945
F0
sVtag
p2946
I0
sVposition
p2947
(lp2948
F3.9544143782754855
aF-11.068043845005095
aF-12.192777666349414
asVmomentum
p2949
(lp2950
F0
aF0
aF0
asa(dp2951
Vmagmom
p2952
F0
sVindex
p2953
I34
sVsymbol
p2954
VCu
p2955
sVcharge
p2956
F0
sVtag
p2957
I0
sVposition
p2958
(lp2959
F1.3181381260918288
aF-11.068043845005095
aF-14.829053918533072
asVmomentum
p2960
(lp2961
F0
aF0
aF0
asa(dp2962
Vmagmom
p2963
F0
sVindex
p2964
I35
sVsymbol
p2965
VCu
p2966
sVcharge
p2967
F0
sVtag
p2968
I0
sVposition
p2969
(lp2970
F6.5906906304591431
aF-36.893108205008346
aF-9.5565014141657532
asVmomentum
p2971
(lp2972
F0
aF0
aF0
asa(dp2973
Vmagmom
p2974
F0
sVindex
p2975
I36
sVsymbol
p2976
VCu
p2977
sVcharge
p2978
F0
sVtag
p2979
I0
sVposition
p2980
(lp2981
F6.5906906304591431
aF-47.95974665001097
aF-12.192777666349413
asVmomentum
p2982
(lp2983
F0
aF0
aF0
asa(dp2984
Vmagmom
p2985
F0
sVindex
p2986
I37
sVsymbol
p2987
VCu
p2988
sVcharge
p2989
F0
sVtag
p2990
I0
sVposition
p2991
(lp2992
F1.318138126091827
aF-22.13468229000771
aF-12.192777666349413
asVmomentum
p2993
(lp2994
F0
aF0
aF0
asa(dp2995
Vmagmom
p2996
F0
sVindex
p2997
I38
sVsymbol
p2998
VCu
p2999
sVcharge
p3000
F0
sVtag
p3001
I0
sVposition
p3002
(lp3003
F3.9544143782754841
aF-22.13468229000771
aF-9.5565014141657532
asVmomentum
p3004
(lp3005
F0
aF0
aF0
asa(dp3006
Vmagmom
p3007
F0
sVindex
p3008
I39
sVsymbol
p3009
VCu
p3010
sVcharge
p3011
F0
sVtag
p3012
I0
sVposition
p3013
(lp3014
F3.9544143782754868
aF-47.95974665001097
aF-9.5565014141657532
asVmomentum
p3015
(lp3016
F0
aF0
aF0
asa(dp3017
Vmagmom
p3018
F0
sVindex
p3019
I40
sVsymbol
p3020
VCu
p3021
sVcharge
p3022
F0
sVtag
p3023
I0
sVposition
p3024
(lp3025
F6.5906906304591413
aF-40.582084875001421
aF-12.192777666349413
asVmomentum
p3026
(lp3027
F0
aF0
aF0
asa(dp3028
Vmagmom
p3029
F0
sVindex
p3030
I41
sVsymbol
p3031
VCu
p3032
sVcharge
p3033
F0
sVtag
p3034
I0
sVposition
p3035
(lp3036
F1.318138126091827
aF-14.757020514998166
aF-12.192777666349414
asVmomentum
p3037
(lp3038
F0
aF0
aF0
asa(dp3039
Vmagmom
p3040
F0
sVindex
p3041
I42
sVsymbol
p3042
VCu
p3043
sVcharge
p3044
F0
sVtag
p3045
I0
sVposition
p3046
(lp3047
F3.9544143782754855
aF-14.757020514998166
aF-14.82905391853307
asVmomentum
p3048
(lp3049
F0
aF0
aF0
asa(dp3050
Vmagmom
p3051
F0
sVindex
p3052
I43
sVsymbol
p3053
VCu
p3054
sVcharge
p3055
F0
sVtag
p3056
I0
sVposition
p3057
(lp3058
F3.9544143782754855
aF-40.582084875001421
aF-9.5565014141657549
asVmomentum
p3059
(lp3060
F0
aF0
aF0
asa(dp3061
Vmagmom
p3062
F0
sVindex
p3063
I44
sVsymbol
p3064
VCu
p3065
sVcharge
p3066
F0
sVtag
p3067
I0
sVposition
p3068
(lp3069
F3.9544143782754846
aF-33.203773857873877
aF-12.192777666349414
asVmomentum
p3070
(lp3071
F0
aF0
aF0
asa(dp3072
Vmagmom
p3073
F0
sVindex
p3074
I45
sVsymbol
p3075
VCu
p3076
sVcharge
p3077
F0
sVtag
p3078
I0
sVposition
p3079
(lp3080
F3.9544143782754846
aF-7.3787094978706236
aF-12.192777666349413
asVmomentum
p3081
(lp3082
F0
aF0
aF0
asa(dp3083
Vmagmom
p3084
F0
sVindex
p3085
I46
sVsymbol
p3086
VCu
p3087
sVcharge
p3088
F0
sVtag
p3089
I0
sVposition
p3090
(lp3091
F1.318138126091827
aF-7.3787094978706236
aF-14.82905391853307
asVmomentum
p3092
(lp3093
F0
aF0
aF0
asa(dp3094
Vmagmom
p3095
F0
sVindex
p3096
I47
sVsymbol
p3097
VCu
p3098
sVcharge
p3099
F0
sVtag
p3100
I0
sVposition
p3101
(lp3102
F6.5906906304591413
aF-33.203773857873877
aF-9.5565014141657567
asVmomentum
p3103
(lp3104
F0
aF0
aF0
asa(dp3105
Vmagmom
p3106
F0
sVindex
p3107
I48
sVsymbol
p3108
VCu
p3109
sVcharge
p3110
F0
sVtag
p3111
I0
sVposition
p3112
(lp3113
F6.5906906304591431
aF-29.515446429998804
aF-12.192777666349413
asVmomentum
p3114
(lp3115
F0
aF0
aF0
asa(dp3116
Vmagmom
p3117
F0
sVindex
p3118
I49
sVsymbol
p3119
VCu
p3120
sVcharge
p3121
F0
sVtag
p3122
I0
sVposition
p3123
(lp3124
F1.318138126091827
aF-3.6903820699955467
aF-12.192777666349414
asVmomentum
p3125
(lp3126
F0
aF0
aF0
asa(dp3127
Vmagmom
p3128
F0
sVindex
p3129
I50
sVsymbol
p3130
VCu
p3131
sVcharge
p3132
F0
sVtag
p3133
I0
sVposition
p3134
(lp3135
F3.9544143782754855
aF-3.6903820699955472
aF-14.82905391853307
asVmomentum
p3136
(lp3137
F0
aF0
aF0
asa(dp3138
Vmagmom
p3139
F0
sVindex
p3140
I51
sVsymbol
p3141
VCu
p3142
sVcharge
p3143
F0
sVtag
p3144
I0
sVposition
p3145
(lp3146
F3.9544143782754855
aF-29.515446429998804
aF-9.5565014141657549
asVmomentum
p3147
(lp3148
F0
aF0
aF0
asa(dp3149
Vmagmom
p3150
F0
sVindex
p3151
I52
sVsymbol
p3152
VCu
p3153
sVcharge
p3154
F0
sVtag
p3155
I0
sVposition
p3156
(lp3157
F6.5906906304591431
aF-36.893108205008346
aF-12.192777666349411
asVmomentum
p3158
(lp3159
F0
aF0
aF0
asa(dp3160
Vmagmom
p3161
F0
sVindex
p3162
I53
sVsymbol
p3163
VCu
p3164
sVcharge
p3165
F0
sVtag
p3166
I0
sVposition
p3167
(lp3168
F1.3181381260918306
aF-11.068043845005095
aF-12.192777666349413
asVmomentum
p3169
(lp3170
F0
aF0
aF0
asa(dp3171
Vmagmom
p3172
F0
sVindex
p3173
I54
sVsymbol
p3174
VCu
p3175
sVcharge
p3176
F0
sVtag
p3177
I0
sVposition
p3178
(lp3179
F3.9544143782754846
aF-11.068043845005095
aF-14.829053918533072
asVmomentum
p3180
(lp3181
F0
aF0
aF0
asa(dp3182
Vmagmom
p3183
F0
sVindex
p3184
I55
sVsymbol
p3185
VCu
p3186
sVcharge
p3187
F0
sVtag
p3188
I0
sVposition
p3189
(lp3190
F3.9544143782754855
aF-36.893108205008346
aF-9.5565014141657532
asVmomentum
p3191
(lp3192
F0
aF0
aF0
asa(dp3193
Vmagmom
p3194
F0
sVindex
p3195
I56
sVsymbol
p3196
VCu
p3197
sVcharge
p3198
F0
sVtag
p3199
I0
sVposition
p3200
(lp3201
F5.2725525043673134
aF-42.429048800667516
aF-13.51091579244124
asVmomentum
p3202
(lp3203
F0
aF0
aF0
asa(dp3204
Vmagmom
p3205
F0
sVindex
p3206
I57
sVsymbol
p3207
VCu
p3208
sVcharge
p3209
F0
sVtag
p3210
I0
sVposition
p3211
(lp3212
F5.2725525043673134
aF-16.603984440664259
aF-13.510915792441242
asVmomentum
p3213
(lp3214
F0
aF0
aF0
asa(dp3215
Vmagmom
p3216
F0
sVindex
p3217
I58
sVsymbol
p3218
VCu
p3219
sVcharge
p3220
F0
sVtag
p3221
I0
sVposition
p3222
(lp3223
F2.6362762521836567
aF-16.603984440664259
aF-10.874639540257583
asVmomentum
p3224
(lp3225
F0
aF0
aF0
asa(dp3226
Vmagmom
p3227
F0
sVindex
p3228
I59
sVsymbol
p3229
VCu
p3230
sVcharge
p3231
F0
sVtag
p3232
I0
sVposition
p3233
(lp3234
F2.6362762521836558
aF-42.429048800667516
aF-10.874639540257583
asVmomentum
p3235
(lp3236
F0
aF0
aF0
asa(dp3237
Vmagmom
p3238
F0
sVindex
p3239
I60
sVsymbol
p3240
VCu
p3241
sVcharge
p3242
F0
sVtag
p3243
I0
sVposition
p3244
(lp3245
F3.9544143782754855
aF-40.582084875001421
aF-12.192777666349413
asVmomentum
p3246
(lp3247
F0
aF0
aF0
asa(dp3248
Vmagmom
p3249
F0
sVindex
p3250
I61
sVsymbol
p3251
VCu
p3252
sVcharge
p3253
F0
sVtag
p3254
I0
sVposition
p3255
(lp3256
F3.9544143782754846
aF-14.757020514998166
aF-12.192777666349413
asVmomentum
p3257
(lp3258
F0
aF0
aF0
asa(dp3259
Vmagmom
p3260
F0
sVindex
p3261
I62
sVsymbol
p3262
VCu
p3263
sVcharge
p3264
F0
sVtag
p3265
I0
sVposition
p3266
(lp3267
F1.318138126091827
aF-14.757020514998166
aF-14.829053918533072
asVmomentum
p3268
(lp3269
F0
aF0
aF0
asa(dp3270
Vmagmom
p3271
F0
sVindex
p3272
I63
sVsymbol
p3273
VCu
p3274
sVcharge
p3275
F0
sVtag
p3276
I0
sVposition
p3277
(lp3278
F6.5906906304591413
aF-40.582084875001421
aF-9.5565014141657567
asVmomentum
p3279
(lp3280
F0
aF0
aF0
asa(dp3281
Vmagmom
p3282
F0
sVindex
p3283
I64
sVsymbol
p3284
VCu
p3285
sVcharge
p3286
F0
sVtag
p3287
I0
sVposition
p3288
(lp3289
F5.2725525043673152
aF-46.115296794360319
aF-10.874639540257585
asVmomentum
p3290
(lp3291
F0
aF0
aF0
asa(dp3292
Vmagmom
p3293
F0
sVindex
p3294
I65
sVsymbol
p3295
VCu
p3296
sVcharge
p3297
F0
sVtag
p3298
I0
sVposition
p3299
(lp3300
F5.2725525043673134
aF-20.290232434357062
aF-10.874639540257586
asVmomentum
p3301
(lp3302
F0
aF0
aF0
asa(dp3303
Vmagmom
p3304
F0
sVindex
p3305
I66
sVsymbol
p3306
VCu
p3307
sVcharge
p3308
F0
sVtag
p3309
I0
sVposition
p3310
(lp3311
F2.6362762521836558
aF-20.290232434357062
aF-13.510915792441242
asVmomentum
p3312
(lp3313
F0
aF0
aF0
asa(dp3314
Vmagmom
p3315
F0
sVindex
p3316
I67
sVsymbol
p3317
VCu
p3318
sVcharge
p3319
F0
sVtag
p3320
I0
sVposition
p3321
(lp3322
F2.6362762521836571
aF-46.115296794360319
aF-8.2383632880739253
asVmomentum
p3323
(lp3324
F0
aF0
aF0
asa(dp3325
Vmagmom
p3326
F0
sVindex
p3327
I68
sVsymbol
p3328
VCu
p3329
sVcharge
p3330
F0
sVtag
p3331
I0
sVposition
p3332
(lp3333
F6.5906906304591422
aF-44.27141922213589
aF-12.192777666349413
asVmomentum
p3334
(lp3335
F0
aF0
aF0
asa(dp3336
Vmagmom
p3337
F0
sVindex
p3338
I69
sVsymbol
p3339
VCu
p3340
sVcharge
p3341
F0
sVtag
p3342
I0
sVposition
p3343
(lp3344
F1.318138126091827
aF-18.446354862132637
aF-12.192777666349414
asVmomentum
p3345
(lp3346
F0
aF0
aF0
asa(dp3347
Vmagmom
p3348
F0
sVindex
p3349
I70
sVsymbol
p3350
VCu
p3351
sVcharge
p3352
F0
sVtag
p3353
I0
sVposition
p3354
(lp3355
F3.9544143782754855
aF-18.44635486213264
aF-14.82905391853307
asVmomentum
p3356
(lp3357
F0
aF0
aF0
asa(dp3358
Vmagmom
p3359
F0
sVindex
p3360
I71
sVsymbol
p3361
VCu
p3362
sVcharge
p3363
F0
sVtag
p3364
I0
sVposition
p3365
(lp3366
F3.9544143782754841
aF-44.27141922213589
aF-9.5565014141657532
asVmomentum
p3367
(lp3368
F0
aF0
aF0
asa(dp3369
Vmagmom
p3370
F0
sVindex
p3371
I72
sVsymbol
p3372
VCu
p3373
sVcharge
p3374
F0
sVtag
p3375
I0
sVposition
p3376
(lp3377
F5.2725525043673143
aF-38.737596540004887
aF-13.51091579244124
asVmomentum
p3378
(lp3379
F0
aF0
aF0
asa(dp3380
Vmagmom
p3381
F0
sVindex
p3382
I73
sVsymbol
p3383
VCu
p3384
sVcharge
p3385
F0
sVtag
p3386
I0
sVposition
p3387
(lp3388
F5.2725525043673134
aF-12.91253218000163
aF-13.510915792441242
asVmomentum
p3389
(lp3390
F0
aF0
aF0
asa(dp3391
Vmagmom
p3392
F0
sVindex
p3393
I74
sVsymbol
p3394
VCu
p3395
sVcharge
p3396
F0
sVtag
p3397
I0
sVposition
p3398
(lp3399
F2.6362762521836567
aF-12.91253218000163
aF-10.874639540257586
asVmomentum
p3400
(lp3401
F0
aF0
aF0
asa(dp3402
Vmagmom
p3403
F0
sVindex
p3404
I75
sVsymbol
p3405
VCu
p3406
sVcharge
p3407
F0
sVtag
p3408
I0
sVposition
p3409
(lp3410
F2.6362762521836567
aF-38.737596540004887
aF-10.874639540257581
asVmomentum
p3411
(lp3412
F0
aF0
aF0
asa(dp3413
Vmagmom
p3414
F0
sVindex
p3415
I76
sVsymbol
p3416
VCu
p3417
sVcharge
p3418
F0
sVtag
p3419
I0
sVposition
p3420
(lp3421
F1.3181381260918288
aF-25.825064360003257
aF-12.192777666349413
asVmomentum
p3422
(lp3423
F0
aF0
aF0
asa(dp3424
Vmagmom
p3425
F0
sVindex
p3426
I77
sVsymbol
p3427
VCu
p3428
sVcharge
p3429
F0
sVtag
p3430
I0
sVposition
p3431
(lp3432
F1.3181381260918297
aF-1.4931846141810146e-15
aF-12.192777666349414
asVmomentum
p3433
(lp3434
F0
aF0
aF0
asa(dp3435
Vmagmom
p3436
F0
sVindex
p3437
I78
sVsymbol
p3438
VCu
p3439
sVcharge
p3440
F0
sVtag
p3441
I0
sVposition
p3442
(lp3443
F3.9544143782754846
aF-1.8160353415715043e-15
aF-14.829053918533072
asVmomentum
p3444
(lp3445
F0
aF0
aF0
asa(dp3446
Vmagmom
p3447
F0
sVindex
p3448
I79
sVsymbol
p3449
VCu
p3450
sVcharge
p3451
F0
sVtag
p3452
I0
sVposition
p3453
(lp3454
F3.954414378275485
aF-25.825064360003257
aF-9.5565014141657532
asVmomentum
p3455
(lp3456
F0
aF0
aF0
asa(dp3457
Vmagmom
p3458
F0
sVindex
p3459
I80
sVsymbol
p3460
VCu
p3461
sVcharge
p3462
F0
sVtag
p3463
I0
sVposition
p3464
(lp3465
F3.9544143782754855
aF-25.825064360003257
aF-12.192777666349413
asVmomentum
p3466
(lp3467
F0
aF0
aF0
asa(dp3468
Vmagmom
p3469
F0
sVindex
p3470
I81
sVsymbol
p3471
VCu
p3472
sVcharge
p3473
F0
sVtag
p3474
I0
sVposition
p3475
(lp3476
F3.9544143782754855
aF-1.4931846141810146e-15
aF-12.192777666349414
asVmomentum
p3477
(lp3478
F0
aF0
aF0
asa(dp3479
Vmagmom
p3480
F0
sVindex
p3481
I82
sVsymbol
p3482
VCu
p3483
sVcharge
p3484
F0
sVtag
p3485
I0
sVposition
p3486
(lp3487
F1.3181381260918288
aF-1.8160353415715043e-15
aF-14.829053918533072
asVmomentum
p3488
(lp3489
F0
aF0
aF0
asa(dp3490
Vmagmom
p3491
F0
sVindex
p3492
I83
sVsymbol
p3493
VCu
p3494
sVcharge
p3495
F0
sVtag
p3496
I0
sVposition
p3497
(lp3498
F1.3181381260918279
aF-25.825064360003257
aF-9.5565014141657532
asVmomentum
p3499
(lp3500
F0
aF0
aF0
asa(dp3501
Vmagmom
p3502
F0
sVindex
p3503
I84
sVsymbol
p3504
VPd
p3505
sVcharge
p3506
F0
sVtag
p3507
I0
sVposition
p3508
(lp3509
F5.2725525043673134
aF-42.429041569649499
aF-10.874639540257585
asVmomentum
p3510
(lp3511
F0
aF0
aF0
asa(dp3512
Vmagmom
p3513
F0
sVindex
p3514
I85
sVsymbol
p3515
VPd
p3516
sVcharge
p3517
F0
sVtag
p3518
I0
sVposition
p3519
(lp3520
F5.2725525043673134
aF-16.603977209646239
aF-10.874639540257586
asVmomentum
p3521
(lp3522
F0
aF0
aF0
asa(dp3523
Vmagmom
p3524
F0
sVindex
p3525
I86
sVsymbol
p3526
VPd
p3527
sVcharge
p3528
F0
sVtag
p3529
I0
sVposition
p3530
(lp3531
F2.6362762521836567
aF-16.603977209646239
aF-13.51091579244124
asVmomentum
p3532
(lp3533
F0
aF0
aF0
asa(dp3534
Vmagmom
p3535
F0
sVindex
p3536
I87
sVsymbol
p3537
VPd
p3538
sVcharge
p3539
F0
sVtag
p3540
I0
sVposition
p3541
(lp3542
F2.6362762521836576
aF-42.429041569649499
aF-13.51091579244124
asVmomentum
p3543
(lp3544
F0
aF0
aF0
asa(dp3545
Vmagmom
p3546
F0
sVindex
p3547
I88
sVsymbol
p3548
VPd
p3549
sVcharge
p3550
F0
sVtag
p3551
I0
sVposition
p3552
(lp3553
F5.2725525043673134
aF-27.671441798457732
aF-13.51091579244124
asVmomentum
p3554
(lp3555
F0
aF0
aF0
asa(dp3556
Vmagmom
p3557
F0
sVindex
p3558
I89
sVsymbol
p3559
VPd
p3560
sVcharge
p3561
F0
sVtag
p3562
I0
sVposition
p3563
(lp3564
F5.2725525043673116
aF-1.8463774384544771
aF-13.510915792441242
asVmomentum
p3565
(lp3566
F0
aF0
aF0
asa(dp3567
Vmagmom
p3568
F0
sVindex
p3569
I90
sVsymbol
p3570
VPd
p3571
sVcharge
p3572
F0
sVtag
p3573
I0
sVposition
p3574
(lp3575
F2.6362762521836567
aF-1.8463774384544769
aF-10.874639540257583
asVmomentum
p3576
(lp3577
F0
aF0
aF0
asa(dp3578
Vmagmom
p3579
F0
sVindex
p3580
I91
sVsymbol
p3581
VPd
p3582
sVcharge
p3583
F0
sVtag
p3584
I0
sVposition
p3585
(lp3586
F2.6362762521836567
aF-27.671441798457732
aF-10.874639540257581
asVmomentum
p3587
(lp3588
F0
aF0
aF0
asa(dp3589
Vmagmom
p3590
F0
sVindex
p3591
I92
sVsymbol
p3592
VPd
p3593
sVcharge
p3594
F0
sVtag
p3595
I0
sVposition
p3596
(lp3597
F5.2725525043673134
aF-35.046151510360275
aF-10.874639540257586
asVmomentum
p3598
(lp3599
F0
aF0
aF0
asa(dp3600
Vmagmom
p3601
F0
sVindex
p3602
I93
sVsymbol
p3603
VPd
p3604
sVcharge
p3605
F0
sVtag
p3606
I0
sVposition
p3607
(lp3608
F5.2725525043673134
aF-9.2210871503570182
aF-10.874639540257581
asVmomentum
p3609
(lp3610
F0
aF0
aF0
asa(dp3611
Vmagmom
p3612
F0
sVindex
p3613
I94
sVsymbol
p3614
VPd
p3615
sVcharge
p3616
F0
sVtag
p3617
I0
sVposition
p3618
(lp3619
F2.6362762521836558
aF-9.2210871503570182
aF-13.51091579244124
asVmomentum
p3620
(lp3621
F0
aF0
aF0
asa(dp3622
Vmagmom
p3623
F0
sVindex
p3624
I95
sVsymbol
p3625
VPd
p3626
sVcharge
p3627
F0
sVtag
p3628
I0
sVposition
p3629
(lp3630
F2.6362762521836558
aF-35.046151510360275
aF-13.510915792441242
asVmomentum
p3631
(lp3632
F0
aF0
aF0
asa(dp3633
Vmagmom
p3634
F0
sVindex
p3635
I96
sVsymbol
p3636
VPd
p3637
sVcharge
p3638
F0
sVtag
p3639
I0
sVposition
p3640
(lp3641
F5.2725525043673134
aF-31.361604871907517
aF-13.510915792441239
asVmomentum
p3642
(lp3643
F0
aF0
aF0
asa(dp3644
Vmagmom
p3645
F0
sVindex
p3646
I97
sVsymbol
p3647
VPd
p3648
sVcharge
p3649
F0
sVtag
p3650
I0
sVposition
p3651
(lp3652
F5.2725525043673125
aF-5.5365405119042581
aF-13.510915792441242
asVmomentum
p3653
(lp3654
F0
aF0
aF0
asa(dp3655
Vmagmom
p3656
F0
sVindex
p3657
I98
sVsymbol
p3658
VPd
p3659
sVcharge
p3660
F0
sVtag
p3661
I0
sVposition
p3662
(lp3663
F2.6362762521836585
aF-5.5365405119042572
aF-10.874639540257585
asVmomentum
p3664
(lp3665
F0
aF0
aF0
asa(dp3666
Vmagmom
p3667
F0
sVindex
p3668
I99
sVsymbol
p3669
VPd
p3670
sVcharge
p3671
F0
sVtag
p3672
I0
sVposition
p3673
(lp3674
F2.6362762521836567
aF-31.361604871907517
aF-10.874639540257583
asVmomentum
p3675
(lp3676
F0
aF0
aF0
asa(dp3677
Vmagmom
p3678
F0
sVindex
p3679
I100
sVsymbol
p3680
VPd
p3681
sVcharge
p3682
F0
sVtag
p3683
I0
sVposition
p3684
(lp3685
F5.2725525043673134
aF-38.737596540004887
aF-10.874639540257583
asVmomentum
p3686
(lp3687
F0
aF0
aF0
asa(dp3688
Vmagmom
p3689
F0
sVindex
p3690
I101
sVsymbol
p3691
VPd
p3692
sVcharge
p3693
F0
sVtag
p3694
I0
sVposition
p3695
(lp3696
F5.2725525043673134
aF-12.91253218000163
aF-10.874639540257586
asVmomentum
p3697
(lp3698
F0
aF0
aF0
asa(dp3699
Vmagmom
p3700
F0
sVindex
p3701
I102
sVsymbol
p3702
VPd
p3703
sVcharge
p3704
F0
sVtag
p3705
I0
sVposition
p3706
(lp3707
F2.6362762521836558
aF-12.91253218000163
aF-13.510915792441242
asVmomentum
p3708
(lp3709
F0
aF0
aF0
asa(dp3710
Vmagmom
p3711
F0
sVindex
p3712
I103
sVsymbol
p3713
VPd
p3714
sVcharge
p3715
F0
sVtag
p3716
I0
sVposition
p3717
(lp3718
F2.6362762521836558
aF-38.737596540004887
aF-13.51091579244124
asVmomentum
p3719
(lp3720
F0
aF0
aF0
asa(dp3721
Vmagmom
p3722
F0
sVindex
p3723
I104
sVsymbol
p3724
VPd
p3725
sVcharge
p3726
F0
sVtag
p3727
I0
sVposition
p3728
(lp3729
F5.2725525043673125
aF-49.803751281552039
aF-8.2383632880739253
asVmomentum
p3730
(lp3731
F0
aF0
aF0
asa(dp3732
Vmagmom
p3733
F0
sVindex
p3734
I105
sVsymbol
p3735
VPd
p3736
sVcharge
p3737
F0
sVtag
p3738
I0
sVposition
p3739
(lp3740
F5.2725525043673134
aF-23.978686921548782
aF-13.51091579244124
asVmomentum
p3741
(lp3742
F0
aF0
aF0
asa(dp3743
Vmagmom
p3744
F0
sVindex
p3745
I106
sVsymbol
p3746
VPd
p3747
sVcharge
p3748
F0
sVtag
p3749
I0
sVposition
p3750
(lp3751
F2.6362762521836558
aF-23.978686921548782
aF-10.874639540257583
asVmomentum
p3752
(lp3753
F0
aF0
aF0
asa(dp3754
Vmagmom
p3755
F0
sVindex
p3756
I107
sVsymbol
p3757
VPd
p3758
sVcharge
p3759
F0
sVtag
p3760
I0
sVposition
p3761
(lp3762
F2.6362762521836567
aF-49.803751281552039
aF-10.874639540257585
asVmomentum
p3763
(lp3764
F0
aF0
aF0
asa(dp3765
Vmagmom
p3766
F0
sVindex
p3767
I108
sVsymbol
p3768
VPd
p3769
sVcharge
p3770
F0
sVtag
p3771
I0
sVposition
p3772
(lp3773
F5.2725525043673143
aF-46.113588208102257
aF-8.238363288073927
asVmomentum
p3774
(lp3775
F0
aF0
aF0
asa(dp3776
Vmagmom
p3777
F0
sVindex
p3778
I109
sVsymbol
p3779
VPd
p3780
sVcharge
p3781
F0
sVtag
p3782
I0
sVposition
p3783
(lp3784
F5.2725525043673152
aF-20.288523848099
aF-13.510915792441242
asVmomentum
p3785
(lp3786
F0
aF0
aF0
asa(dp3787
Vmagmom
p3788
F0
sVindex
p3789
I110
sVsymbol
p3790
VPd
p3791
sVcharge
p3792
F0
sVtag
p3793
I0
sVposition
p3794
(lp3795
F2.6362762521836558
aF-20.288523848099
aF-10.874639540257585
asVmomentum
p3796
(lp3797
F0
aF0
aF0
asa(dp3798
Vmagmom
p3799
F0
sVindex
p3800
I111
sVsymbol
p3801
VPd
p3802
sVcharge
p3803
F0
sVtag
p3804
I0
sVposition
p3805
(lp3806
F2.6362762521836585
aF-46.113588208102257
aF-10.874639540257583
asVmomentum
p3807
(lp3808
F0
aF0
aF0
asa(dp3809
Vmagmom
p3810
F0
sVindex
p3811
I112
sVsymbol
p3812
VCu
p3813
sVcharge
p3814
F0
sVtag
p3815
I0
sVposition
p3816
(lp3817
F3.9544143782754846
aF-47.95974665001097
aF-17.465330170716722
asVmomentum
p3818
(lp3819
F0
aF0
aF0
asa(dp3820
Vmagmom
p3821
F0
sVindex
p3822
I113
sVsymbol
p3823
VCu
p3824
sVcharge
p3825
F0
sVtag
p3826
I0
sVposition
p3827
(lp3828
F3.9544143782754828
aF-22.134682290007714
aF-17.465330170716726
asVmomentum
p3829
(lp3830
F0
aF0
aF0
asa(dp3831
Vmagmom
p3832
F0
sVindex
p3833
I114
sVsymbol
p3834
VCu
p3835
sVcharge
p3836
F0
sVtag
p3837
I0
sVposition
p3838
(lp3839
F1.318138126091827
aF-22.134682290007714
aF-14.82905391853307
asVmomentum
p3840
(lp3841
F0
aF0
aF0
asa(dp3842
Vmagmom
p3843
F0
sVindex
p3844
I115
sVsymbol
p3845
VCu
p3846
sVcharge
p3847
F0
sVtag
p3848
I0
sVposition
p3849
(lp3850
F6.5906906304591413
aF-47.95974665001097
aF-14.829053918533065
asVmomentum
p3851
(lp3852
F0
aF0
aF0
asa(dp3853
Vmagmom
p3854
F0
sVindex
p3855
I116
sVsymbol
p3856
VCu
p3857
sVcharge
p3858
F0
sVtag
p3859
I0
sVposition
p3860
(lp3861
F5.2725525043673152
aF-27.66817131230718
aF-16.147192044624902
asVmomentum
p3862
(lp3863
F0
aF0
aF0
asa(dp3864
Vmagmom
p3865
F0
sVindex
p3866
I117
sVsymbol
p3867
VCu
p3868
sVcharge
p3869
F0
sVtag
p3870
I0
sVposition
p3871
(lp3872
F5.2725525043673125
aF-1.8431069523039192
aF-16.147192044624894
asVmomentum
p3873
(lp3874
F0
aF0
aF0
asa(dp3875
Vmagmom
p3876
F0
sVindex
p3877
I118
sVsymbol
p3878
VCu
p3879
sVcharge
p3880
F0
sVtag
p3881
I0
sVposition
p3882
(lp3883
F2.6362762521836576
aF-1.8431069523039194
aF-18.783468296808557
asVmomentum
p3884
(lp3885
F0
aF0
aF0
asa(dp3886
Vmagmom
p3887
F0
sVindex
p3888
I119
sVsymbol
p3889
VCu
p3890
sVcharge
p3891
F0
sVtag
p3892
I0
sVposition
p3893
(lp3894
F2.6362762521836558
aF-27.66817131230718
aF-18.783468296808554
asVmomentum
p3895
(lp3896
F0
aF0
aF0
asa(dp3897
Vmagmom
p3898
F0
sVindex
p3899
I120
sVsymbol
p3900
VCu
p3901
sVcharge
p3902
F0
sVtag
p3903
I0
sVposition
p3904
(lp3905
F5.2725525043673125
aF-35.046144279342258
aF-18.783468296808557
asVmomentum
p3906
(lp3907
F0
aF0
aF0
asa(dp3908
Vmagmom
p3909
F0
sVindex
p3910
I121
sVsymbol
p3911
VCu
p3912
sVcharge
p3913
F0
sVtag
p3914
I0
sVposition
p3915
(lp3916
F5.2725525043673125
aF-9.2210799193389992
aF-18.783468296808557
asVmomentum
p3917
(lp3918
F0
aF0
aF0
asa(dp3919
Vmagmom
p3920
F0
sVindex
p3921
I122
sVsymbol
p3922
VCu
p3923
sVcharge
p3924
F0
sVtag
p3925
I0
sVposition
p3926
(lp3927
F2.6362762521836567
aF-9.2210799193389992
aF-16.147192044624898
asVmomentum
p3928
(lp3929
F0
aF0
aF0
asa(dp3930
Vmagmom
p3931
F0
sVindex
p3932
I123
sVsymbol
p3933
VCu
p3934
sVcharge
p3935
F0
sVtag
p3936
I0
sVposition
p3937
(lp3938
F2.6362762521836567
aF-35.046144279342258
aF-16.147192044624898
asVmomentum
p3939
(lp3940
F0
aF0
aF0
asa(dp3941
Vmagmom
p3942
F0
sVindex
p3943
I124
sVsymbol
p3944
VCu
p3945
sVcharge
p3946
F0
sVtag
p3947
I0
sVposition
p3948
(lp3949
F5.2725525043673116
aF-31.359896285649455
aF-16.147192044624898
asVmomentum
p3950
(lp3951
F0
aF0
aF0
asa(dp3952
Vmagmom
p3953
F0
sVindex
p3954
I125
sVsymbol
p3955
VCu
p3956
sVcharge
p3957
F0
sVtag
p3958
I0
sVposition
p3959
(lp3960
F5.2725525043673134
aF-5.5348319256461966
aF-16.147192044624898
asVmomentum
p3961
(lp3962
F0
aF0
aF0
asa(dp3963
Vmagmom
p3964
F0
sVindex
p3965
I126
sVsymbol
p3966
VCu
p3967
sVcharge
p3968
F0
sVtag
p3969
I0
sVposition
p3970
(lp3971
F2.6362762521836576
aF-5.5348319256461975
aF-18.783468296808557
asVmomentum
p3972
(lp3973
F0
aF0
aF0
asa(dp3974
Vmagmom
p3975
F0
sVindex
p3976
I127
sVsymbol
p3977
VCu
p3978
sVcharge
p3979
F0
sVtag
p3980
I0
sVposition
p3981
(lp3982
F2.636276252183654
aF-31.359896285649455
aF-18.783468296808557
asVmomentum
p3983
(lp3984
F0
aF0
aF0
asa(dp3985
Vmagmom
p3986
F0
sVindex
p3987
I128
sVsymbol
p3988
VCu
p3989
sVcharge
p3990
F0
sVtag
p3991
I0
sVposition
p3992
(lp3993
F3.9544143782754864
aF-44.27141922213589
aF-17.465330170716726
asVmomentum
p3994
(lp3995
F0
aF0
aF0
asa(dp3996
Vmagmom
p3997
F0
sVindex
p3998
I129
sVsymbol
p3999
VCu
p4000
sVcharge
p4001
F0
sVtag
p4002
I0
sVposition
p4003
(lp4004
F3.9544143782754855
aF-18.44635486213264
aF-17.465330170716719
asVmomentum
p4005
(lp4006
F0
aF0
aF0
asa(dp4007
Vmagmom
p4008
F0
sVindex
p4009
I130
sVsymbol
p4010
VCu
p4011
sVcharge
p4012
F0
sVtag
p4013
I0
sVposition
p4014
(lp4015
F1.3181381260918279
aF-18.446354862132644
aF-20.101606422900378
asVmomentum
p4016
(lp4017
F0
aF0
aF0
asa(dp4018
Vmagmom
p4019
F0
sVindex
p4020
I131
sVsymbol
p4021
VCu
p4022
sVcharge
p4023
F0
sVtag
p4024
I0
sVposition
p4025
(lp4026
F6.5906906304591422
aF-44.27141922213589
aF-14.829053918533068
asVmomentum
p4027
(lp4028
F0
aF0
aF0
asa(dp4029
Vmagmom
p4030
F0
sVindex
p4031
I132
sVsymbol
p4032
VCu
p4033
sVcharge
p4034
F0
sVtag
p4035
I0
sVposition
p4036
(lp4037
F6.5906906304591422
aF-33.203773857873877
aF-17.465330170716726
asVmomentum
p4038
(lp4039
F0
aF0
aF0
asa(dp4040
Vmagmom
p4041
F0
sVindex
p4042
I133
sVsymbol
p4043
VCu
p4044
sVcharge
p4045
F0
sVtag
p4046
I0
sVposition
p4047
(lp4048
F1.3181381260918279
aF-7.3787094978706236
aF-17.465330170716726
asVmomentum
p4049
(lp4050
F0
aF0
aF0
asa(dp4051
Vmagmom
p4052
F0
sVindex
p4053
I134
sVsymbol
p4054
VCu
p4055
sVcharge
p4056
F0
sVtag
p4057
I0
sVposition
p4058
(lp4059
F3.9544143782754837
aF-7.3787094978706245
aF-20.101606422900385
asVmomentum
p4060
(lp4061
F0
aF0
aF0
asa(dp4062
Vmagmom
p4063
F0
sVindex
p4064
I135
sVsymbol
p4065
VCu
p4066
sVcharge
p4067
F0
sVtag
p4068
I0
sVposition
p4069
(lp4070
F3.9544143782754837
aF-33.203773857873877
aF-14.82905391853307
asVmomentum
p4071
(lp4072
F0
aF0
aF0
asa(dp4073
Vmagmom
p4074
F0
sVindex
p4075
I136
sVsymbol
p4076
VCu
p4077
sVcharge
p4078
F0
sVtag
p4079
I0
sVposition
p4080
(lp4081
F3.9544143782754846
aF-29.515446429998807
aF-17.465330170716726
asVmomentum
p4082
(lp4083
F0
aF0
aF0
asa(dp4084
Vmagmom
p4085
F0
sVindex
p4086
I137
sVsymbol
p4087
VCu
p4088
sVcharge
p4089
F0
sVtag
p4090
I0
sVposition
p4091
(lp4092
F3.9544143782754855
aF-3.6903820699955476
aF-17.465330170716729
asVmomentum
p4093
(lp4094
F0
aF0
aF0
asa(dp4095
Vmagmom
p4096
F0
sVindex
p4097
I138
sVsymbol
p4098
VCu
p4099
sVcharge
p4100
F0
sVtag
p4101
I0
sVposition
p4102
(lp4103
F1.3181381260918261
aF-3.6903820699955481
aF-20.101606422900382
asVmomentum
p4104
(lp4105
F0
aF0
aF0
asa(dp4106
Vmagmom
p4107
F0
sVindex
p4108
I139
sVsymbol
p4109
VCu
p4110
sVcharge
p4111
F0
sVtag
p4112
I0
sVposition
p4113
(lp4114
F6.5906906304591431
aF-29.515446429998807
aF-14.829053918533068
asVmomentum
p4115
(lp4116
F0
aF0
aF0
asa(dp4117
Vmagmom
p4118
F0
sVindex
p4119
I140
sVsymbol
p4120
VCu
p4121
sVcharge
p4122
F0
sVtag
p4123
I0
sVposition
p4124
(lp4125
F5.2725525043673116
aF-49.807021767702594
aF-16.147192044624894
asVmomentum
p4126
(lp4127
F0
aF0
aF0
asa(dp4128
Vmagmom
p4129
F0
sVindex
p4130
I141
sVsymbol
p4131
VCu
p4132
sVcharge
p4133
F0
sVtag
p4134
I0
sVposition
p4135
(lp4136
F5.2725525043673134
aF-23.981957407699344
aF-16.147192044624898
asVmomentum
p4137
(lp4138
F0
aF0
aF0
asa(dp4139
Vmagmom
p4140
F0
sVindex
p4141
I142
sVsymbol
p4142
VCu
p4143
sVcharge
p4144
F0
sVtag
p4145
I0
sVposition
p4146
(lp4147
F2.6362762521836576
aF-23.981957407699344
aF-18.783468296808557
asVmomentum
p4148
(lp4149
F0
aF0
aF0
asa(dp4150
Vmagmom
p4151
F0
sVindex
p4152
I143
sVsymbol
p4153
VCu
p4154
sVcharge
p4155
F0
sVtag
p4156
I0
sVposition
p4157
(lp4158
F2.6362762521836567
aF-49.807021767702594
aF-13.510915792441242
asVmomentum
p4159
(lp4160
F0
aF0
aF0
asa(dp4161
Vmagmom
p4162
F0
sVindex
p4163
I144
sVsymbol
p4164
VCu
p4165
sVcharge
p4166
F0
sVtag
p4167
I0
sVposition
p4168
(lp4169
F3.9544143782754864
aF-36.893108205008346
aF-17.465330170716729
asVmomentum
p4170
(lp4171
F0
aF0
aF0
asa(dp4172
Vmagmom
p4173
F0
sVindex
p4174
I145
sVsymbol
p4175
VCu
p4176
sVcharge
p4177
F0
sVtag
p4178
I0
sVposition
p4179
(lp4180
F3.9544143782754846
aF-11.068043845005095
aF-17.465330170716726
asVmomentum
p4181
(lp4182
F0
aF0
aF0
asa(dp4183
Vmagmom
p4184
F0
sVindex
p4185
I146
sVsymbol
p4186
VCu
p4187
sVcharge
p4188
F0
sVtag
p4189
I0
sVposition
p4190
(lp4191
F1.3181381260918297
aF-11.068043845005095
aF-20.101606422900382
asVmomentum
p4192
(lp4193
F0
aF0
aF0
asa(dp4194
Vmagmom
p4195
F0
sVindex
p4196
I147
sVsymbol
p4197
VCu
p4198
sVcharge
p4199
F0
sVtag
p4200
I0
sVposition
p4201
(lp4202
F6.5906906304591422
aF-36.893108205008346
aF-14.829053918533068
asVmomentum
p4203
(lp4204
F0
aF0
aF0
asa(dp4205
Vmagmom
p4206
F0
sVindex
p4207
I148
sVsymbol
p4208
VCu
p4209
sVcharge
p4210
F0
sVtag
p4211
I0
sVposition
p4212
(lp4213
F6.5906906304591413
aF-47.95974665001097
aF-17.465330170716722
asVmomentum
p4214
(lp4215
F0
aF0
aF0
asa(dp4216
Vmagmom
p4217
F0
sVindex
p4218
I149
sVsymbol
p4219
VCu
p4220
sVcharge
p4221
F0
sVtag
p4222
I0
sVposition
p4223
(lp4224
F1.3181381260918279
aF-22.134682290007714
aF-17.465330170716726
asVmomentum
p4225
(lp4226
F0
aF0
aF0
asa(dp4227
Vmagmom
p4228
F0
sVindex
p4229
I150
sVsymbol
p4230
VCu
p4231
sVcharge
p4232
F0
sVtag
p4233
I0
sVposition
p4234
(lp4235
F3.9544143782754855
aF-22.134682290007714
aF-14.829053918533068
asVmomentum
p4236
(lp4237
F0
aF0
aF0
asa(dp4238
Vmagmom
p4239
F0
sVindex
p4240
I151
sVsymbol
p4241
VCu
p4242
sVcharge
p4243
F0
sVtag
p4244
I0
sVposition
p4245
(lp4246
F3.9544143782754846
aF-47.95974665001097
aF-14.829053918533068
asVmomentum
p4247
(lp4248
F0
aF0
aF0
asa(dp4249
Vmagmom
p4250
F0
sVindex
p4251
I152
sVsymbol
p4252
VCu
p4253
sVcharge
p4254
F0
sVtag
p4255
I0
sVposition
p4256
(lp4257
F6.5906906304591404
aF-40.582084875001421
aF-17.465330170716726
asVmomentum
p4258
(lp4259
F0
aF0
aF0
asa(dp4260
Vmagmom
p4261
F0
sVindex
p4262
I153
sVsymbol
p4263
VCu
p4264
sVcharge
p4265
F0
sVtag
p4266
I0
sVposition
p4267
(lp4268
F1.3181381260918279
aF-14.757020514998166
aF-17.465330170716726
asVmomentum
p4269
(lp4270
F0
aF0
aF0
asa(dp4271
Vmagmom
p4272
F0
sVindex
p4273
I154
sVsymbol
p4274
VCu
p4275
sVcharge
p4276
F0
sVtag
p4277
I0
sVposition
p4278
(lp4279
F3.9544143782754855
aF-14.757020514998166
aF-20.101606422900378
asVmomentum
p4280
(lp4281
F0
aF0
aF0
asa(dp4282
Vmagmom
p4283
F0
sVindex
p4284
I155
sVsymbol
p4285
VCu
p4286
sVcharge
p4287
F0
sVtag
p4288
I0
sVposition
p4289
(lp4290
F3.9544143782754846
aF-40.582084875001421
aF-14.829053918533068
asVmomentum
p4291
(lp4292
F0
aF0
aF0
asa(dp4293
Vmagmom
p4294
F0
sVindex
p4295
I156
sVsymbol
p4296
VCu
p4297
sVcharge
p4298
F0
sVtag
p4299
I0
sVposition
p4300
(lp4301
F3.9544143782754855
aF-33.203773857873877
aF-17.465330170716722
asVmomentum
p4302
(lp4303
F0
aF0
aF0
asa(dp4304
Vmagmom
p4305
F0
sVindex
p4306
I157
sVsymbol
p4307
VCu
p4308
sVcharge
p4309
F0
sVtag
p4310
I0
sVposition
p4311
(lp4312
F3.9544143782754828
aF-7.3787094978706236
aF-17.465330170716726
asVmomentum
p4313
(lp4314
F0
aF0
aF0
asa(dp4315
Vmagmom
p4316
F0
sVindex
p4317
I158
sVsymbol
p4318
VCu
p4319
sVcharge
p4320
F0
sVtag
p4321
I0
sVposition
p4322
(lp4323
F1.3181381260918279
aF-7.3787094978706245
aF-20.101606422900385
asVmomentum
p4324
(lp4325
F0
aF0
aF0
asa(dp4326
Vmagmom
p4327
F0
sVindex
p4328
I159
sVsymbol
p4329
VCu
p4330
sVcharge
p4331
F0
sVtag
p4332
I0
sVposition
p4333
(lp4334
F6.5906906304591404
aF-33.203773857873877
aF-14.829053918533068
asVmomentum
p4335
(lp4336
F0
aF0
aF0
asa(dp4337
Vmagmom
p4338
F0
sVindex
p4339
I160
sVsymbol
p4340
VCu
p4341
sVcharge
p4342
F0
sVtag
p4343
I0
sVposition
p4344
(lp4345
F6.5906906304591413
aF-29.515446429998807
aF-17.465330170716726
asVmomentum
p4346
(lp4347
F0
aF0
aF0
asa(dp4348
Vmagmom
p4349
F0
sVindex
p4350
I161
sVsymbol
p4351
VCu
p4352
sVcharge
p4353
F0
sVtag
p4354
I0
sVposition
p4355
(lp4356
F1.3181381260918279
aF-3.6903820699955476
aF-17.465330170716729
asVmomentum
p4357
(lp4358
F0
aF0
aF0
asa(dp4359
Vmagmom
p4360
F0
sVindex
p4361
I162
sVsymbol
p4362
VCu
p4363
sVcharge
p4364
F0
sVtag
p4365
I0
sVposition
p4366
(lp4367
F3.9544143782754837
aF-3.6903820699955481
aF-20.101606422900385
asVmomentum
p4368
(lp4369
F0
aF0
aF0
asa(dp4370
Vmagmom
p4371
F0
sVindex
p4372
I163
sVsymbol
p4373
VCu
p4374
sVcharge
p4375
F0
sVtag
p4376
I0
sVposition
p4377
(lp4378
F3.9544143782754837
aF-29.515446429998807
aF-14.829053918533068
asVmomentum
p4379
(lp4380
F0
aF0
aF0
asa(dp4381
Vmagmom
p4382
F0
sVindex
p4383
I164
sVsymbol
p4384
VCu
p4385
sVcharge
p4386
F0
sVtag
p4387
I0
sVposition
p4388
(lp4389
F6.5906906304591448
aF-36.893108205008346
aF-17.465330170716729
asVmomentum
p4390
(lp4391
F0
aF0
aF0
asa(dp4392
Vmagmom
p4393
F0
sVindex
p4394
I165
sVsymbol
p4395
VCu
p4396
sVcharge
p4397
F0
sVtag
p4398
I0
sVposition
p4399
(lp4400
F1.3181381260918279
aF-11.068043845005095
aF-17.465330170716726
asVmomentum
p4401
(lp4402
F0
aF0
aF0
asa(dp4403
Vmagmom
p4404
F0
sVindex
p4405
I166
sVsymbol
p4406
VCu
p4407
sVcharge
p4408
F0
sVtag
p4409
I0
sVposition
p4410
(lp4411
F3.9544143782754855
aF-11.068043845005095
aF-20.101606422900382
asVmomentum
p4412
(lp4413
F0
aF0
aF0
asa(dp4414
Vmagmom
p4415
F0
sVindex
p4416
I167
sVsymbol
p4417
VCu
p4418
sVcharge
p4419
F0
sVtag
p4420
I0
sVposition
p4421
(lp4422
F3.9544143782754837
aF-36.893108205008346
aF-14.829053918533068
asVmomentum
p4423
(lp4424
F0
aF0
aF0
asa(dp4425
Vmagmom
p4426
F0
sVindex
p4427
I168
sVsymbol
p4428
VCu
p4429
sVcharge
p4430
F0
sVtag
p4431
I0
sVposition
p4432
(lp4433
F5.2725525043673125
aF-42.429048800667516
aF-18.783468296808557
asVmomentum
p4434
(lp4435
F0
aF0
aF0
asa(dp4436
Vmagmom
p4437
F0
sVindex
p4438
I169
sVsymbol
p4439
VCu
p4440
sVcharge
p4441
F0
sVtag
p4442
I0
sVposition
p4443
(lp4444
F5.2725525043673125
aF-16.603984440664263
aF-18.783468296808554
asVmomentum
p4445
(lp4446
F0
aF0
aF0
asa(dp4447
Vmagmom
p4448
F0
sVindex
p4449
I170
sVsymbol
p4450
VCu
p4451
sVcharge
p4452
F0
sVtag
p4453
I0
sVposition
p4454
(lp4455
F2.6362762521836549
aF-16.603984440664263
aF-16.147192044624898
asVmomentum
p4456
(lp4457
F0
aF0
aF0
asa(dp4458
Vmagmom
p4459
F0
sVindex
p4460
I171
sVsymbol
p4461
VCu
p4462
sVcharge
p4463
F0
sVtag
p4464
I0
sVposition
p4465
(lp4466
F2.6362762521836567
aF-42.429048800667516
aF-16.147192044624902
asVmomentum
p4467
(lp4468
F0
aF0
aF0
asa(dp4469
Vmagmom
p4470
F0
sVindex
p4471
I172
sVsymbol
p4472
VCu
p4473
sVcharge
p4474
F0
sVtag
p4475
I0
sVposition
p4476
(lp4477
F3.9544143782754846
aF-40.582084875001421
aF-17.465330170716726
asVmomentum
p4478
(lp4479
F0
aF0
aF0
asa(dp4480
Vmagmom
p4481
F0
sVindex
p4482
I173
sVsymbol
p4483
VCu
p4484
sVcharge
p4485
F0
sVtag
p4486
I0
sVposition
p4487
(lp4488
F3.9544143782754846
aF-14.757020514998166
aF-17.465330170716722
asVmomentum
p4489
(lp4490
F0
aF0
aF0
asa(dp4491
Vmagmom
p4492
F0
sVindex
p4493
I174
sVsymbol
p4494
VCu
p4495
sVcharge
p4496
F0
sVtag
p4497
I0
sVposition
p4498
(lp4499
F1.3181381260918279
aF-14.757020514998166
aF-20.101606422900382
asVmomentum
p4500
(lp4501
F0
aF0
aF0
asa(dp4502
Vmagmom
p4503
F0
sVindex
p4504
I175
sVsymbol
p4505
VCu
p4506
sVcharge
p4507
F0
sVtag
p4508
I0
sVposition
p4509
(lp4510
F6.5906906304591413
aF-40.582084875001421
aF-14.829053918533065
asVmomentum
p4511
(lp4512
F0
aF0
aF0
asa(dp4513
Vmagmom
p4514
F0
sVindex
p4515
I176
sVsymbol
p4516
VCu
p4517
sVcharge
p4518
F0
sVtag
p4519
I0
sVposition
p4520
(lp4521
F5.2725525043673143
aF-46.115296794360319
aF-16.147192044624898
asVmomentum
p4522
(lp4523
F0
aF0
aF0
asa(dp4524
Vmagmom
p4525
F0
sVindex
p4526
I177
sVsymbol
p4527
VCu
p4528
sVcharge
p4529
F0
sVtag
p4530
I0
sVposition
p4531
(lp4532
F5.2725525043673116
aF-20.290232434357065
aF-16.147192044624894
asVmomentum
p4533
(lp4534
F0
aF0
aF0
asa(dp4535
Vmagmom
p4536
F0
sVindex
p4537
I178
sVsymbol
p4538
VCu
p4539
sVcharge
p4540
F0
sVtag
p4541
I0
sVposition
p4542
(lp4543
F2.6362762521836576
aF-20.290232434357065
aF-18.783468296808554
asVmomentum
p4544
(lp4545
F0
aF0
aF0
asa(dp4546
Vmagmom
p4547
F0
sVindex
p4548
I179
sVsymbol
p4549
VCu
p4550
sVcharge
p4551
F0
sVtag
p4552
I0
sVposition
p4553
(lp4554
F2.6362762521836558
aF-46.115296794360319
aF-13.51091579244124
asVmomentum
p4555
(lp4556
F0
aF0
aF0
asa(dp4557
Vmagmom
p4558
F0
sVindex
p4559
I180
sVsymbol
p4560
VCu
p4561
sVcharge
p4562
F0
sVtag
p4563
I0
sVposition
p4564
(lp4565
F6.5906906304591413
aF-44.27141922213589
aF-17.465330170716722
asVmomentum
p4566
(lp4567
F0
aF0
aF0
asa(dp4568
Vmagmom
p4569
F0
sVindex
p4570
I181
sVsymbol
p4571
VCu
p4572
sVcharge
p4573
F0
sVtag
p4574
I0
sVposition
p4575
(lp4576
F1.3181381260918279
aF-18.44635486213264
aF-17.465330170716722
asVmomentum
p4577
(lp4578
F0
aF0
aF0
asa(dp4579
Vmagmom
p4580
F0
sVindex
p4581
I182
sVsymbol
p4582
VCu
p4583
sVcharge
p4584
F0
sVtag
p4585
I0
sVposition
p4586
(lp4587
F3.9544143782754855
aF-18.446354862132644
aF-20.101606422900378
asVmomentum
p4588
(lp4589
F0
aF0
aF0
asa(dp4590
Vmagmom
p4591
F0
sVindex
p4592
I183
sVsymbol
p4593
VCu
p4594
sVcharge
p4595
F0
sVtag
p4596
I0
sVposition
p4597
(lp4598
F3.9544143782754837
aF-44.27141922213589
aF-14.829053918533068
asVmomentum
p4599
(lp4600
F0
aF0
aF0
asa(dp4601
Vmagmom
p4602
F0
sVindex
p4603
I184
sVsymbol
p4604
VCu
p4605
sVcharge
p4606
F0
sVtag
p4607
I0
sVposition
p4608
(lp4609
F5.272552504367316
aF-38.737596540004887
aF-18.783468296808557
asVmomentum
p4610
(lp4611
F0
aF0
aF0
asa(dp4612
Vmagmom
p4613
F0
sVindex
p4614
I185
sVsymbol
p4615
VCu
p4616
sVcharge
p4617
F0
sVtag
p4618
I0
sVposition
p4619
(lp4620
F5.2725525043673143
aF-12.91253218000163
aF-18.783468296808554
asVmomentum
p4621
(lp4622
F0
aF0
aF0
asa(dp4623
Vmagmom
p4624
F0
sVindex
p4625
I186
sVsymbol
p4626
VCu
p4627
sVcharge
p4628
F0
sVtag
p4629
I0
sVposition
p4630
(lp4631
F2.6362762521836567
aF-12.91253218000163
aF-16.147192044624902
asVmomentum
p4632
(lp4633
F0
aF0
aF0
asa(dp4634
Vmagmom
p4635
F0
sVindex
p4636
I187
sVsymbol
p4637
VCu
p4638
sVcharge
p4639
F0
sVtag
p4640
I0
sVposition
p4641
(lp4642
F2.6362762521836567
aF-38.737596540004887
aF-16.147192044624902
asVmomentum
p4643
(lp4644
F0
aF0
aF0
asa(dp4645
Vmagmom
p4646
F0
sVindex
p4647
I188
sVsymbol
p4648
VCu
p4649
sVcharge
p4650
F0
sVtag
p4651
I0
sVposition
p4652
(lp4653
F1.3181381260918279
aF-25.82506436000326
aF-17.465330170716729
asVmomentum
p4654
(lp4655
F0
aF0
aF0
asa(dp4656
Vmagmom
p4657
F0
sVindex
p4658
I189
sVsymbol
p4659
VCu
p4660
sVcharge
p4661
F0
sVtag
p4662
I0
sVposition
p4663
(lp4664
F1.3181381260918279
aF-2.1388860689619934e-15
aF-17.465330170716726
asVmomentum
p4665
(lp4666
F0
aF0
aF0
asa(dp4667
Vmagmom
p4668
F0
sVindex
p4669
I190
sVsymbol
p4670
VCu
p4671
sVcharge
p4672
F0
sVtag
p4673
I0
sVposition
p4674
(lp4675
F3.9544143782754855
aF-2.4617367963524833e-15
aF-20.101606422900382
asVmomentum
p4676
(lp4677
F0
aF0
aF0
asa(dp4678
Vmagmom
p4679
F0
sVindex
p4680
I191
sVsymbol
p4681
VCu
p4682
sVcharge
p4683
F0
sVtag
p4684
I0
sVposition
p4685
(lp4686
F3.9544143782754855
aF-25.82506436000326
aF-14.829053918533068
asVmomentum
p4687
(lp4688
F0
aF0
aF0
asa(dp4689
Vmagmom
p4690
F0
sVindex
p4691
I192
sVsymbol
p4692
VCu
p4693
sVcharge
p4694
F0
sVtag
p4695
I0
sVposition
p4696
(lp4697
F3.9544143782754864
aF-25.82506436000326
aF-17.465330170716729
asVmomentum
p4698
(lp4699
F0
aF0
aF0
asa(dp4700
Vmagmom
p4701
F0
sVindex
p4702
I193
sVsymbol
p4703
VCu
p4704
sVcharge
p4705
F0
sVtag
p4706
I0
sVposition
p4707
(lp4708
F3.9544143782754846
aF-2.1388860689619934e-15
aF-17.465330170716726
asVmomentum
p4709
(lp4710
F0
aF0
aF0
asa(dp4711
Vmagmom
p4712
F0
sVindex
p4713
I194
sVsymbol
p4714
VCu
p4715
sVcharge
p4716
F0
sVtag
p4717
I0
sVposition
p4718
(lp4719
F1.3181381260918297
aF-2.4617367963524833e-15
aF-20.101606422900382
asVmomentum
p4720
(lp4721
F0
aF0
aF0
asa(dp4722
Vmagmom
p4723
F0
sVindex
p4724
I195
sVsymbol
p4725
VCu
p4726
sVcharge
p4727
F0
sVtag
p4728
I0
sVposition
p4729
(lp4730
F1.318138126091827
aF-25.82506436000326
aF-14.82905391853307
asVmomentum
p4731
(lp4732
F0
aF0
aF0
asa(dp4733
Vmagmom
p4734
F0
sVindex
p4735
I196
sVsymbol
p4736
VPd
p4737
sVcharge
p4738
F0
sVtag
p4739
I0
sVposition
p4740
(lp4741
F5.2725525043673134
aF-42.429041569649499
aF-16.147192044624898
asVmomentum
p4742
(lp4743
F0
aF0
aF0
asa(dp4744
Vmagmom
p4745
F0
sVindex
p4746
I197
sVsymbol
p4747
VPd
p4748
sVcharge
p4749
F0
sVtag
p4750
I0
sVposition
p4751
(lp4752
F5.2725525043673134
aF-16.603977209646242
aF-16.147192044624894
asVmomentum
p4753
(lp4754
F0
aF0
aF0
asa(dp4755
Vmagmom
p4756
F0
sVindex
p4757
I198
sVsymbol
p4758
VPd
p4759
sVcharge
p4760
F0
sVtag
p4761
I0
sVposition
p4762
(lp4763
F2.6362762521836558
aF-16.603977209646242
aF-18.783468296808554
asVmomentum
p4764
(lp4765
F0
aF0
aF0
asa(dp4766
Vmagmom
p4767
F0
sVindex
p4768
I199
sVsymbol
p4769
VPd
p4770
sVcharge
p4771
F0
sVtag
p4772
I0
sVposition
p4773
(lp4774
F2.6362762521836576
aF-42.429041569649499
aF-18.783468296808557
asVmomentum
p4775
(lp4776
F0
aF0
aF0
asa(dp4777
Vmagmom
p4778
F0
sVindex
p4779
I200
sVsymbol
p4780
VPd
p4781
sVcharge
p4782
F0
sVtag
p4783
I0
sVposition
p4784
(lp4785
F5.2725525043673125
aF-27.671441798457735
aF-18.783468296808557
asVmomentum
p4786
(lp4787
F0
aF0
aF0
asa(dp4788
Vmagmom
p4789
F0
sVindex
p4790
I201
sVsymbol
p4791
VPd
p4792
sVcharge
p4793
F0
sVtag
p4794
I0
sVposition
p4795
(lp4796
F5.2725525043673116
aF-1.8463774384544778
aF-18.783468296808557
asVmomentum
p4797
(lp4798
F0
aF0
aF0
asa(dp4799
Vmagmom
p4800
F0
sVindex
p4801
I202
sVsymbol
p4802
VPd
p4803
sVcharge
p4804
F0
sVtag
p4805
I0
sVposition
p4806
(lp4807
F2.6362762521836567
aF-1.8463774384544775
aF-16.147192044624898
asVmomentum
p4808
(lp4809
F0
aF0
aF0
asa(dp4810
Vmagmom
p4811
F0
sVindex
p4812
I203
sVsymbol
p4813
VPd
p4814
sVcharge
p4815
F0
sVtag
p4816
I0
sVposition
p4817
(lp4818
F2.6362762521836567
aF-27.671441798457735
aF-16.147192044624898
asVmomentum
p4819
(lp4820
F0
aF0
aF0
asa(dp4821
Vmagmom
p4822
F0
sVindex
p4823
I204
sVsymbol
p4824
VPd
p4825
sVcharge
p4826
F0
sVtag
p4827
I0
sVposition
p4828
(lp4829
F5.2725525043673143
aF-35.046151510360275
aF-16.147192044624902
asVmomentum
p4830
(lp4831
F0
aF0
aF0
asa(dp4832
Vmagmom
p4833
F0
sVindex
p4834
I205
sVsymbol
p4835
VPd
p4836
sVcharge
p4837
F0
sVtag
p4838
I0
sVposition
p4839
(lp4840
F5.2725525043673125
aF-9.2210871503570182
aF-16.147192044624894
asVmomentum
p4841
(lp4842
F0
aF0
aF0
asa(dp4843
Vmagmom
p4844
F0
sVindex
p4845
I206
sVsymbol
p4846
VPd
p4847
sVcharge
p4848
F0
sVtag
p4849
I0
sVposition
p4850
(lp4851
F2.6362762521836576
aF-9.2210871503570182
aF-18.783468296808557
asVmomentum
p4852
(lp4853
F0
aF0
aF0
asa(dp4854
Vmagmom
p4855
F0
sVindex
p4856
I207
sVsymbol
p4857
VPd
p4858
sVcharge
p4859
F0
sVtag
p4860
I0
sVposition
p4861
(lp4862
F2.6362762521836558
aF-35.046151510360275
aF-18.783468296808554
asVmomentum
p4863
(lp4864
F0
aF0
aF0
asa(dp4865
Vmagmom
p4866
F0
sVindex
p4867
I208
sVsymbol
p4868
VPd
p4869
sVcharge
p4870
F0
sVtag
p4871
I0
sVposition
p4872
(lp4873
F5.2725525043673152
aF-31.36160487190752
aF-18.783468296808554
asVmomentum
p4874
(lp4875
F0
aF0
aF0
asa(dp4876
Vmagmom
p4877
F0
sVindex
p4878
I209
sVsymbol
p4879
VPd
p4880
sVcharge
p4881
F0
sVtag
p4882
I0
sVposition
p4883
(lp4884
F5.2725525043673125
aF-5.536540511904259
aF-18.783468296808557
asVmomentum
p4885
(lp4886
F0
aF0
aF0
asa(dp4887
Vmagmom
p4888
F0
sVindex
p4889
I210
sVsymbol
p4890
VPd
p4891
sVcharge
p4892
F0
sVtag
p4893
I0
sVposition
p4894
(lp4895
F2.6362762521836567
aF-5.5365405119042581
aF-16.147192044624898
asVmomentum
p4896
(lp4897
F0
aF0
aF0
asa(dp4898
Vmagmom
p4899
F0
sVindex
p4900
I211
sVsymbol
p4901
VPd
p4902
sVcharge
p4903
F0
sVtag
p4904
I0
sVposition
p4905
(lp4906
F2.6362762521836549
aF-31.36160487190752
aF-16.147192044624902
asVmomentum
p4907
(lp4908
F0
aF0
aF0
asa(dp4909
Vmagmom
p4910
F0
sVindex
p4911
I212
sVsymbol
p4912
VPd
p4913
sVcharge
p4914
F0
sVtag
p4915
I0
sVposition
p4916
(lp4917
F5.2725525043673152
aF-38.737596540004887
aF-16.147192044624902
asVmomentum
p4918
(lp4919
F0
aF0
aF0
asa(dp4920
Vmagmom
p4921
F0
sVindex
p4922
I213
sVsymbol
p4923
VPd
p4924
sVcharge
p4925
F0
sVtag
p4926
I0
sVposition
p4927
(lp4928
F5.2725525043673134
aF-12.91253218000163
aF-16.147192044624898
asVmomentum
p4929
(lp4930
F0
aF0
aF0
asa(dp4931
Vmagmom
p4932
F0
sVindex
p4933
I214
sVsymbol
p4934
VPd
p4935
sVcharge
p4936
F0
sVtag
p4937
I0
sVposition
p4938
(lp4939
F2.6362762521836576
aF-12.91253218000163
aF-18.783468296808557
asVmomentum
p4940
(lp4941
F0
aF0
aF0
asa(dp4942
Vmagmom
p4943
F0
sVindex
p4944
I215
sVsymbol
p4945
VPd
p4946
sVcharge
p4947
F0
sVtag
p4948
I0
sVposition
p4949
(lp4950
F2.6362762521836576
aF-38.737596540004887
aF-18.783468296808557
asVmomentum
p4951
(lp4952
F0
aF0
aF0
asa(dp4953
Vmagmom
p4954
F0
sVindex
p4955
I216
sVsymbol
p4956
VPd
p4957
sVcharge
p4958
F0
sVtag
p4959
I0
sVposition
p4960
(lp4961
F5.2725525043673125
aF-49.803751281552039
aF-13.51091579244124
asVmomentum
p4962
(lp4963
F0
aF0
aF0
asa(dp4964
Vmagmom
p4965
F0
sVindex
p4966
I217
sVsymbol
p4967
VPd
p4968
sVcharge
p4969
F0
sVtag
p4970
I0
sVposition
p4971
(lp4972
F5.2725525043673125
aF-23.978686921548785
aF-18.783468296808557
asVmomentum
p4973
(lp4974
F0
aF0
aF0
asa(dp4975
Vmagmom
p4976
F0
sVindex
p4977
I218
sVsymbol
p4978
VPd
p4979
sVcharge
p4980
F0
sVtag
p4981
I0
sVposition
p4982
(lp4983
F2.6362762521836549
aF-23.978686921548785
aF-16.147192044624902
asVmomentum
p4984
(lp4985
F0
aF0
aF0
asa(dp4986
Vmagmom
p4987
F0
sVindex
p4988
I219
sVsymbol
p4989
VPd
p4990
sVcharge
p4991
F0
sVtag
p4992
I0
sVposition
p4993
(lp4994
F2.6362762521836567
aF-49.803751281552039
aF-16.147192044624894
asVmomentum
p4995
(lp4996
F0
aF0
aF0
asa(dp4997
Vmagmom
p4998
F0
sVindex
p4999
I220
sVsymbol
p5000
VPd
p5001
sVcharge
p5002
F0
sVtag
p5003
I0
sVposition
p5004
(lp5005
F5.2725525043673125
aF-46.113588208102257
aF-13.51091579244124
asVmomentum
p5006
(lp5007
F0
aF0
aF0
asa(dp5008
Vmagmom
p5009
F0
sVindex
p5010
I221
sVsymbol
p5011
VPd
p5012
sVcharge
p5013
F0
sVtag
p5014
I0
sVposition
p5015
(lp5016
F5.2725525043673143
aF-20.288523848099004
aF-18.78346829680855
asVmomentum
p5017
(lp5018
F0
aF0
aF0
asa(dp5019
Vmagmom
p5020
F0
sVindex
p5021
I222
sVsymbol
p5022
VPd
p5023
sVcharge
p5024
F0
sVtag
p5025
I0
sVposition
p5026
(lp5027
F2.6362762521836576
aF-20.288523848099004
aF-16.147192044624891
asVmomentum
p5028
(lp5029
F0
aF0
aF0
asa(dp5030
Vmagmom
p5031
F0
sVindex
p5032
I223
sVsymbol
p5033
VPd
p5034
sVcharge
p5035
F0
sVtag
p5036
I0
sVposition
p5037
(lp5038
F2.6362762521836567
aF-46.113588208102257
aF-16.147192044624898
asVmomentum
p5039
(lp5040
F0
aF0
aF0
asasVcell
p5041
(lp5042
(lp5043
F5.2725525043673134
aF4.9303806576313238e-32
aF-6.037974890946223e-48
aa(lp5044
F2.6362762521836567
aF-51.650128720006514
aF2.6362762521836589
aa(lp5045
F2.3876654724424104e-47
aF-3.874208728685875e-15
aF-31.635315026203884
aasVmass
p5046
F16635.248000000021
sVpbc
p5047
(lp5048
I01
aI01
aI01
asVspacegroup
p5049
VCm (8)
p5050
sVconstraints
p5051
(lp5052
(dp5053
Vname
p5054
VFixAtoms
p5055
sVkwargs
p5056
(dp5057
Vindices
p5058
(lp5059
I0
aI6
aI7
aI8
aI9
aI14
aI15
aI16
aI18
aI20
aI22
aI24
aI26
aI30
aI32
aI34
aI36
aI40
aI42
aI44
aI46
aI48
aI50
aI52
aI54
aI56
aI57
aI60
aI62
aI66
aI68
aI70
aI72
aI73
aI78
aI82
aI86
aI87
aI88
aI89
aI94
aI95
aI96
aI97
aI102
aI103
aI105
aI109
aI112
aI113
aI114
aI115
aI116
aI117
aI118
aI119
aI120
aI121
aI122
aI123
aI124
aI125
aI126
aI127
aI128
aI129
aI130
aI131
aI132
aI133
aI134
aI135
aI136
aI137
aI138
aI139
aI140
aI141
aI142
aI143
aI144
aI145
aI146
aI147
aI148
aI149
aI150
aI151
aI152
aI153
aI154
aI155
aI156
aI157
aI158
aI159
aI160
aI161
aI162
aI163
aI164
aI165
aI166
aI167
aI168
aI169
aI170
aI171
aI172
aI173
aI174
aI175
aI176
aI177
aI178
aI179
aI180
aI181
aI182
aI183
aI184
aI185
aI186
aI187
aI188
aI189
aI190
aI191
aI192
aI193
aI194
aI195
aI196
aI197
aI198
aI199
aI200
aI201
aI202
aI203
aI204
aI205
aI206
aI207
aI208
aI209
aI210
aI211
aI212
aI213
aI214
aI215
aI216
aI217
aI218
aI219
aI220
aI221
aI222
aI223
assasaa(lp5060
g2505
ag2
((ltRp5061
aa(lp5062
g2508
ag2509
aa(lp5063
g2511
aS'7ad7ec2c29b5c14ccdb6f27b8963384b746e6f79'
p5064
aa(lp5065
g2514
ag2515
(S'\x07\xe1\x03\x1f\x13+!\x02f\xdb'
tRp5066
aa(lp5067
g2518
ag2515
(S'\x07\xe1\x03\x1f\x13+!\x02f\xe8'
tRp5068
aa(lp5069
g2521
a(dp5070
g2523
g2533
sg2534
I00
sg2535
g2536
sg2537
I0
sg2538
g2552
sg2553
g2554
sg2555
I00
sg2556
g2557
sg2558
I224
saatRp5071
a.