(lp1
ccollections
OrderedDict
p2
((lp3
(lp4
S'atoms'
p5
a(dp6
Vinfo
p7
(dp8
sVvolume
p9
F615.1151281106055
sVnatoms
p10
I16
sVsymbol_counts
p11
(dp12
VCu
p13
I12
sVPd
p14
I4
ssVchemical_symbols
p15
(lp16
VPd
p17
aVCu
p18
asVatoms
p19
(lp20
(dp21
Vmagmom
p22
F0
sVindex
p23
I0
sVsymbol
p24
VCu
p25
sVcharge
p26
F0
sVtag
p27
I0
sVposition
p28
(lp29
F1.8573555949999998
aF1.3133487362992753
aF11.163464258543833
asVmomentum
p30
(lp31
F0
aF0
aF0
asa(dp32
Vmagmom
p33
F0
sVindex
p34
I1
sVsymbol
p35
VCu
p36
sVcharge
p37
F0
sVtag
p38
I0
sVposition
p39
(lp40
F1.8573555949999994
aF3.9400462088978259
aF13.790161731142383
asVmomentum
p41
(lp42
F0
aF0
aF0
asa(dp43
Vmagmom
p44
F0
sVindex
p45
I2
sVsymbol
p46
VCu
p47
sVcharge
p48
F0
sVtag
p49
I0
sVposition
p50
(lp51
F0
aF2.6266974725985488
aF15.103510467441657
asVmomentum
p52
(lp53
F0
aF0
aF0
asa(dp54
Vmagmom
p55
F0
sVindex
p56
I3
sVsymbol
p57
VCu
p58
sVcharge
p59
F0
sVtag
p60
I0
sVposition
p61
(lp62
F1.9721522630525295e-31
aF-8.8817841970012523e-16
aF12.476812994843108
asVmomentum
p63
(lp64
F0
aF0
aF0
asa(dp65
Vmagmom
p66
F0
sVindex
p67
I4
sVsymbol
p68
VCu
p69
sVcharge
p70
F0
sVtag
p71
I0
sVposition
p72
(lp73
F1.8573555949999998
aF3.9400462088978232
aF11.163464258543831
asVmomentum
p74
(lp75
F0
aF0
aF0
asa(dp76
Vmagmom
p77
F0
sVindex
p78
I5
sVsymbol
p79
VCu
p80
sVcharge
p81
F0
sVtag
p82
I0
sVposition
p83
(lp84
F1.8573555949999994
aF1.3133487362992735
aF13.790161731142383
asVmomentum
p85
(lp86
F0
aF0
aF0
asa(dp87
Vmagmom
p88
F0
sVindex
p89
I6
sVsymbol
p90
VPd
p91
sVcharge
p92
F0
sVtag
p93
I0
sVposition
p94
(lp95
F1.9721522630525295e-31
aF2.6266974725985479
aF12.476812994843108
asVmomentum
p96
(lp97
F0
aF0
aF0
asa(dp98
Vmagmom
p99
F0
sVindex
p100
I7
sVsymbol
p101
VPd
p102
sVcharge
p103
F0
sVtag
p104
I0
sVposition
p105
(lp106
F0
aF-8.8817841970012523e-16
aF15.103510467441659
asVmomentum
p107
(lp108
F0
aF0
aF0
asa(dp109
Vmagmom
p110
F0
sVindex
p111
I8
sVsymbol
p112
VCu
p113
sVcharge
p114
F0
sVtag
p115
I0
sVposition
p116
(lp117
F1.8573555949999998
aF1.3133487362992744
aF16.41685920374093
asVmomentum
p118
(lp119
F0
aF0
aF0
asa(dp120
Vmagmom
p121
F0
sVindex
p122
I9
sVsymbol
p123
VCu
p124
sVcharge
p125
F0
sVtag
p126
I0
sVposition
p127
(lp128
F1.8573555949999994
aF3.9400462088978232
aF19.043556676339485
asVmomentum
p129
(lp130
F0
aF0
aF0
asa(dp131
Vmagmom
p132
F0
sVindex
p133
I10
sVsymbol
p134
VCu
p135
sVcharge
p136
F0
sVtag
p137
I0
sVposition
p138
(lp139
F1.9721522630525295e-31
aF2.6266974725985488
aF20.356905412638753
asVmomentum
p140
(lp141
F0
aF0
aF0
asa(dp142
Vmagmom
p143
F0
sVindex
p144
I11
sVsymbol
p145
VCu
p146
sVcharge
p147
F0
sVtag
p148
I0
sVposition
p149
(lp150
F1.9721522630525295e-31
aF0
aF17.730207940040206
asVmomentum
p151
(lp152
F0
aF0
aF0
asa(dp153
Vmagmom
p154
F0
sVindex
p155
I12
sVsymbol
p156
VCu
p157
sVcharge
p158
F0
sVtag
p159
I0
sVposition
p160
(lp161
F1.8573555949999998
aF3.9400462088978223
aF16.41685920374093
asVmomentum
p162
(lp163
F0
aF0
aF0
asa(dp164
Vmagmom
p165
F0
sVindex
p166
I13
sVsymbol
p167
VCu
p168
sVcharge
p169
F0
sVtag
p170
I0
sVposition
p171
(lp172
F1.8573555949999994
aF1.3133487362992735
aF19.043556676339485
asVmomentum
p173
(lp174
F0
aF0
aF0
asa(dp175
Vmagmom
p176
F0
sVindex
p177
I14
sVsymbol
p178
VPd
p179
sVcharge
p180
F0
sVtag
p181
I0
sVposition
p182
(lp183
F1.9721522630525295e-31
aF2.626697472598547
aF17.730207940040209
asVmomentum
p184
(lp185
F0
aF0
aF0
asa(dp186
Vmagmom
p187
F0
sVindex
p188
I15
sVsymbol
p189
VPd
p190
sVcharge
p191
F0
sVtag
p192
I0
sVposition
p193
(lp194
F1.9721522630525295e-31
aF0
aF20.356905412638753
asVmomentum
p195
(lp196
F0
aF0
aF0
asasVcell
p197
(lp198
(lp199
F3.7147111899999996
aF0
aF0
aa(lp200
F4.9303806576313238e-32
aF5.2533949451970985
aF0
aa(lp201
F3.944304526105059e-31
aF0
aF31.520369671182593
aasVmass
p202
F1188.2320000000004
sVpbc
p203
(lp204
I01
aI01
aI01
asVspacegroup
p205
VPmm2 (25)
p206
sVconstraints
p207
(lp208
(dp209
Vname
p210
VFixAtoms
p211
sVkwargs
p212
(dp213
Vindices
p214
(lp215
I0
aI1
aI2
aI3
aI4
aI5
aI6
aI7
aI8
aI12
assasaa(lp216
S'results'
p217
ag2
((ltRp218
aa(lp219
S'user'
p220
aS'ktran'
p221
aa(lp222
S'inserted-hash'
p223
aS'59493354799b83c976310548e974c4a0846c4db8'
p224
aa(lp225
S'ctime'
p226
acdatetime
datetime
p227
(S'\x07\xe1\x03\x1f\x13,\x05\x05\x8f\x90'
tRp228
aa(lp229
S'mtime'
p230
ag227
(S'\x07\xe1\x03\x1f\x13,\x05\x05\x8f\xbd'
tRp231
aa(lp232
S'tags'
p233
a(dp234
S'get_slab_settings'
p235
g2
((lp236
(lp237
S'max_broken_bonds'
p238
aI0
aa(lp239
S'bonds'
p240
aNaa(lp241
S'tol'
p242
aF0.29999999999999999
aa(lp243
S'symmetrize'
p244
aI00
aatRp245
sS'relaxed'
p246
I00
sS'mpid'
p247
Vmp-580357
p248
sS'shift'
p249
I0
sS'slab_generate_settings'
p250
g2
((lp251
(lp252
S'primitive'
p253
aI01
aa(lp254
S'min_vacuum_size'
p255
aF20
aa(lp256
S'lll_reduce'
p257
aI00
aa(lp258
S'max_normal_search'
p259
aI1
aa(lp260
S'min_slab_size'
p261
aF7
aa(lp262
S'center_slab'
p263
aI01
aatRp264
sS'miller'
p265
(I1
I1
I0
tp266
sS'top'
p267
I01
sS'type'
p268
S'slab'
p269
sS'num_slab_atoms'
p270
I16
saatRp271
ag2
((lp272
(lp273
g5
a(dp274
Vinfo
p275
(dp276
sVvolume
p277
F615.1151281106055
sVnatoms
p278
I16
sVsymbol_counts
p279
(dp280
VCu
p281
I12
sVPd
p282
I4
ssVchemical_symbols
p283
(lp284
VPd
p285
aVCu
p286
asVatoms
p287
(lp288
(dp289
Vmagmom
p290
F0
sVindex
p291
I0
sVsymbol
p292
VCu
p293
sVcharge
p294
F0
sVtag
p295
I0
sVposition
p296
(lp297
F1.8573555949999998
aF-1.3133487362992766
aF-11.163464258543833
asVmomentum
p298
(lp299
F0
aF0
aF0
asa(dp300
Vmagmom
p301
F0
sVindex
p302
I1
sVsymbol
p303
VCu
p304
sVcharge
p305
F0
sVtag
p306
I0
sVposition
p307
(lp308
F1.8573555949999994
aF-3.9400462088978276
aF-13.790161731142383
asVmomentum
p309
(lp310
F0
aF0
aF0
asa(dp311
Vmagmom
p312
F0
sVindex
p313
I2
sVsymbol
p314
VCu
p315
sVcharge
p316
F0
sVtag
p317
I0
sVposition
p318
(lp319
F0
aF-2.6266974725985506
aF-15.103510467441657
asVmomentum
p320
(lp321
F0
aF0
aF0
asa(dp322
Vmagmom
p323
F0
sVindex
p324
I3
sVsymbol
p325
VCu
p326
sVcharge
p327
F0
sVtag
p328
I0
sVposition
p329
(lp330
F1.9721522630525295e-31
aF-6.397904900693462e-16
aF-12.476812994843108
asVmomentum
p331
(lp332
F0
aF0
aF0
asa(dp333
Vmagmom
p334
F0
sVindex
p335
I4
sVsymbol
p336
VCu
p337
sVcharge
p338
F0
sVtag
p339
I0
sVposition
p340
(lp341
F1.8573555949999998
aF-3.9400462088978245
aF-11.163464258543831
asVmomentum
p342
(lp343
F0
aF0
aF0
asa(dp344
Vmagmom
p345
F0
sVindex
p346
I5
sVsymbol
p347
VCu
p348
sVcharge
p349
F0
sVtag
p350
I0
sVposition
p351
(lp352
F1.8573555949999994
aF-1.3133487362992753
aF-13.790161731142383
asVmomentum
p353
(lp354
F0
aF0
aF0
asa(dp355
Vmagmom
p356
F0
sVindex
p357
I6
sVsymbol
p358
VPd
p359
sVcharge
p360
F0
sVtag
p361
I0
sVposition
p362
(lp363
F1.9721522630525295e-31
aF-2.6266974725985492
aF-12.476812994843108
asVmomentum
p364
(lp365
F0
aF0
aF0
asa(dp366
Vmagmom
p367
F0
sVindex
p368
I7
sVsymbol
p369
VPd
p370
sVcharge
p371
F0
sVtag
p372
I0
sVposition
p373
(lp374
F0
aF-9.6146815528397194e-16
aF-15.103510467441659
asVmomentum
p375
(lp376
F0
aF0
aF0
asa(dp377
Vmagmom
p378
F0
sVindex
p379
I8
sVsymbol
p380
VCu
p381
sVcharge
p382
F0
sVtag
p383
I0
sVposition
p384
(lp385
F1.8573555949999998
aF-1.3133487362992764
aF-16.41685920374093
asVmomentum
p386
(lp387
F0
aF0
aF0
asa(dp388
Vmagmom
p389
F0
sVindex
p390
I9
sVsymbol
p391
VCu
p392
sVcharge
p393
F0
sVtag
p394
I0
sVposition
p395
(lp396
F1.8573555949999994
aF-3.9400462088978254
aF-19.043556676339485
asVmomentum
p397
(lp398
F0
aF0
aF0
asa(dp399
Vmagmom
p400
F0
sVindex
p401
I10
sVsymbol
p402
VCu
p403
sVcharge
p404
F0
sVtag
p405
I0
sVposition
p406
(lp407
F1.9721522630525295e-31
aF-2.6266974725985515
aF-20.356905412638753
asVmomentum
p408
(lp409
F0
aF0
aF0
asa(dp410
Vmagmom
p411
F0
sVindex
p412
I11
sVsymbol
p413
VCu
p414
sVcharge
p415
F0
sVtag
p416
I0
sVposition
p417
(lp418
F1.9721522630525295e-31
aF-2.1713242401987223e-15
aF-17.730207940040206
asVmomentum
p419
(lp420
F0
aF0
aF0
asa(dp421
Vmagmom
p422
F0
sVindex
p423
I12
sVsymbol
p424
VCu
p425
sVcharge
p426
F0
sVtag
p427
I0
sVposition
p428
(lp429
F1.8573555949999998
aF-3.9400462088978245
aF-16.41685920374093
asVmomentum
p430
(lp431
F0
aF0
aF0
asa(dp432
Vmagmom
p433
F0
sVindex
p434
I13
sVsymbol
p435
VCu
p436
sVcharge
p437
F0
sVtag
p438
I0
sVposition
p439
(lp440
F1.8573555949999994
aF-1.313348736299276
aF-19.043556676339485
asVmomentum
p441
(lp442
F0
aF0
aF0
asa(dp443
Vmagmom
p444
F0
sVindex
p445
I14
sVsymbol
p446
VPd
p447
sVcharge
p448
F0
sVtag
p449
I0
sVposition
p450
(lp451
F1.9721522630525295e-31
aF-2.6266974725985492
aF-17.730207940040209
asVmomentum
p452
(lp453
F0
aF0
aF0
asa(dp454
Vmagmom
p455
F0
sVindex
p456
I15
sVsymbol
p457
VPd
p458
sVcharge
p459
F0
sVtag
p460
I0
sVposition
p461
(lp462
F1.9721522630525295e-31
aF-2.4930019054133479e-15
aF-20.356905412638753
asVmomentum
p463
(lp464
F0
aF0
aF0
asasVcell
p465
(lp466
(lp467
F3.7147111899999996
aF0
aF0
aa(lp468
F4.9303806576313238e-32
aF-5.2533949451970985
aF6.4335533042925119e-16
aa(lp469
F3.944304526105059e-31
aF-3.8601319825755073e-15
aF-31.520369671182593
aasVmass
p470
F1188.2320000000004
sVpbc
p471
(lp472
I01
aI01
aI01
asVspacegroup
p473
VPmm2 (25)
p474
sVconstraints
p475
(lp476
(dp477
Vname
p478
VFixAtoms
p479
sVkwargs
p480
(dp481
Vindices
p482
(lp483
I2
aI7
aI8
aI9
aI10
aI11
aI12
aI13
aI14
aI15
assasaa(lp484
g217
ag2
((ltRp485
aa(lp486
g220
ag221
aa(lp487
g223
aS'095feb98b047d4ab25bd6cfd42626bab2adc970c'
p488
aa(lp489
g226
ag227
(S'\x07\xe1\x03\x1f\x13,\x05\x05\xb9\x94'
tRp490
aa(lp491
g230
ag227
(S'\x07\xe1\x03\x1f\x13,\x05\x05\xb9\x9d'
tRp492
aa(lp493
g233
a(dp494
g235
g245
sg246
I00
sg247
g248
sg249
I0
sg250
g264
sg265
g266
sg267
I00
sg268
g269
sg270
I16
saatRp495
a.