(lp1
ccollections
OrderedDict
p2
((lp3
(lp4
S'atoms'
p5
a(dp6
Vinfo
p7
(dp8
sVvolume
p9
F11.824206276697764
sVnatoms
p10
I1
sVsymbol_counts
p11
(dp12
VCu
p13
I1
ssVchemical_symbols
p14
(lp15
VCu
p16
asVatoms
p17
(lp18
(dp19
Vmagmom
p20
F0
sVindex
p21
I0
sVsymbol
p22
VCu
p23
sVcharge
p24
F0
sVtag
p25
I0
sVposition
p26
(lp27
F0
aF0
aF0
asVmomentum
p28
(lp29
F0
aF0
aF0
asasVcell
p30
(lp31
(lp32
F2.2145881100000002
aF0
aF1.2785930400000001
aa(lp33
F0.73819604000000005
aF2.0879336899999998
aF1.2785930400000001
aa(lp34
F0
aF0
aF2.5571860800000001
aasVmass
p35
F63.545999999999999
sVpbc
p36
(lp37
I01
aI01
aI01
asVspacegroup
p38
VFm-3m (225)
p39
sVconstraints
p40
(lp41
saa(lp42
S'results'
p43
ag2
((ltRp44
aa(lp45
S'user'
p46
aS'ktran'
p47
aa(lp48
S'inserted-hash'
p49
aS'a0ecaf043eea816d49955270c761c91575468c8b'
p50
aa(lp51
S'ctime'
p52
acdatetime
datetime
p53
(S'\x07\xe1\x03\x1f\x13)*\x07*\xcf'
tRp54
aa(lp55
S'mtime'
p56
ag53
(S'\x07\xe1\x03\x1f\x13)*\x07*\xe0'
tRp57
aatRp58
a.