(lp1
ccollections
OrderedDict
p2
((lp3
(lp4
S'atoms'
p5
a(dp6
Vinfo
p7
(dp8
sVvolume
p9
F3029.3745729518605
sVnatoms
p10
I60
sVsymbol_counts
p11
(dp12
VCu
p13
I48
sVPd
p14
I12
ssVchemical_symbols
p15
(lp16
VPd
p17
aVCu
p18
asVatoms
p19
(lp20
(dp21
Vmagmom
p22
F0
sVindex
p23
I0
sVsymbol
p24
VCu
p25
sVcharge
p26
F0
sVtag
p27
I0
sVposition
p28
(lp29
F2.9537612350033142
aF6.8633515315457405
aF17.743563234648583
asVmomentum
p30
(lp31
F0
aF0
aF0
asa(dp32
Vmagmom
p33
F0
sVindex
p34
I1
sVsymbol
p35
VCu
p36
sVcharge
p37
F0
sVtag
p38
I0
sVposition
p39
(lp40
F2.9537612350033138
aF11.438919219242905
aF14.006853175126322
asVmomentum
p41
(lp42
F0
aF0
aF0
asa(dp43
Vmagmom
p44
F0
sVindex
p45
I2
sVsymbol
p46
VCu
p47
sVcharge
p48
F0
sVtag
p49
I0
sVposition
p50
(lp51
F2.9537612350033147
aF2.2877838438485796
aF21.480273294170843
asVmomentum
p52
(lp53
F0
aF0
aF0
asa(dp54
Vmagmom
p55
F0
sVindex
p56
I3
sVsymbol
p57
VCu
p58
sVcharge
p59
F0
sVtag
p60
I0
sVposition
p61
(lp62
F2.9537612350033138
aF9.1511353753943236
aF20.544933869673844
asVmomentum
p63
(lp64
F0
aF0
aF0
asa(dp65
Vmagmom
p66
F0
sVindex
p67
I4
sVsymbol
p68
VCu
p69
sVcharge
p70
F0
sVtag
p71
I0
sVposition
p72
(lp73
F2.9537612350033147
aF0
aF18.678902659145585
asVmomentum
p74
(lp75
F0
aF0
aF0
asa(dp76
Vmagmom
p77
F0
sVindex
p78
I5
sVsymbol
p79
VCu
p80
sVcharge
p81
F0
sVtag
p82
I0
sVposition
p83
(lp84
F2.9537612350033142
aF4.5755676876971636
aF14.94219259962332
asVmomentum
p85
(lp86
F0
aF0
aF0
asa(dp87
Vmagmom
p88
F0
sVindex
p89
I6
sVsymbol
p90
VCu
p91
sVcharge
p92
F0
sVtag
p93
I0
sVposition
p94
(lp95
F-8.835476909951607e-16
aF10.295027297318612
aF17.275893522400086
asVmomentum
p96
(lp97
F0
aF0
aF0
asa(dp98
Vmagmom
p99
F0
sVindex
p100
I7
sVsymbol
p101
VCu
p102
sVcharge
p103
F0
sVtag
p104
I0
sVposition
p105
(lp106
F-9.8171965666128759e-17
aF1.1438919219242898
aF15.409862311871821
asVmomentum
p107
(lp108
F0
aF0
aF0
asa(dp109
Vmagmom
p110
F0
sVindex
p111
I8
sVsymbol
p112
VCu
p113
sVcharge
p114
F0
sVtag
p115
I0
sVposition
p116
(lp117
F-4.9085982833064458e-16
aF5.7194596096214498
aF21.012603581922345
asVmomentum
p118
(lp119
F0
aF0
aF0
asa(dp120
Vmagmom
p121
F0
sVindex
p122
I9
sVsymbol
p123
VCu
p124
sVcharge
p125
F0
sVtag
p126
I0
sVposition
p127
(lp128
F-1.0798916223274189e-15
aF12.582811141167195
aF20.077264157425347
asVmomentum
p129
(lp130
F0
aF0
aF0
asa(dp131
Vmagmom
p132
F0
sVindex
p133
I10
sVsymbol
p134
VCu
p135
sVcharge
p136
F0
sVtag
p137
I0
sVposition
p138
(lp139
F-2.9451589699838687e-16
aF3.4316757657728711
aF18.211232946897084
asVmomentum
p140
(lp141
F0
aF0
aF0
asa(dp142
Vmagmom
p143
F0
sVindex
p144
I11
sVsymbol
p145
VCu
p146
sVcharge
p147
F0
sVtag
p148
I0
sVposition
p149
(lp150
F-6.8720375966290289e-16
aF8.0072434534700321
aF14.474522887374823
asVmomentum
p151
(lp152
F0
aF0
aF0
asa(dp153
Vmagmom
p154
F0
sVindex
p155
I12
sVsymbol
p156
VCu
p157
sVcharge
p158
F0
sVtag
p159
I0
sVposition
p160
(lp161
F0.61399746179176873
aF5.9836759030145545
aF18.461964315040731
asVmomentum
p162
(lp163
F0
aF0
aF0
asa(dp164
Vmagmom
p165
F0
sVindex
p166
I13
sVsymbol
p167
VCu
p168
sVcharge
p169
F0
sVtag
p170
I0
sVposition
p171
(lp172
F0.6139974617917684
aF10.559243590711716
aF14.725254255518474
asVmomentum
p173
(lp174
F0
aF0
aF0
asa(dp175
Vmagmom
p176
F0
sVindex
p177
I14
sVsymbol
p178
VCu
p179
sVcharge
p180
F0
sVtag
p181
I0
sVposition
p182
(lp183
F0.61399746179176917
aF1.4081082153173909
aF22.198674374562998
asVmomentum
p184
(lp185
F0
aF0
aF0
asa(dp186
Vmagmom
p187
F0
sVindex
p188
I15
sVsymbol
p189
VCu
p190
sVcharge
p191
F0
sVtag
p192
I0
sVposition
p193
(lp194
F4.089511790248765
aF7.3389124728313933
aF22.024914499905044
asVmomentum
p195
(lp196
F0
aF0
aF0
asa(dp197
Vmagmom
p198
F0
sVindex
p199
I16
sVsymbol
p200
VCu
p201
sVcharge
p202
F0
sVtag
p203
I0
sVposition
p204
(lp205
F4.0895117902487641
aF11.914480160528555
aF18.288204440382778
asVmomentum
p206
(lp207
F0
aF0
aF0
asa(dp208
Vmagmom
p209
F0
sVindex
p210
I17
sVsymbol
p211
VCu
p212
sVcharge
p213
F0
sVtag
p214
I0
sVposition
p215
(lp216
F4.089511790248765
aF2.7633447851342323
aF16.422173229854515
asVmomentum
p217
(lp218
F0
aF0
aF0
asa(dp219
Vmagmom
p220
F0
sVindex
p221
I18
sVsymbol
p222
VCu
p223
sVcharge
p224
F0
sVtag
p225
I0
sVposition
p226
(lp227
F1.8180106797578632
aF10.963358277957251
aF19.064953239442659
asVmomentum
p228
(lp229
F0
aF0
aF0
asa(dp230
Vmagmom
p231
F0
sVindex
p232
I19
sVsymbol
p233
VCu
p234
sVcharge
p235
F0
sVtag
p236
I0
sVposition
p237
(lp238
F1.8180106797578639
aF1.8122229025629295
aF17.198922028914392
asVmomentum
p239
(lp240
F0
aF0
aF0
asa(dp241
Vmagmom
p242
F0
sVindex
p243
I20
sVsymbol
p244
VCu
p245
sVcharge
p246
F0
sVtag
p247
I0
sVposition
p248
(lp249
F1.8180106797578635
aF6.3877905902600887
aF13.462211969392127
asVmomentum
p250
(lp251
F0
aF0
aF0
asa(dp252
Vmagmom
p253
F0
sVindex
p254
I21
sVsymbol
p255
VCu
p256
sVcharge
p257
F0
sVtag
p258
I0
sVposition
p259
(lp260
F5.2935250082148588
aF7.74302716007693
aF17.025162154256435
asVmomentum
p261
(lp262
F0
aF0
aF0
asa(dp263
Vmagmom
p264
F0
sVindex
p265
I22
sVsymbol
p266
VCu
p267
sVcharge
p268
F0
sVtag
p269
I0
sVposition
p270
(lp271
F5.2935250082148588
aF12.31859484777409
aF13.288452094734172
asVmomentum
p272
(lp273
F0
aF0
aF0
asa(dp274
Vmagmom
p275
F0
sVindex
p276
I23
sVsymbol
p277
VCu
p278
sVcharge
p279
F0
sVtag
p280
I0
sVposition
p281
(lp282
F5.2935250082148597
aF3.1674594723797682
aF20.761872213778698
asVmomentum
p283
(lp284
F0
aF0
aF0
asa(dp285
Vmagmom
p286
F0
sVindex
p287
I24
sVsymbol
p288
VCu
p289
sVcharge
p290
F0
sVtag
p291
I0
sVposition
p292
(lp293
F4.7093488970773603
aF7.5610877182191052
aF19.501579758458782
asVmomentum
p294
(lp295
F0
aF0
aF0
asa(dp296
Vmagmom
p297
F0
sVindex
p298
I25
sVsymbol
p299
VCu
p300
sVcharge
p301
F0
sVtag
p302
I0
sVposition
p303
(lp304
F4.7093488970773603
aF12.136655405916267
aF15.764869698936518
asVmomentum
p305
(lp306
F0
aF0
aF0
asa(dp307
Vmagmom
p308
F0
sVindex
p309
I26
sVsymbol
p310
VCu
p311
sVcharge
p312
F0
sVtag
p313
I0
sVposition
p314
(lp315
F4.7093488970773603
aF2.9855200305219416
aF13.898838488408252
asVmomentum
p316
(lp317
F0
aF0
aF0
asa(dp318
Vmagmom
p319
F0
sVindex
p320
I27
sVsymbol
p321
VCu
p322
sVcharge
p323
F0
sVtag
p324
I0
sVposition
p325
(lp326
F3.5253475296288599
aF11.651343243552979
aF20.830933252896202
asVmomentum
p327
(lp328
F0
aF0
aF0
asa(dp329
Vmagmom
p330
F0
sVindex
p331
I28
sVsymbol
p332
VCu
p333
sVcharge
p334
F0
sVtag
p335
I0
sVposition
p336
(lp337
F3.5253475296288608
aF2.5002078681586575
aF18.964902042367932
asVmomentum
p338
(lp339
F0
aF0
aF0
asa(dp340
Vmagmom
p341
F0
sVindex
p342
I29
sVsymbol
p343
VCu
p344
sVcharge
p345
F0
sVtag
p346
I0
sVposition
p347
(lp348
F3.5253475296288603
aF7.0757755558558184
aF15.228191982845672
asVmomentum
p349
(lp350
F0
aF0
aF0
asa(dp351
Vmagmom
p352
F0
sVindex
p353
I30
sVsymbol
p354
VCu
p355
sVcharge
p356
F0
sVtag
p357
I0
sVposition
p358
(lp359
F2.3821749403777672
aF8.9318241150893698
aF13.712420433689463
asVmomentum
p360
(lp361
F0
aF0
aF0
asa(dp362
Vmagmom
p363
F0
sVindex
p364
I31
sVsymbol
p365
VCu
p366
sVcharge
p367
F0
sVtag
p368
I0
sVposition
p369
(lp370
F2.3821749403777668
aF13.507391802786533
aF19.315161703739996
asVmomentum
p371
(lp372
F0
aF0
aF0
asa(dp373
Vmagmom
p374
F0
sVindex
p375
I32
sVsymbol
p376
VCu
p377
sVcharge
p378
F0
sVtag
p379
I0
sVposition
p380
(lp381
F2.3821749403777677
aF4.356256427392208
aF17.449130493211726
asVmomentum
p382
(lp383
F0
aF0
aF0
asa(dp384
Vmagmom
p385
F0
sVindex
p386
I33
sVsymbol
p387
VCu
p388
sVcharge
p389
F0
sVtag
p390
I0
sVposition
p391
(lp392
F1.198173572929268
aF8.4465119527260875
aF18.77848398764915
asVmomentum
p393
(lp394
F0
aF0
aF0
asa(dp395
Vmagmom
p396
F0
sVindex
p397
I34
sVsymbol
p398
VCu
p399
sVcharge
p400
F0
sVtag
p401
I0
sVposition
p402
(lp403
F1.1981735729292675
aF13.022079640423247
aF15.041773928126885
asVmomentum
p404
(lp405
F0
aF0
aF0
asa(dp406
Vmagmom
p407
F0
sVindex
p408
I35
sVsymbol
p409
VCu
p410
sVcharge
p411
F0
sVtag
p412
I0
sVposition
p413
(lp414
F1.1981735729292682
aF3.870944265028923
aF22.515194047171413
asVmomentum
p415
(lp416
F0
aF0
aF0
asa(dp417
Vmagmom
p418
F0
sVindex
p419
I36
sVsymbol
p420
VCu
p421
sVcharge
p422
F0
sVtag
p423
I0
sVposition
p424
(lp425
F1.1981735729292677
aF10.741183032569539
aF21.588287980888914
asVmomentum
p426
(lp427
F0
aF0
aF0
asa(dp428
Vmagmom
p429
F0
sVindex
p430
I37
sVsymbol
p431
VCu
p432
sVcharge
p433
F0
sVtag
p434
I0
sVposition
p435
(lp436
F1.1981735729292684
aF1.5900476571752176
aF19.722256770360648
asVmomentum
p437
(lp438
F0
aF0
aF0
asa(dp439
Vmagmom
p440
F0
sVindex
p441
I38
sVsymbol
p442
VCu
p443
sVcharge
p444
F0
sVtag
p445
I0
sVposition
p446
(lp447
F1.1981735729292682
aF6.1656153448723776
aF15.985546710838388
asVmomentum
p448
(lp449
F0
aF0
aF0
asa(dp450
Vmagmom
p451
F0
sVindex
p452
I39
sVsymbol
p453
VCu
p454
sVcharge
p455
F0
sVtag
p456
I0
sVposition
p457
(lp458
F2.3821749403777677
aF6.6509275072356644
aF20.258934486451498
asVmomentum
p459
(lp460
F0
aF0
aF0
asa(dp461
Vmagmom
p462
F0
sVindex
p463
I40
sVsymbol
p464
VCu
p465
sVcharge
p466
F0
sVtag
p467
I0
sVposition
p468
(lp469
F2.3821749403777672
aF11.226495194932827
aF16.522224426929235
asVmomentum
p470
(lp471
F0
aF0
aF0
asa(dp472
Vmagmom
p473
F0
sVindex
p474
I41
sVsymbol
p475
VCu
p476
sVcharge
p477
F0
sVtag
p478
I0
sVposition
p479
(lp480
F2.3821749403777677
aF2.0753598195385026
aF14.656193216400968
asVmomentum
p481
(lp482
F0
aF0
aF0
asa(dp483
Vmagmom
p484
F0
sVindex
p485
I42
sVsymbol
p486
VCu
p487
sVcharge
p488
F0
sVtag
p489
I0
sVposition
p490
(lp491
F3.5253475296288603
aF9.3704466356992739
aF18.037995976085437
asVmomentum
p492
(lp493
F0
aF0
aF0
asa(dp494
Vmagmom
p495
F0
sVindex
p496
I43
sVsymbol
p497
VCu
p498
sVcharge
p499
F0
sVtag
p500
I0
sVposition
p501
(lp502
F3.5253475296288608
aF0.21931126030495207
aF16.171964765557178
asVmomentum
p503
(lp504
F0
aF0
aF0
asa(dp505
Vmagmom
p506
F0
sVindex
p507
I44
sVsymbol
p508
VCu
p509
sVcharge
p510
F0
sVtag
p511
I0
sVposition
p512
(lp513
F3.5253475296288608
aF4.7948789480021095
aF21.774706035607704
asVmomentum
p514
(lp515
F0
aF0
aF0
asa(dp516
Vmagmom
p517
F0
sVindex
p518
I45
sVsymbol
p519
VCu
p520
sVcharge
p521
F0
sVtag
p522
I0
sVposition
p523
(lp524
F4.7093488970773603
aF9.8557587980625598
aF12.971932422125755
asVmomentum
p525
(lp526
F0
aF0
aF0
asa(dp527
Vmagmom
p528
F0
sVindex
p529
I46
sVsymbol
p530
VCu
p531
sVcharge
p532
F0
sVtag
p533
I0
sVposition
p534
(lp535
F4.7093488970773612
aF0.70462342266823796
aF20.445352541170287
asVmomentum
p536
(lp537
F0
aF0
aF0
asa(dp538
Vmagmom
p539
F0
sVindex
p540
I47
sVsymbol
p541
VCu
p542
sVcharge
p543
F0
sVtag
p544
I0
sVposition
p545
(lp546
F4.7093488970773603
aF5.2801911103653953
aF16.70864248164802
asVmomentum
p547
(lp548
F0
aF0
aF0
asa(dp549
Vmagmom
p550
F0
sVindex
p551
I48
sVsymbol
p552
VPd
p553
sVcharge
p554
F0
sVtag
p555
I0
sVposition
p556
(lp557
F4.1800760591963826
aF5.0435946364952819
aF19.229696619562485
asVmomentum
p558
(lp559
F0
aF0
aF0
asa(dp560
Vmagmom
p561
F0
sVindex
p562
I49
sVsymbol
p563
VPd
p564
sVcharge
p565
F0
sVtag
p566
I0
sVposition
p567
(lp568
F4.1800760591963817
aF9.6191623241924429
aF15.492986560040226
asVmomentum
p569
(lp570
F0
aF0
aF0
asa(dp571
Vmagmom
p572
F0
sVindex
p573
I50
sVsymbol
p574
VPd
p575
sVcharge
p576
F0
sVtag
p577
I0
sVposition
p578
(lp579
F4.1800760591963826
aF0.46802694879811746
aF22.966406679084752
asVmomentum
p580
(lp581
F0
aF0
aF0
asa(dp582
Vmagmom
p583
F0
sVindex
p584
I51
sVsymbol
p585
VPd
p586
sVcharge
p587
F0
sVtag
p588
I0
sVposition
p589
(lp590
F5.3032521574882976
aF10.100955966515246
aF19.7692477909549
asVmomentum
p591
(lp592
F0
aF0
aF0
asa(dp593
Vmagmom
p594
F0
sVindex
p595
I52
sVsymbol
p596
VPd
p597
sVcharge
p598
F0
sVtag
p599
I0
sVposition
p600
(lp601
F5.3032521574882985
aF0.94982059112092188
aF17.903216580426641
asVmomentum
p602
(lp603
F0
aF0
aF0
asa(dp604
Vmagmom
p605
F0
sVindex
p606
I53
sVsymbol
p607
VPd
p608
sVcharge
p609
F0
sVtag
p610
I0
sVposition
p611
(lp612
F5.3032521574882976
aF5.5253882788180846
aF14.166506520904374
asVmomentum
p613
(lp614
F0
aF0
aF0
asa(dp615
Vmagmom
p616
F0
sVindex
p617
I54
sVsymbol
p618
VPd
p619
sVcharge
p620
F0
sVtag
p621
I0
sVposition
p622
(lp623
F0.60427031251832886
aF8.2013147842734018
aF21.320619948392796
asVmomentum
p624
(lp625
F0
aF0
aF0
asa(dp626
Vmagmom
p627
F0
sVindex
p628
I55
sVsymbol
p629
VPd
p630
sVcharge
p631
F0
sVtag
p632
I0
sVposition
p633
(lp634
F0.60427031251832852
aF12.776882471970561
aF17.583909888870533
asVmomentum
p635
(lp636
F0
aF0
aF0
asa(dp637
Vmagmom
p638
F0
sVindex
p639
I56
sVsymbol
p640
VPd
p641
sVcharge
p642
F0
sVtag
p643
I0
sVposition
p644
(lp645
F0.6042703125183293
aF3.6257470965762399
aF15.71787867834227
asVmomentum
p646
(lp647
F0
aF0
aF0
asa(dp648
Vmagmom
p649
F0
sVindex
p650
I57
sVsymbol
p651
VPd
p652
sVcharge
p653
F0
sVtag
p654
I0
sVposition
p655
(lp656
F1.7274464108102463
aF8.6831084265962009
aF16.257429849734681
asVmomentum
p657
(lp658
F0
aF0
aF0
asa(dp659
Vmagmom
p660
F0
sVindex
p661
I58
sVsymbol
p662
VPd
p663
sVcharge
p664
F0
sVtag
p665
I0
sVposition
p666
(lp667
F1.7274464108102459
aF13.258676114293365
aF12.520719790212421
asVmomentum
p668
(lp669
F0
aF0
aF0
asa(dp670
Vmagmom
p671
F0
sVindex
p672
I59
sVsymbol
p673
VPd
p674
sVcharge
p675
F0
sVtag
p676
I0
sVposition
p677
(lp678
F1.7274464108102467
aF4.107540738899039
aF19.994139909256951
asVmomentum
p679
(lp680
F0
aF0
aF0
asasVcell
p681
(lp682
(lp683
F5.9075224700066293
aF2.9582283945787943e-31
aF0
aa(lp684
F-1.1780635879935481e-15
aF13.726703063091485
aF-1.8706788489939976
aa(lp685
F5.9164567891575885e-31
aF0
aF37.35780531829117
aasVmass
p686
F4327.2479999999987
sVpbc
p687
(lp688
I01
aI01
aI01
asVspacegroup
p689
VP-1 (2)
p690
sVconstraints
p691
(lp692
(dp693
Vname
p694
VFixAtoms
p695
sVkwargs
p696
(dp697
Vindices
p698
(lp699
I0
aI1
aI4
aI5
aI6
aI7
aI10
aI11
aI12
aI13
aI16
aI17
aI19
aI20
aI21
aI22
aI25
aI26
aI28
aI29
aI30
aI32
aI33
aI34
aI37
aI38
aI40
aI41
aI42
aI43
aI45
aI47
aI48
aI49
aI52
aI53
aI55
aI56
aI57
aI58
assasaa(lp700
S'results'
p701
ag2
((ltRp702
aa(lp703
S'user'
p704
aS'ktran'
p705
aa(lp706
S'inserted-hash'
p707
aS'eb29a04d232fdb13504c3ec256a3c19ff5824bd8'
p708
aa(lp709
S'ctime'
p710
acdatetime
datetime
p711
(S'\x07\xe1\x03\x1f\x13-\x06\x00\x01\xdc'
tRp712
aa(lp713
S'mtime'
p714
ag711
(S'\x07\xe1\x03\x1f\x13-\x06\x00\x02\x01'
tRp715
aa(lp716
S'tags'
p717
a(dp718
S'get_slab_settings'
p719
g2
((lp720
(lp721
S'max_broken_bonds'
p722
aI0
aa(lp723
S'bonds'
p724
aNaa(lp725
S'tol'
p726
aF0.29999999999999999
aa(lp727
S'symmetrize'
p728
aI00
aatRp729
sS'relaxed'
p730
I00
sS'mpid'
p731
Vmp-30594
p732
sS'shift'
p733
cnumpy.core.multiarray
scalar
p734
(cnumpy
dtype
p735
(S'f8'
I0
I1
tRp736
(I3
S'<'
NNNI-1
I-1
I0
tbS'\x00\x00\x00\x00\x00\x00\x00\x00'
tRp737
sS'slab_generate_settings'
p738
g2
((lp739
(lp740
S'primitive'
p741
aI01
aa(lp742
S'min_vacuum_size'
p743
aF20
aa(lp744
S'lll_reduce'
p745
aI00
aa(lp746
S'max_normal_search'
p747
aI1
aa(lp748
S'min_slab_size'
p749
aF7
aa(lp750
S'center_slab'
p751
aI01
aatRp752
sS'miller'
p753
(I1
I0
I2
tp754
sS'top'
p755
I01
sS'type'
p756
S'slab'
p757
sS'num_slab_atoms'
p758
I60
saatRp759
ag2
((lp760
(lp761
g5
a(dp762
Vinfo
p763
(dp764
sVvolume
p765
F3029.3745729518605
sVnatoms
p766
I60
sVsymbol_counts
p767
(dp768
VCu
p769
I48
sVPd
p770
I12
ssVchemical_symbols
p771
(lp772
VPd
p773
aVCu
p774
asVatoms
p775
(lp776
(dp777
Vmagmom
p778
F0
sVindex
p779
I0
sVsymbol
p780
VCu
p781
sVcharge
p782
F0
sVtag
p783
I0
sVposition
p784
(lp785
F2.9537612350033142
aF6.8633515315457423
aF17.120933146010401
asVmomentum
p786
(lp787
F0
aF0
aF0
asa(dp788
Vmagmom
p789
F0
sVindex
p790
I1
sVsymbol
p791
VCu
p792
sVcharge
p793
F0
sVtag
p794
I0
sVposition
p795
(lp796
F2.9537612350033138
aF11.438919219242903
aF13.384223086488138
asVmomentum
p797
(lp798
F0
aF0
aF0
asa(dp799
Vmagmom
p800
F0
sVindex
p801
I2
sVsymbol
p802
VCu
p803
sVcharge
p804
F0
sVtag
p805
I0
sVposition
p806
(lp807
F2.9537612350033147
aF2.2877838438485814
aF20.857643205532664
asVmomentum
p808
(lp809
F0
aF0
aF0
asa(dp810
Vmagmom
p811
F0
sVindex
p812
I3
sVsymbol
p813
VCu
p814
sVcharge
p815
F0
sVtag
p816
I0
sVposition
p817
(lp818
F2.9537612350033138
aF9.1511353753943254
aF19.922303781035666
asVmomentum
p819
(lp820
F0
aF0
aF0
asa(dp821
Vmagmom
p822
F0
sVindex
p823
I4
sVsymbol
p824
VCu
p825
sVcharge
p826
F0
sVtag
p827
I0
sVposition
p828
(lp829
F2.9537612350033147
aF-1.7763568394002505e-15
aF18.056272570507399
asVmomentum
p830
(lp831
F0
aF0
aF0
asa(dp832
Vmagmom
p833
F0
sVindex
p834
I5
sVsymbol
p835
VCu
p836
sVcharge
p837
F0
sVtag
p838
I0
sVposition
p839
(lp840
F2.9537612350033142
aF4.5755676876971618
aF14.319562510985136
asVmomentum
p841
(lp842
F0
aF0
aF0
asa(dp843
Vmagmom
p844
F0
sVindex
p845
I6
sVsymbol
p846
VCu
p847
sVcharge
p848
F0
sVtag
p849
I0
sVposition
p850
(lp851
F-8.8354769099516061e-16
aF10.29502729731861
aF16.653263433761904
asVmomentum
p852
(lp853
F0
aF0
aF0
asa(dp854
Vmagmom
p855
F0
sVindex
p856
I7
sVsymbol
p857
VCu
p858
sVcharge
p859
F0
sVtag
p860
I0
sVposition
p861
(lp862
F-9.8171965666128759e-17
aF1.1438919219242898
aF14.787232223233637
asVmomentum
p863
(lp864
F0
aF0
aF0
asa(dp865
Vmagmom
p866
F0
sVindex
p867
I8
sVsymbol
p868
VCu
p869
sVcharge
p870
F0
sVtag
p871
I0
sVposition
p872
(lp873
F-4.9085982833064468e-16
aF5.7194596096214498
aF20.389973493284167
asVmomentum
p874
(lp875
F0
aF0
aF0
asa(dp876
Vmagmom
p877
F0
sVindex
p878
I9
sVsymbol
p879
VCu
p880
sVcharge
p881
F0
sVtag
p882
I0
sVposition
p883
(lp884
F-1.0798916223274189e-15
aF12.582811141167197
aF19.454634068787168
asVmomentum
p885
(lp886
F0
aF0
aF0
asa(dp887
Vmagmom
p888
F0
sVindex
p889
I10
sVsymbol
p890
VCu
p891
sVcharge
p892
F0
sVtag
p893
I0
sVposition
p894
(lp895
F-2.9451589699838667e-16
aF3.4316757657728711
aF17.588602858258902
asVmomentum
p896
(lp897
F0
aF0
aF0
asa(dp898
Vmagmom
p899
F0
sVindex
p900
I11
sVsymbol
p901
VCu
p902
sVcharge
p903
F0
sVtag
p904
I0
sVposition
p905
(lp906
F-6.8720375966290269e-16
aF8.0072434534700303
aF13.851892798736639
asVmomentum
p907
(lp908
F0
aF0
aF0
asa(dp909
Vmagmom
p910
F0
sVindex
p911
I12
sVsymbol
p912
VCu
p913
sVcharge
p914
F0
sVtag
p915
I0
sVposition
p916
(lp917
F0.61399746179176873
aF5.9836759030145563
aF17.839334226402549
asVmomentum
p918
(lp919
F0
aF0
aF0
asa(dp920
Vmagmom
p921
F0
sVindex
p922
I13
sVsymbol
p923
VCu
p924
sVcharge
p925
F0
sVtag
p926
I0
sVposition
p927
(lp928
F0.61399746179176828
aF10.559243590711716
aF14.10262416688029
asVmomentum
p929
(lp930
F0
aF0
aF0
asa(dp931
Vmagmom
p932
F0
sVindex
p933
I14
sVsymbol
p934
VCu
p935
sVcharge
p936
F0
sVtag
p937
I0
sVposition
p938
(lp939
F0.61399746179176917
aF1.4081082153173909
aF21.576044285924809
asVmomentum
p940
(lp941
F0
aF0
aF0
asa(dp942
Vmagmom
p943
F0
sVindex
p944
I15
sVsymbol
p945
VCu
p946
sVcharge
p947
F0
sVtag
p948
I0
sVposition
p949
(lp950
F4.089511790248765
aF7.338912472831395
aF21.402284411266862
asVmomentum
p951
(lp952
F0
aF0
aF0
asa(dp953
Vmagmom
p954
F0
sVindex
p955
I16
sVsymbol
p956
VCu
p957
sVcharge
p958
F0
sVtag
p959
I0
sVposition
p960
(lp961
F4.0895117902487641
aF11.914480160528553
aF17.665574351744596
asVmomentum
p962
(lp963
F0
aF0
aF0
asa(dp964
Vmagmom
p965
F0
sVindex
p966
I17
sVsymbol
p967
VCu
p968
sVcharge
p969
F0
sVtag
p970
I0
sVposition
p971
(lp972
F4.089511790248765
aF2.7633447851342323
aF15.799543141216329
asVmomentum
p973
(lp974
F0
aF0
aF0
asa(dp975
Vmagmom
p976
F0
sVindex
p977
I18
sVsymbol
p978
VCu
p979
sVcharge
p980
F0
sVtag
p981
I0
sVposition
p982
(lp983
F1.8180106797578632
aF10.963358277957248
aF18.442323150804469
asVmomentum
p984
(lp985
F0
aF0
aF0
asa(dp986
Vmagmom
p987
F0
sVindex
p988
I19
sVsymbol
p989
VCu
p990
sVcharge
p991
F0
sVtag
p992
I0
sVposition
p993
(lp994
F1.8180106797578641
aF1.8122229025629277
aF16.576291940276207
asVmomentum
p995
(lp996
F0
aF0
aF0
asa(dp997
Vmagmom
p998
F0
sVindex
p999
I20
sVsymbol
p1000
VCu
p1001
sVcharge
p1002
F0
sVtag
p1003
I0
sVposition
p1004
(lp1005
F1.8180106797578637
aF6.3877905902600869
aF22.179033210326736
asVmomentum
p1006
(lp1007
F0
aF0
aF0
asa(dp1008
Vmagmom
p1009
F0
sVindex
p1010
I21
sVsymbol
p1011
VCu
p1012
sVcharge
p1013
F0
sVtag
p1014
I0
sVposition
p1015
(lp1016
F5.2935250082148588
aF7.74302716007693
aF16.402532065618249
asVmomentum
p1017
(lp1018
F0
aF0
aF0
asa(dp1019
Vmagmom
p1020
F0
sVindex
p1021
I22
sVsymbol
p1022
VCu
p1023
sVcharge
p1024
F0
sVtag
p1025
I0
sVposition
p1026
(lp1027
F5.2935250082148588
aF12.318594847774092
aF12.665822006095986
asVmomentum
p1028
(lp1029
F0
aF0
aF0
asa(dp1030
Vmagmom
p1031
F0
sVindex
p1032
I23
sVsymbol
p1033
VCu
p1034
sVcharge
p1035
F0
sVtag
p1036
I0
sVposition
p1037
(lp1038
F5.2935250082148597
aF3.1674594723797691
aF20.139242125140512
asVmomentum
p1039
(lp1040
F0
aF0
aF0
asa(dp1041
Vmagmom
p1042
F0
sVindex
p1043
I24
sVsymbol
p1044
VCu
p1045
sVcharge
p1046
F0
sVtag
p1047
I0
sVposition
p1048
(lp1049
F4.7093488970773603
aF7.5610877182191052
aF18.878949669820599
asVmomentum
p1050
(lp1051
F0
aF0
aF0
asa(dp1052
Vmagmom
p1053
F0
sVindex
p1054
I25
sVsymbol
p1055
VCu
p1056
sVcharge
p1057
F0
sVtag
p1058
I0
sVposition
p1059
(lp1060
F4.7093488970773603
aF12.136655405916265
aF15.142239610298335
asVmomentum
p1061
(lp1062
F0
aF0
aF0
asa(dp1063
Vmagmom
p1064
F0
sVindex
p1065
I26
sVsymbol
p1066
VCu
p1067
sVcharge
p1068
F0
sVtag
p1069
I0
sVposition
p1070
(lp1071
F4.7093488970773612
aF2.9855200305219416
aF22.615659729342859
asVmomentum
p1072
(lp1073
F0
aF0
aF0
asa(dp1074
Vmagmom
p1075
F0
sVindex
p1076
I27
sVsymbol
p1077
VCu
p1078
sVcharge
p1079
F0
sVtag
p1080
I0
sVposition
p1081
(lp1082
F3.5253475296288599
aF11.651343243552979
aF20.208303164258016
asVmomentum
p1083
(lp1084
F0
aF0
aF0
asa(dp1085
Vmagmom
p1086
F0
sVindex
p1087
I28
sVsymbol
p1088
VCu
p1089
sVcharge
p1090
F0
sVtag
p1091
I0
sVposition
p1092
(lp1093
F3.5253475296288603
aF2.5002078681586575
aF18.34227195372975
asVmomentum
p1094
(lp1095
F0
aF0
aF0
asa(dp1096
Vmagmom
p1097
F0
sVindex
p1098
I29
sVsymbol
p1099
VCu
p1100
sVcharge
p1101
F0
sVtag
p1102
I0
sVposition
p1103
(lp1104
F3.5253475296288603
aF7.0757755558558184
aF14.605561894207488
asVmomentum
p1105
(lp1106
F0
aF0
aF0
asa(dp1107
Vmagmom
p1108
F0
sVindex
p1109
I30
sVsymbol
p1110
VCu
p1111
sVcharge
p1112
F0
sVtag
p1113
I0
sVposition
p1114
(lp1115
F2.3821749403777672
aF8.9318241150893698
aF13.089790345051279
asVmomentum
p1116
(lp1117
F0
aF0
aF0
asa(dp1118
Vmagmom
p1119
F0
sVindex
p1120
I31
sVsymbol
p1121
VCu
p1122
sVcharge
p1123
F0
sVtag
p1124
I0
sVposition
p1125
(lp1126
F2.3821749403777668
aF13.507391802786533
aF18.692531615101807
asVmomentum
p1127
(lp1128
F0
aF0
aF0
asa(dp1129
Vmagmom
p1130
F0
sVindex
p1131
I32
sVsymbol
p1132
VCu
p1133
sVcharge
p1134
F0
sVtag
p1135
I0
sVposition
p1136
(lp1137
F2.3821749403777677
aF4.3562564273922071
aF16.826500404573544
asVmomentum
p1138
(lp1139
F0
aF0
aF0
asa(dp1140
Vmagmom
p1141
F0
sVindex
p1142
I33
sVsymbol
p1143
VCu
p1144
sVcharge
p1145
F0
sVtag
p1146
I0
sVposition
p1147
(lp1148
F1.1981735729292677
aF8.4465119527260857
aF18.155853899010967
asVmomentum
p1149
(lp1150
F0
aF0
aF0
asa(dp1151
Vmagmom
p1152
F0
sVindex
p1153
I34
sVsymbol
p1154
VCu
p1155
sVcharge
p1156
F0
sVtag
p1157
I0
sVposition
p1158
(lp1159
F1.1981735729292675
aF13.022079640423247
aF14.419143839488704
asVmomentum
p1160
(lp1161
F0
aF0
aF0
asa(dp1162
Vmagmom
p1163
F0
sVindex
p1164
I35
sVsymbol
p1165
VCu
p1166
sVcharge
p1167
F0
sVtag
p1168
I0
sVposition
p1169
(lp1170
F1.1981735729292682
aF3.8709442650289212
aF21.892563958533227
asVmomentum
p1171
(lp1172
F0
aF0
aF0
asa(dp1173
Vmagmom
p1174
F0
sVindex
p1175
I36
sVsymbol
p1176
VCu
p1177
sVcharge
p1178
F0
sVtag
p1179
I0
sVposition
p1180
(lp1181
F1.1981735729292675
aF10.741183032569541
aF20.965657892250736
asVmomentum
p1182
(lp1183
F0
aF0
aF0
asa(dp1184
Vmagmom
p1185
F0
sVindex
p1186
I37
sVsymbol
p1187
VCu
p1188
sVcharge
p1189
F0
sVtag
p1190
I0
sVposition
p1191
(lp1192
F1.1981735729292684
aF1.5900476571752176
aF19.099626681722466
asVmomentum
p1193
(lp1194
F0
aF0
aF0
asa(dp1195
Vmagmom
p1196
F0
sVindex
p1197
I38
sVsymbol
p1198
VCu
p1199
sVcharge
p1200
F0
sVtag
p1201
I0
sVposition
p1202
(lp1203
F1.198173572929268
aF6.1656153448723767
aF15.362916622200204
asVmomentum
p1204
(lp1205
F0
aF0
aF0
asa(dp1206
Vmagmom
p1207
F0
sVindex
p1208
I39
sVsymbol
p1209
VCu
p1210
sVcharge
p1211
F0
sVtag
p1212
I0
sVposition
p1213
(lp1214
F2.3821749403777677
aF6.6509275072356644
aF19.636304397813312
asVmomentum
p1215
(lp1216
F0
aF0
aF0
asa(dp1217
Vmagmom
p1218
F0
sVindex
p1219
I40
sVsymbol
p1220
VCu
p1221
sVcharge
p1222
F0
sVtag
p1223
I0
sVposition
p1224
(lp1225
F2.3821749403777672
aF11.226495194932827
aF15.899594338291053
asVmomentum
p1226
(lp1227
F0
aF0
aF0
asa(dp1228
Vmagmom
p1229
F0
sVindex
p1230
I41
sVsymbol
p1231
VCu
p1232
sVcharge
p1233
F0
sVtag
p1234
I0
sVposition
p1235
(lp1236
F2.3821749403777681
aF2.0753598195385026
aF14.033563127762784
asVmomentum
p1237
(lp1238
F0
aF0
aF0
asa(dp1239
Vmagmom
p1240
F0
sVindex
p1241
I42
sVsymbol
p1242
VCu
p1243
sVcharge
p1244
F0
sVtag
p1245
I0
sVposition
p1246
(lp1247
F3.5253475296288603
aF9.3704466356992722
aF17.415365887447251
asVmomentum
p1248
(lp1249
F0
aF0
aF0
asa(dp1250
Vmagmom
p1251
F0
sVindex
p1252
I43
sVsymbol
p1253
VCu
p1254
sVcharge
p1255
F0
sVtag
p1256
I0
sVposition
p1257
(lp1258
F3.5253475296288608
aF0.21931126030495118
aF15.549334676918994
asVmomentum
p1259
(lp1260
F0
aF0
aF0
asa(dp1261
Vmagmom
p1262
F0
sVindex
p1263
I44
sVsymbol
p1264
VCu
p1265
sVcharge
p1266
F0
sVtag
p1267
I0
sVposition
p1268
(lp1269
F3.5253475296288603
aF4.7948789480021077
aF21.152075946969518
asVmomentum
p1270
(lp1271
F0
aF0
aF0
asa(dp1272
Vmagmom
p1273
F0
sVindex
p1274
I45
sVsymbol
p1275
VCu
p1276
sVcharge
p1277
F0
sVtag
p1278
I0
sVposition
p1279
(lp1280
F4.7093488970773603
aF9.8557587980625598
aF21.688753663060364
asVmomentum
p1281
(lp1282
F0
aF0
aF0
asa(dp1283
Vmagmom
p1284
F0
sVindex
p1285
I46
sVsymbol
p1286
VCu
p1287
sVcharge
p1288
F0
sVtag
p1289
I0
sVposition
p1290
(lp1291
F4.7093488970773612
aF0.70462342266823796
aF19.822722452532101
asVmomentum
p1292
(lp1293
F0
aF0
aF0
asa(dp1294
Vmagmom
p1295
F0
sVindex
p1296
I47
sVsymbol
p1297
VCu
p1298
sVcharge
p1299
F0
sVtag
p1300
I0
sVposition
p1301
(lp1302
F4.7093488970773603
aF5.2801911103653989
aF16.086012393009838
asVmomentum
p1303
(lp1304
F0
aF0
aF0
asa(dp1305
Vmagmom
p1306
F0
sVindex
p1307
I48
sVsymbol
p1308
VPd
p1309
sVcharge
p1310
F0
sVtag
p1311
I0
sVposition
p1312
(lp1313
F4.1800760591963826
aF5.0435946364952819
aF18.6070665309243
asVmomentum
p1314
(lp1315
F0
aF0
aF0
asa(dp1316
Vmagmom
p1317
F0
sVindex
p1318
I49
sVsymbol
p1319
VPd
p1320
sVcharge
p1321
F0
sVtag
p1322
I0
sVposition
p1323
(lp1324
F4.1800760591963817
aF9.6191623241924429
aF14.87035647140204
asVmomentum
p1325
(lp1326
F0
aF0
aF0
asa(dp1327
Vmagmom
p1328
F0
sVindex
p1329
I50
sVsymbol
p1330
VPd
p1331
sVcharge
p1332
F0
sVtag
p1333
I0
sVposition
p1334
(lp1335
F4.1800760591963826
aF0.46802694879811924
aF22.343776590446566
asVmomentum
p1336
(lp1337
F0
aF0
aF0
asa(dp1338
Vmagmom
p1339
F0
sVindex
p1340
I51
sVsymbol
p1341
VPd
p1342
sVcharge
p1343
F0
sVtag
p1344
I0
sVposition
p1345
(lp1346
F5.3032521574882976
aF10.100955966515244
aF19.146617702316714
asVmomentum
p1347
(lp1348
F0
aF0
aF0
asa(dp1349
Vmagmom
p1350
F0
sVindex
p1351
I52
sVsymbol
p1352
VPd
p1353
sVcharge
p1354
F0
sVtag
p1355
I0
sVposition
p1356
(lp1357
F5.3032521574882985
aF0.94982059112092188
aF17.280586491788455
asVmomentum
p1358
(lp1359
F0
aF0
aF0
asa(dp1360
Vmagmom
p1361
F0
sVindex
p1362
I53
sVsymbol
p1363
VPd
p1364
sVcharge
p1365
F0
sVtag
p1366
I0
sVposition
p1367
(lp1368
F5.3032521574882976
aF5.5253882788180828
aF13.543876432266188
asVmomentum
p1369
(lp1370
F0
aF0
aF0
asa(dp1371
Vmagmom
p1372
F0
sVindex
p1373
I54
sVsymbol
p1374
VPd
p1375
sVcharge
p1376
F0
sVtag
p1377
I0
sVposition
p1378
(lp1379
F0.60427031251832897
aF8.2013147842734035
aF20.697989859754614
asVmomentum
p1380
(lp1381
F0
aF0
aF0
asa(dp1382
Vmagmom
p1383
F0
sVindex
p1384
I55
sVsymbol
p1385
VPd
p1386
sVcharge
p1387
F0
sVtag
p1388
I0
sVposition
p1389
(lp1390
F0.60427031251832852
aF12.776882471970561
aF16.961279800232347
asVmomentum
p1391
(lp1392
F0
aF0
aF0
asa(dp1393
Vmagmom
p1394
F0
sVindex
p1395
I56
sVsymbol
p1396
VPd
p1397
sVcharge
p1398
F0
sVtag
p1399
I0
sVposition
p1400
(lp1401
F0.6042703125183293
aF3.6257470965762391
aF15.095248589704084
asVmomentum
p1402
(lp1403
F0
aF0
aF0
asa(dp1404
Vmagmom
p1405
F0
sVindex
p1406
I57
sVsymbol
p1407
VPd
p1408
sVcharge
p1409
F0
sVtag
p1410
I0
sVposition
p1411
(lp1412
F1.7274464108102463
aF8.6831084265962044
aF15.634799761096499
asVmomentum
p1413
(lp1414
F0
aF0
aF0
asa(dp1415
Vmagmom
p1416
F0
sVindex
p1417
I58
sVsymbol
p1418
VPd
p1419
sVcharge
p1420
F0
sVtag
p1421
I0
sVposition
p1422
(lp1423
F1.7274464108102459
aF13.258676114293362
aF21.237541031147028
asVmomentum
p1424
(lp1425
F0
aF0
aF0
asa(dp1426
Vmagmom
p1427
F0
sVindex
p1428
I59
sVsymbol
p1429
VPd
p1430
sVcharge
p1431
F0
sVtag
p1432
I0
sVposition
p1433
(lp1434
F1.7274464108102467
aF4.1075407388990417
aF19.371509820618762
asVmomentum
p1435
(lp1436
F0
aF0
aF0
asasVcell
p1437
(lp1438
(lp1439
F5.9075224700066293
aF2.9582283945787943e-31
aF0
aa(lp1440
F-1.1780635879935481e-15
aF13.726703063091485
aF-1.8706788489939976
aa(lp1441
F5.9164567891575885e-31
aF0
aF37.35780531829117
aasVmass
p1442
F4327.2479999999987
sVpbc
p1443
(lp1444
I01
aI01
aI01
asVspacegroup
p1445
VP1 (1)
p1446
sVconstraints
p1447
(lp1448
(dp1449
Vname
p1450
VFixAtoms
p1451
sVkwargs
p1452
(dp1453
Vindices
p1454
(lp1455
I0
aI1
aI4
aI5
aI6
aI7
aI10
aI11
aI12
aI13
aI16
aI17
aI18
aI19
aI21
aI22
aI24
aI25
aI28
aI29
aI30
aI32
aI33
aI34
aI37
aI38
aI40
aI41
aI42
aI43
aI46
aI47
aI48
aI49
aI52
aI53
aI55
aI56
aI57
aI59
assasaa(lp1456
g701
ag2
((ltRp1457
aa(lp1458
g704
ag705
aa(lp1459
g707
aS'7ab51c18fc0ac9ff600714b21b210c7c2049da0a'
p1460
aa(lp1461
g710
ag711
(S'\x07\xe1\x03\x1f\x13-\x06\x00Y\xbe'
tRp1462
aa(lp1463
g714
ag711
(S'\x07\xe1\x03\x1f\x13-\x06\x00Y\xc8'
tRp1464
aa(lp1465
g717
a(dp1466
g719
g729
sg730
I00
sg731
g732
sg733
g734
(g736
S'\xbd\xa3t\x865\xd7\xb0?'
tRp1467
sg738
g752
sg753
g754
sg755
I01
sg756
g757
sg758
I60
saatRp1468
ag2
((lp1469
(lp1470
g5
a(dp1471
Vinfo
p1472
(dp1473
sVvolume
p1474
F3029.3745729518605
sVnatoms
p1475
I60
sVsymbol_counts
p1476
(dp1477
VCu
p1478
I48
sVPd
p1479
I12
ssVchemical_symbols
p1480
(lp1481
VPd
p1482
aVCu
p1483
asVatoms
p1484
(lp1485
(dp1486
Vmagmom
p1487
F0
sVindex
p1488
I0
sVsymbol
p1489
VCu
p1490
sVcharge
p1491
F0
sVtag
p1492
I0
sVposition
p1493
(lp1494
F2.9537612350033142
aF-6.8633515315457441
aF-17.120933146010401
asVmomentum
p1495
(lp1496
F0
aF0
aF0
asa(dp1497
Vmagmom
p1498
F0
sVindex
p1499
I1
sVsymbol
p1500
VCu
p1501
sVcharge
p1502
F0
sVtag
p1503
I0
sVposition
p1504
(lp1505
F2.9537612350033138
aF-11.438919219242905
aF-13.384223086488136
asVmomentum
p1506
(lp1507
F0
aF0
aF0
asa(dp1508
Vmagmom
p1509
F0
sVindex
p1510
I2
sVsymbol
p1511
VCu
p1512
sVcharge
p1513
F0
sVtag
p1514
I0
sVposition
p1515
(lp1516
F2.9537612350033147
aF-2.287783843848584
aF-20.857643205532664
asVmomentum
p1517
(lp1518
F0
aF0
aF0
asa(dp1519
Vmagmom
p1520
F0
sVindex
p1521
I3
sVsymbol
p1522
VCu
p1523
sVcharge
p1524
F0
sVtag
p1525
I0
sVposition
p1526
(lp1527
F2.9537612350033138
aF-9.1511353753943272
aF-19.922303781035666
asVmomentum
p1528
(lp1529
F0
aF0
aF0
asa(dp1530
Vmagmom
p1531
F0
sVindex
p1532
I4
sVsymbol
p1533
VCu
p1534
sVcharge
p1535
F0
sVtag
p1536
I0
sVposition
p1537
(lp1538
F2.9537612350033147
aF-4.3489880140015341e-16
aF-18.056272570507399
asVmomentum
p1539
(lp1540
F0
aF0
aF0
asa(dp1541
Vmagmom
p1542
F0
sVindex
p1543
I5
sVsymbol
p1544
VCu
p1545
sVcharge
p1546
F0
sVtag
p1547
I0
sVposition
p1548
(lp1549
F2.9537612350033142
aF-4.5755676876971636
aF-14.319562510985136
asVmomentum
p1550
(lp1551
F0
aF0
aF0
asa(dp1552
Vmagmom
p1553
F0
sVindex
p1554
I6
sVsymbol
p1555
VCu
p1556
sVcharge
p1557
F0
sVtag
p1558
I0
sVposition
p1559
(lp1560
F-8.8354769099516061e-16
aF-10.295027297318612
aF-16.653263433761904
asVmomentum
p1561
(lp1562
F0
aF0
aF0
asa(dp1563
Vmagmom
p1564
F0
sVindex
p1565
I7
sVsymbol
p1566
VCu
p1567
sVcharge
p1568
F0
sVtag
p1569
I0
sVposition
p1570
(lp1571
F-9.8171965666128759e-17
aF-1.1438919219242916
aF-14.787232223233637
asVmomentum
p1572
(lp1573
F0
aF0
aF0
asa(dp1574
Vmagmom
p1575
F0
sVindex
p1576
I8
sVsymbol
p1577
VCu
p1578
sVcharge
p1579
F0
sVtag
p1580
I0
sVposition
p1581
(lp1582
F-4.9085982833064468e-16
aF-5.7194596096214525
aF-20.389973493284167
asVmomentum
p1583
(lp1584
F0
aF0
aF0
asa(dp1585
Vmagmom
p1586
F0
sVindex
p1587
I9
sVsymbol
p1588
VCu
p1589
sVcharge
p1590
F0
sVtag
p1591
I0
sVposition
p1592
(lp1593
F-1.0798916223274189e-15
aF-12.582811141167198
aF-19.454634068787168
asVmomentum
p1594
(lp1595
F0
aF0
aF0
asa(dp1596
Vmagmom
p1597
F0
sVindex
p1598
I10
sVsymbol
p1599
VCu
p1600
sVcharge
p1601
F0
sVtag
p1602
I0
sVposition
p1603
(lp1604
F-2.9451589699838667e-16
aF-3.4316757657728734
aF-17.588602858258902
asVmomentum
p1605
(lp1606
F0
aF0
aF0
asa(dp1607
Vmagmom
p1608
F0
sVindex
p1609
I11
sVsymbol
p1610
VCu
p1611
sVcharge
p1612
F0
sVtag
p1613
I0
sVposition
p1614
(lp1615
F-6.8720375966290269e-16
aF-8.0072434534700321
aF-13.851892798736637
asVmomentum
p1616
(lp1617
F0
aF0
aF0
asa(dp1618
Vmagmom
p1619
F0
sVindex
p1620
I12
sVsymbol
p1621
VCu
p1622
sVcharge
p1623
F0
sVtag
p1624
I0
sVposition
p1625
(lp1626
F0.61399746179176873
aF-5.9836759030145581
aF-17.839334226402549
asVmomentum
p1627
(lp1628
F0
aF0
aF0
asa(dp1629
Vmagmom
p1630
F0
sVindex
p1631
I13
sVsymbol
p1632
VCu
p1633
sVcharge
p1634
F0
sVtag
p1635
I0
sVposition
p1636
(lp1637
F0.61399746179176828
aF-10.559243590711718
aF-14.102624166880288
asVmomentum
p1638
(lp1639
F0
aF0
aF0
asa(dp1640
Vmagmom
p1641
F0
sVindex
p1642
I14
sVsymbol
p1643
VCu
p1644
sVcharge
p1645
F0
sVtag
p1646
I0
sVposition
p1647
(lp1648
F0.61399746179176917
aF-1.4081082153173936
aF-21.576044285924809
asVmomentum
p1649
(lp1650
F0
aF0
aF0
asa(dp1651
Vmagmom
p1652
F0
sVindex
p1653
I15
sVsymbol
p1654
VCu
p1655
sVcharge
p1656
F0
sVtag
p1657
I0
sVposition
p1658
(lp1659
F4.089511790248765
aF-7.3389124728313977
aF-21.402284411266862
asVmomentum
p1660
(lp1661
F0
aF0
aF0
asa(dp1662
Vmagmom
p1663
F0
sVindex
p1664
I16
sVsymbol
p1665
VCu
p1666
sVcharge
p1667
F0
sVtag
p1668
I0
sVposition
p1669
(lp1670
F4.0895117902487641
aF-11.914480160528555
aF-17.665574351744596
asVmomentum
p1671
(lp1672
F0
aF0
aF0
asa(dp1673
Vmagmom
p1674
F0
sVindex
p1675
I17
sVsymbol
p1676
VCu
p1677
sVcharge
p1678
F0
sVtag
p1679
I0
sVposition
p1680
(lp1681
F4.089511790248765
aF-2.7633447851342341
aF-15.799543141216329
asVmomentum
p1682
(lp1683
F0
aF0
aF0
asa(dp1684
Vmagmom
p1685
F0
sVindex
p1686
I18
sVsymbol
p1687
VCu
p1688
sVcharge
p1689
F0
sVtag
p1690
I0
sVposition
p1691
(lp1692
F1.8180106797578632
aF-10.96335827795725
aF-18.442323150804469
asVmomentum
p1693
(lp1694
F0
aF0
aF0
asa(dp1695
Vmagmom
p1696
F0
sVindex
p1697
I19
sVsymbol
p1698
VCu
p1699
sVcharge
p1700
F0
sVtag
p1701
I0
sVposition
p1702
(lp1703
F1.8180106797578641
aF-1.8122229025629297
aF-16.576291940276207
asVmomentum
p1704
(lp1705
F0
aF0
aF0
asa(dp1706
Vmagmom
p1707
F0
sVindex
p1708
I20
sVsymbol
p1709
VCu
p1710
sVcharge
p1711
F0
sVtag
p1712
I0
sVposition
p1713
(lp1714
F1.8180106797578637
aF-6.3877905902600896
aF-22.179033210326736
asVmomentum
p1715
(lp1716
F0
aF0
aF0
asa(dp1717
Vmagmom
p1718
F0
sVindex
p1719
I21
sVsymbol
p1720
VCu
p1721
sVcharge
p1722
F0
sVtag
p1723
I0
sVposition
p1724
(lp1725
F5.2935250082148588
aF-7.7430271600769318
aF-16.402532065618249
asVmomentum
p1726
(lp1727
F0
aF0
aF0
asa(dp1728
Vmagmom
p1729
F0
sVindex
p1730
I22
sVsymbol
p1731
VCu
p1732
sVcharge
p1733
F0
sVtag
p1734
I0
sVposition
p1735
(lp1736
F5.2935250082148588
aF-12.318594847774094
aF-12.665822006095985
asVmomentum
p1737
(lp1738
F0
aF0
aF0
asa(dp1739
Vmagmom
p1740
F0
sVindex
p1741
I23
sVsymbol
p1742
VCu
p1743
sVcharge
p1744
F0
sVtag
p1745
I0
sVposition
p1746
(lp1747
F5.2935250082148597
aF-3.1674594723797718
aF-20.139242125140512
asVmomentum
p1748
(lp1749
F0
aF0
aF0
asa(dp1750
Vmagmom
p1751
F0
sVindex
p1752
I24
sVsymbol
p1753
VCu
p1754
sVcharge
p1755
F0
sVtag
p1756
I0
sVposition
p1757
(lp1758
F4.7093488970773603
aF-7.5610877182191079
aF-18.878949669820599
asVmomentum
p1759
(lp1760
F0
aF0
aF0
asa(dp1761
Vmagmom
p1762
F0
sVindex
p1763
I25
sVsymbol
p1764
VCu
p1765
sVcharge
p1766
F0
sVtag
p1767
I0
sVposition
p1768
(lp1769
F4.7093488970773603
aF-12.136655405916267
aF-15.142239610298333
asVmomentum
p1770
(lp1771
F0
aF0
aF0
asa(dp1772
Vmagmom
p1773
F0
sVindex
p1774
I26
sVsymbol
p1775
VCu
p1776
sVcharge
p1777
F0
sVtag
p1778
I0
sVposition
p1779
(lp1780
F4.7093488970773612
aF-2.9855200305219443
aF-22.615659729342859
asVmomentum
p1781
(lp1782
F0
aF0
aF0
asa(dp1783
Vmagmom
p1784
F0
sVindex
p1785
I27
sVsymbol
p1786
VCu
p1787
sVcharge
p1788
F0
sVtag
p1789
I0
sVposition
p1790
(lp1791
F3.5253475296288599
aF-11.651343243552981
aF-20.208303164258016
asVmomentum
p1792
(lp1793
F0
aF0
aF0
asa(dp1794
Vmagmom
p1795
F0
sVindex
p1796
I28
sVsymbol
p1797
VCu
p1798
sVcharge
p1799
F0
sVtag
p1800
I0
sVposition
p1801
(lp1802
F3.5253475296288603
aF-2.5002078681586597
aF-18.34227195372975
asVmomentum
p1803
(lp1804
F0
aF0
aF0
asa(dp1805
Vmagmom
p1806
F0
sVindex
p1807
I29
sVsymbol
p1808
VCu
p1809
sVcharge
p1810
F0
sVtag
p1811
I0
sVposition
p1812
(lp1813
F3.5253475296288603
aF-7.0757755558558202
aF-14.605561894207488
asVmomentum
p1814
(lp1815
F0
aF0
aF0
asa(dp1816
Vmagmom
p1817
F0
sVindex
p1818
I30
sVsymbol
p1819
VCu
p1820
sVcharge
p1821
F0
sVtag
p1822
I0
sVposition
p1823
(lp1824
F2.3821749403777672
aF-8.9318241150893716
aF-13.089790345051277
asVmomentum
p1825
(lp1826
F0
aF0
aF0
asa(dp1827
Vmagmom
p1828
F0
sVindex
p1829
I31
sVsymbol
p1830
VCu
p1831
sVcharge
p1832
F0
sVtag
p1833
I0
sVposition
p1834
(lp1835
F2.3821749403777668
aF-13.507391802786534
aF-18.692531615101807
asVmomentum
p1836
(lp1837
F0
aF0
aF0
asa(dp1838
Vmagmom
p1839
F0
sVindex
p1840
I32
sVsymbol
p1841
VCu
p1842
sVcharge
p1843
F0
sVtag
p1844
I0
sVposition
p1845
(lp1846
F2.3821749403777677
aF-4.3562564273922089
aF-16.826500404573544
asVmomentum
p1847
(lp1848
F0
aF0
aF0
asa(dp1849
Vmagmom
p1850
F0
sVindex
p1851
I33
sVsymbol
p1852
VCu
p1853
sVcharge
p1854
F0
sVtag
p1855
I0
sVposition
p1856
(lp1857
F1.1981735729292677
aF-8.4465119527260875
aF-18.155853899010967
asVmomentum
p1858
(lp1859
F0
aF0
aF0
asa(dp1860
Vmagmom
p1861
F0
sVindex
p1862
I34
sVsymbol
p1863
VCu
p1864
sVcharge
p1865
F0
sVtag
p1866
I0
sVposition
p1867
(lp1868
F1.1981735729292675
aF-13.022079640423248
aF-14.419143839488703
asVmomentum
p1869
(lp1870
F0
aF0
aF0
asa(dp1871
Vmagmom
p1872
F0
sVindex
p1873
I35
sVsymbol
p1874
VCu
p1875
sVcharge
p1876
F0
sVtag
p1877
I0
sVposition
p1878
(lp1879
F1.1981735729292682
aF-3.8709442650289239
aF-21.892563958533227
asVmomentum
p1880
(lp1881
F0
aF0
aF0
asa(dp1882
Vmagmom
p1883
F0
sVindex
p1884
I36
sVsymbol
p1885
VCu
p1886
sVcharge
p1887
F0
sVtag
p1888
I0
sVposition
p1889
(lp1890
F1.1981735729292675
aF-10.741183032569543
aF-20.965657892250736
asVmomentum
p1891
(lp1892
F0
aF0
aF0
asa(dp1893
Vmagmom
p1894
F0
sVindex
p1895
I37
sVsymbol
p1896
VCu
p1897
sVcharge
p1898
F0
sVtag
p1899
I0
sVposition
p1900
(lp1901
F1.1981735729292684
aF-1.59004765717522
aF-19.099626681722466
asVmomentum
p1902
(lp1903
F0
aF0
aF0
asa(dp1904
Vmagmom
p1905
F0
sVindex
p1906
I38
sVsymbol
p1907
VCu
p1908
sVcharge
p1909
F0
sVtag
p1910
I0
sVposition
p1911
(lp1912
F1.198173572929268
aF-6.1656153448723785
aF-15.362916622200204
asVmomentum
p1913
(lp1914
F0
aF0
aF0
asa(dp1915
Vmagmom
p1916
F0
sVindex
p1917
I39
sVsymbol
p1918
VCu
p1919
sVcharge
p1920
F0
sVtag
p1921
I0
sVposition
p1922
(lp1923
F2.3821749403777677
aF-6.6509275072356671
aF-19.636304397813312
asVmomentum
p1924
(lp1925
F0
aF0
aF0
asa(dp1926
Vmagmom
p1927
F0
sVindex
p1928
I40
sVsymbol
p1929
VCu
p1930
sVcharge
p1931
F0
sVtag
p1932
I0
sVposition
p1933
(lp1934
F2.3821749403777672
aF-11.226495194932829
aF-15.899594338291051
asVmomentum
p1935
(lp1936
F0
aF0
aF0
asa(dp1937
Vmagmom
p1938
F0
sVindex
p1939
I41
sVsymbol
p1940
VCu
p1941
sVcharge
p1942
F0
sVtag
p1943
I0
sVposition
p1944
(lp1945
F2.3821749403777681
aF-2.0753598195385043
aF-14.033563127762784
asVmomentum
p1946
(lp1947
F0
aF0
aF0
asa(dp1948
Vmagmom
p1949
F0
sVindex
p1950
I42
sVsymbol
p1951
VCu
p1952
sVcharge
p1953
F0
sVtag
p1954
I0
sVposition
p1955
(lp1956
F3.5253475296288603
aF-9.3704466356992739
aF-17.415365887447251
asVmomentum
p1957
(lp1958
F0
aF0
aF0
asa(dp1959
Vmagmom
p1960
F0
sVindex
p1961
I43
sVsymbol
p1962
VCu
p1963
sVcharge
p1964
F0
sVtag
p1965
I0
sVposition
p1966
(lp1967
F3.5253475296288608
aF-0.2193112603049531
aF-15.549334676918994
asVmomentum
p1968
(lp1969
F0
aF0
aF0
asa(dp1970
Vmagmom
p1971
F0
sVindex
p1972
I44
sVsymbol
p1973
VCu
p1974
sVcharge
p1975
F0
sVtag
p1976
I0
sVposition
p1977
(lp1978
F3.5253475296288603
aF-4.7948789480021103
aF-21.152075946969518
asVmomentum
p1979
(lp1980
F0
aF0
aF0
asa(dp1981
Vmagmom
p1982
F0
sVindex
p1983
I45
sVsymbol
p1984
VCu
p1985
sVcharge
p1986
F0
sVtag
p1987
I0
sVposition
p1988
(lp1989
F4.7093488970773603
aF-9.8557587980625616
aF-21.688753663060364
asVmomentum
p1990
(lp1991
F0
aF0
aF0
asa(dp1992
Vmagmom
p1993
F0
sVindex
p1994
I46
sVsymbol
p1995
VCu
p1996
sVcharge
p1997
F0
sVtag
p1998
I0
sVposition
p1999
(lp2000
F4.7093488970773612
aF-0.70462342266824041
aF-19.822722452532101
asVmomentum
p2001
(lp2002
F0
aF0
aF0
asa(dp2003
Vmagmom
p2004
F0
sVindex
p2005
I47
sVsymbol
p2006
VCu
p2007
sVcharge
p2008
F0
sVtag
p2009
I0
sVposition
p2010
(lp2011
F4.7093488970773603
aF-5.2801911103654007
aF-16.086012393009838
asVmomentum
p2012
(lp2013
F0
aF0
aF0
asa(dp2014
Vmagmom
p2015
F0
sVindex
p2016
I48
sVsymbol
p2017
VPd
p2018
sVcharge
p2019
F0
sVtag
p2020
I0
sVposition
p2021
(lp2022
F4.1800760591963826
aF-5.0435946364952846
aF-18.6070665309243
asVmomentum
p2023
(lp2024
F0
aF0
aF0
asa(dp2025
Vmagmom
p2026
F0
sVindex
p2027
I49
sVsymbol
p2028
VPd
p2029
sVcharge
p2030
F0
sVtag
p2031
I0
sVposition
p2032
(lp2033
F4.1800760591963817
aF-9.6191623241924447
aF-14.870356471402038
asVmomentum
p2034
(lp2035
F0
aF0
aF0
asa(dp2036
Vmagmom
p2037
F0
sVindex
p2038
I50
sVsymbol
p2039
VPd
p2040
sVcharge
p2041
F0
sVtag
p2042
I0
sVposition
p2043
(lp2044
F4.1800760591963826
aF-0.46802694879812196
aF-22.343776590446566
asVmomentum
p2045
(lp2046
F0
aF0
aF0
asa(dp2047
Vmagmom
p2048
F0
sVindex
p2049
I51
sVsymbol
p2050
VPd
p2051
sVcharge
p2052
F0
sVtag
p2053
I0
sVposition
p2054
(lp2055
F5.3032521574882976
aF-10.100955966515246
aF-19.146617702316714
asVmomentum
p2056
(lp2057
F0
aF0
aF0
asa(dp2058
Vmagmom
p2059
F0
sVindex
p2060
I52
sVsymbol
p2061
VPd
p2062
sVcharge
p2063
F0
sVtag
p2064
I0
sVposition
p2065
(lp2066
F5.3032521574882985
aF-0.94982059112092398
aF-17.280586491788455
asVmomentum
p2067
(lp2068
F0
aF0
aF0
asa(dp2069
Vmagmom
p2070
F0
sVindex
p2071
I53
sVsymbol
p2072
VPd
p2073
sVcharge
p2074
F0
sVtag
p2075
I0
sVposition
p2076
(lp2077
F5.3032521574882976
aF-5.5253882788180846
aF-13.543876432266188
asVmomentum
p2078
(lp2079
F0
aF0
aF0
asa(dp2080
Vmagmom
p2081
F0
sVindex
p2082
I54
sVsymbol
p2083
VPd
p2084
sVcharge
p2085
F0
sVtag
p2086
I0
sVposition
p2087
(lp2088
F0.60427031251832897
aF-8.2013147842734053
aF-20.697989859754614
asVmomentum
p2089
(lp2090
F0
aF0
aF0
asa(dp2091
Vmagmom
p2092
F0
sVindex
p2093
I55
sVsymbol
p2094
VPd
p2095
sVcharge
p2096
F0
sVtag
p2097
I0
sVposition
p2098
(lp2099
F0.60427031251832852
aF-12.776882471970563
aF-16.961279800232347
asVmomentum
p2100
(lp2101
F0
aF0
aF0
asa(dp2102
Vmagmom
p2103
F0
sVindex
p2104
I56
sVsymbol
p2105
VPd
p2106
sVcharge
p2107
F0
sVtag
p2108
I0
sVposition
p2109
(lp2110
F0.6042703125183293
aF-3.6257470965762408
aF-15.095248589704084
asVmomentum
p2111
(lp2112
F0
aF0
aF0
asa(dp2113
Vmagmom
p2114
F0
sVindex
p2115
I57
sVsymbol
p2116
VPd
p2117
sVcharge
p2118
F0
sVtag
p2119
I0
sVposition
p2120
(lp2121
F1.7274464108102463
aF-8.6831084265962062
aF-15.634799761096497
asVmomentum
p2122
(lp2123
F0
aF0
aF0
asa(dp2124
Vmagmom
p2125
F0
sVindex
p2126
I58
sVsymbol
p2127
VPd
p2128
sVcharge
p2129
F0
sVtag
p2130
I0
sVposition
p2131
(lp2132
F1.7274464108102459
aF-13.258676114293364
aF-21.237541031147028
asVmomentum
p2133
(lp2134
F0
aF0
aF0
asa(dp2135
Vmagmom
p2136
F0
sVindex
p2137
I59
sVsymbol
p2138
VPd
p2139
sVcharge
p2140
F0
sVtag
p2141
I0
sVposition
p2142
(lp2143
F1.7274464108102467
aF-4.1075407388990444
aF-19.371509820618762
asVmomentum
p2144
(lp2145
F0
aF0
aF0
asasVcell
p2146
(lp2147
(lp2148
F5.9075224700066293
aF-2.9582283945787943e-31
aF3.6227849345677336e-47
aa(lp2149
F-1.1780635879935481e-15
aF-13.726703063091485
aF1.8706788489939994
aa(lp2150
F5.9164567891575885e-31
aF-4.5750116706215252e-15
aF-37.35780531829117
aasVmass
p2151
F4327.2479999999987
sVpbc
p2152
(lp2153
I01
aI01
aI01
asVspacegroup
p2154
VP1 (1)
p2155
sVconstraints
p2156
(lp2157
(dp2158
Vname
p2159
VFixAtoms
p2160
sVkwargs
p2161
(dp2162
Vindices
p2163
(lp2164
I0
aI2
aI3
aI4
aI6
aI8
aI9
aI10
aI12
aI14
aI15
aI16
aI18
aI20
aI21
aI23
aI24
aI26
aI27
aI28
aI31
aI32
aI33
aI35
aI36
aI37
aI39
aI40
aI42
aI44
aI45
aI46
aI48
aI50
aI51
aI52
aI54
aI55
aI58
aI59
assasaa(lp2165
g701
ag2
((ltRp2166
aa(lp2167
g704
ag705
aa(lp2168
g707
aS'27ad427fd3909cf864ed31f2a66611f5578e9a6d'
p2169
aa(lp2170
g710
ag711
(S'\x07\xe1\x03\x1f\x13-\x06\x00\xac\xa7'
tRp2171
aa(lp2172
g714
ag711
(S'\x07\xe1\x03\x1f\x13-\x06\x00\xac\xb0'
tRp2173
aa(lp2174
g717
a(dp2175
g719
g729
sg730
I00
sg731
g732
sg733
g1467
sg738
g752
sg753
g754
sg755
I00
sg756
g757
sg758
I60
saatRp2176
ag2
((lp2177
(lp2178
g5
a(dp2179
Vinfo
p2180
(dp2181
sVvolume
p2182
F3029.3745729518605
sVnatoms
p2183
I60
sVsymbol_counts
p2184
(dp2185
VCu
p2186
I48
sVPd
p2187
I12
ssVchemical_symbols
p2188
(lp2189
VPd
p2190
aVCu
p2191
asVatoms
p2192
(lp2193
(dp2194
Vmagmom
p2195
F0
sVindex
p2196
I0
sVsymbol
p2197
VCu
p2198
sVcharge
p2199
F0
sVtag
p2200
I0
sVposition
p2201
(lp2202
F2.9537612350033142
aF6.8633515315457423
aF16.498303057372212
asVmomentum
p2203
(lp2204
F0
aF0
aF0
asa(dp2205
Vmagmom
p2206
F0
sVindex
p2207
I1
sVsymbol
p2208
VCu
p2209
sVcharge
p2210
F0
sVtag
p2211
I0
sVposition
p2212
(lp2213
F2.9537612350033138
aF11.438919219242903
aF12.761592997849949
asVmomentum
p2214
(lp2215
F0
aF0
aF0
asa(dp2216
Vmagmom
p2217
F0
sVindex
p2218
I2
sVsymbol
p2219
VCu
p2220
sVcharge
p2221
F0
sVtag
p2222
I0
sVposition
p2223
(lp2224
F2.9537612350033147
aF2.2877838438485814
aF20.235013116894475
asVmomentum
p2225
(lp2226
F0
aF0
aF0
asa(dp2227
Vmagmom
p2228
F0
sVindex
p2229
I3
sVsymbol
p2230
VCu
p2231
sVcharge
p2232
F0
sVtag
p2233
I0
sVposition
p2234
(lp2235
F2.9537612350033138
aF9.1511353753943219
aF19.29967369239748
asVmomentum
p2236
(lp2237
F0
aF0
aF0
asa(dp2238
Vmagmom
p2239
F0
sVindex
p2240
I4
sVsymbol
p2241
VCu
p2242
sVcharge
p2243
F0
sVtag
p2244
I0
sVposition
p2245
(lp2246
F2.9537612350033147
aF0
aF17.433642481869214
asVmomentum
p2247
(lp2248
F0
aF0
aF0
asa(dp2249
Vmagmom
p2250
F0
sVindex
p2251
I5
sVsymbol
p2252
VCu
p2253
sVcharge
p2254
F0
sVtag
p2255
I0
sVposition
p2256
(lp2257
F2.9537612350033142
aF4.5755676876971627
aF13.696932422346949
asVmomentum
p2258
(lp2259
F0
aF0
aF0
asa(dp2260
Vmagmom
p2261
F0
sVindex
p2262
I6
sVsymbol
p2263
VCu
p2264
sVcharge
p2265
F0
sVtag
p2266
I0
sVposition
p2267
(lp2268
F-8.835476909951608e-16
aF10.295027297318613
aF16.030633345123714
asVmomentum
p2269
(lp2270
F0
aF0
aF0
asa(dp2271
Vmagmom
p2272
F0
sVindex
p2273
I7
sVsymbol
p2274
VCu
p2275
sVcharge
p2276
F0
sVtag
p2277
I0
sVposition
p2278
(lp2279
F-9.8171965666128759e-17
aF1.1438919219242898
aF14.164602134595448
asVmomentum
p2280
(lp2281
F0
aF0
aF0
asa(dp2282
Vmagmom
p2283
F0
sVindex
p2284
I8
sVsymbol
p2285
VCu
p2286
sVcharge
p2287
F0
sVtag
p2288
I0
sVposition
p2289
(lp2290
F-4.9085982833064468e-16
aF5.7194596096214498
aF19.767343404645981
asVmomentum
p2291
(lp2292
F0
aF0
aF0
asa(dp2293
Vmagmom
p2294
F0
sVindex
p2295
I9
sVsymbol
p2296
VCu
p2297
sVcharge
p2298
F0
sVtag
p2299
I0
sVposition
p2300
(lp2301
F-1.0798916223274189e-15
aF12.582811141167195
aF18.832003980148976
asVmomentum
p2302
(lp2303
F0
aF0
aF0
asa(dp2304
Vmagmom
p2305
F0
sVindex
p2306
I10
sVsymbol
p2307
VCu
p2308
sVcharge
p2309
F0
sVtag
p2310
I0
sVposition
p2311
(lp2312
F-2.9451589699838667e-16
aF3.4316757657728703
aF16.965972769620713
asVmomentum
p2313
(lp2314
F0
aF0
aF0
asa(dp2315
Vmagmom
p2316
F0
sVindex
p2317
I11
sVsymbol
p2318
VCu
p2319
sVcharge
p2320
F0
sVtag
p2321
I0
sVposition
p2322
(lp2323
F-6.8720375966290269e-16
aF8.0072434534700321
aF13.22926271009845
asVmomentum
p2324
(lp2325
F0
aF0
aF0
asa(dp2326
Vmagmom
p2327
F0
sVindex
p2328
I12
sVsymbol
p2329
VCu
p2330
sVcharge
p2331
F0
sVtag
p2332
I0
sVposition
p2333
(lp2334
F0.61399746179176884
aF5.9836759030145554
aF17.216704137764363
asVmomentum
p2335
(lp2336
F0
aF0
aF0
asa(dp2337
Vmagmom
p2338
F0
sVindex
p2339
I13
sVsymbol
p2340
VCu
p2341
sVcharge
p2342
F0
sVtag
p2343
I0
sVposition
p2344
(lp2345
F0.6139974617917684
aF10.559243590711716
aF13.4799940782421
asVmomentum
p2346
(lp2347
F0
aF0
aF0
asa(dp2348
Vmagmom
p2349
F0
sVindex
p2350
I14
sVsymbol
p2351
VCu
p2352
sVcharge
p2353
F0
sVtag
p2354
I0
sVposition
p2355
(lp2356
F0.61399746179176917
aF1.4081082153173909
aF20.953414197286627
asVmomentum
p2357
(lp2358
F0
aF0
aF0
asa(dp2359
Vmagmom
p2360
F0
sVindex
p2361
I15
sVsymbol
p2362
VCu
p2363
sVcharge
p2364
F0
sVtag
p2365
I0
sVposition
p2366
(lp2367
F4.089511790248765
aF7.3389124728313933
aF20.779654322628673
asVmomentum
p2368
(lp2369
F0
aF0
aF0
asa(dp2370
Vmagmom
p2371
F0
sVindex
p2372
I16
sVsymbol
p2373
VCu
p2374
sVcharge
p2375
F0
sVtag
p2376
I0
sVposition
p2377
(lp2378
F4.0895117902487641
aF11.914480160528555
aF17.04294426310641
asVmomentum
p2379
(lp2380
F0
aF0
aF0
asa(dp2381
Vmagmom
p2382
F0
sVindex
p2383
I17
sVsymbol
p2384
VCu
p2385
sVcharge
p2386
F0
sVtag
p2387
I0
sVposition
p2388
(lp2389
F4.089511790248765
aF2.7633447851342323
aF15.176913052578143
asVmomentum
p2390
(lp2391
F0
aF0
aF0
asa(dp2392
Vmagmom
p2393
F0
sVindex
p2394
I18
sVsymbol
p2395
VCu
p2396
sVcharge
p2397
F0
sVtag
p2398
I0
sVposition
p2399
(lp2400
F1.8180106797578632
aF10.963358277957251
aF17.81969306216628
asVmomentum
p2401
(lp2402
F0
aF0
aF0
asa(dp2403
Vmagmom
p2404
F0
sVindex
p2405
I19
sVsymbol
p2406
VCu
p2407
sVcharge
p2408
F0
sVtag
p2409
I0
sVposition
p2410
(lp2411
F1.8180106797578641
aF1.8122229025629286
aF15.953661851638019
asVmomentum
p2412
(lp2413
F0
aF0
aF0
asa(dp2414
Vmagmom
p2415
F0
sVindex
p2416
I20
sVsymbol
p2417
VCu
p2418
sVcharge
p2419
F0
sVtag
p2420
I0
sVposition
p2421
(lp2422
F1.8180106797578637
aF6.3877905902600887
aF21.55640312168855
asVmomentum
p2423
(lp2424
F0
aF0
aF0
asa(dp2425
Vmagmom
p2426
F0
sVindex
p2427
I21
sVsymbol
p2428
VCu
p2429
sVcharge
p2430
F0
sVtag
p2431
I0
sVposition
p2432
(lp2433
F5.2935250082148588
aF7.7430271600769291
aF15.77990197698006
asVmomentum
p2434
(lp2435
F0
aF0
aF0
asa(dp2436
Vmagmom
p2437
F0
sVindex
p2438
I22
sVsymbol
p2439
VCu
p2440
sVcharge
p2441
F0
sVtag
p2442
I0
sVposition
p2443
(lp2444
F5.2935250082148588
aF12.318594847774092
aF21.382643247030593
asVmomentum
p2445
(lp2446
F0
aF0
aF0
asa(dp2447
Vmagmom
p2448
F0
sVindex
p2449
I23
sVsymbol
p2450
VCu
p2451
sVcharge
p2452
F0
sVtag
p2453
I0
sVposition
p2454
(lp2455
F5.2935250082148597
aF3.1674594723797682
aF19.516612036502323
asVmomentum
p2456
(lp2457
F0
aF0
aF0
asa(dp2458
Vmagmom
p2459
F0
sVindex
p2460
I24
sVsymbol
p2461
VCu
p2462
sVcharge
p2463
F0
sVtag
p2464
I0
sVposition
p2465
(lp2466
F4.7093488970773603
aF7.5610877182191061
aF18.25631958118241
asVmomentum
p2467
(lp2468
F0
aF0
aF0
asa(dp2469
Vmagmom
p2470
F0
sVindex
p2471
I25
sVsymbol
p2472
VCu
p2473
sVcharge
p2474
F0
sVtag
p2475
I0
sVposition
p2476
(lp2477
F4.7093488970773603
aF12.136655405916267
aF14.519609521660147
asVmomentum
p2478
(lp2479
F0
aF0
aF0
asa(dp2480
Vmagmom
p2481
F0
sVindex
p2482
I26
sVsymbol
p2483
VCu
p2484
sVcharge
p2485
F0
sVtag
p2486
I0
sVposition
p2487
(lp2488
F4.7093488970773612
aF2.9855200305219416
aF21.993029640704673
asVmomentum
p2489
(lp2490
F0
aF0
aF0
asa(dp2491
Vmagmom
p2492
F0
sVindex
p2493
I27
sVsymbol
p2494
VCu
p2495
sVcharge
p2496
F0
sVtag
p2497
I0
sVposition
p2498
(lp2499
F3.5253475296288599
aF11.651343243552979
aF19.58567307561983
asVmomentum
p2500
(lp2501
F0
aF0
aF0
asa(dp2502
Vmagmom
p2503
F0
sVindex
p2504
I28
sVsymbol
p2505
VCu
p2506
sVcharge
p2507
F0
sVtag
p2508
I0
sVposition
p2509
(lp2510
F3.5253475296288603
aF2.5002078681586566
aF17.719641865091567
asVmomentum
p2511
(lp2512
F0
aF0
aF0
asa(dp2513
Vmagmom
p2514
F0
sVindex
p2515
I29
sVsymbol
p2516
VCu
p2517
sVcharge
p2518
F0
sVtag
p2519
I0
sVposition
p2520
(lp2521
F3.5253475296288603
aF7.0757755558558166
aF13.982931805569301
asVmomentum
p2522
(lp2523
F0
aF0
aF0
asa(dp2524
Vmagmom
p2525
F0
sVindex
p2526
I30
sVsymbol
p2527
VCu
p2528
sVcharge
p2529
F0
sVtag
p2530
I0
sVposition
p2531
(lp2532
F2.3821749403777672
aF8.931824115089368
aF21.80661158598588
asVmomentum
p2533
(lp2534
F0
aF0
aF0
asa(dp2535
Vmagmom
p2536
F0
sVindex
p2537
I31
sVsymbol
p2538
VCu
p2539
sVcharge
p2540
F0
sVtag
p2541
I0
sVposition
p2542
(lp2543
F2.3821749403777668
aF13.507391802786533
aF18.069901526463621
asVmomentum
p2544
(lp2545
F0
aF0
aF0
asa(dp2546
Vmagmom
p2547
F0
sVindex
p2548
I32
sVsymbol
p2549
VCu
p2550
sVcharge
p2551
F0
sVtag
p2552
I0
sVposition
p2553
(lp2554
F2.3821749403777677
aF4.3562564273922053
aF16.203870315935355
asVmomentum
p2555
(lp2556
F0
aF0
aF0
asa(dp2557
Vmagmom
p2558
F0
sVindex
p2559
I33
sVsymbol
p2560
VCu
p2561
sVcharge
p2562
F0
sVtag
p2563
I0
sVposition
p2564
(lp2565
F1.1981735729292677
aF8.4465119527260857
aF17.533223810372775
asVmomentum
p2566
(lp2567
F0
aF0
aF0
asa(dp2568
Vmagmom
p2569
F0
sVindex
p2570
I34
sVsymbol
p2571
VCu
p2572
sVcharge
p2573
F0
sVtag
p2574
I0
sVposition
p2575
(lp2576
F1.1981735729292675
aF13.022079640423247
aF13.796513750850513
asVmomentum
p2577
(lp2578
F0
aF0
aF0
asa(dp2579
Vmagmom
p2580
F0
sVindex
p2581
I35
sVsymbol
p2582
VCu
p2583
sVcharge
p2584
F0
sVtag
p2585
I0
sVposition
p2586
(lp2587
F1.1981735729292682
aF3.870944265028923
aF21.269933869895041
asVmomentum
p2588
(lp2589
F0
aF0
aF0
asa(dp2590
Vmagmom
p2591
F0
sVindex
p2592
I36
sVsymbol
p2593
VCu
p2594
sVcharge
p2595
F0
sVtag
p2596
I0
sVposition
p2597
(lp2598
F1.1981735729292675
aF10.741183032569541
aF20.343027803612546
asVmomentum
p2599
(lp2600
F0
aF0
aF0
asa(dp2601
Vmagmom
p2602
F0
sVindex
p2603
I37
sVsymbol
p2604
VCu
p2605
sVcharge
p2606
F0
sVtag
p2607
I0
sVposition
p2608
(lp2609
F1.1981735729292684
aF1.5900476571752176
aF18.476996593084277
asVmomentum
p2610
(lp2611
F0
aF0
aF0
asa(dp2612
Vmagmom
p2613
F0
sVindex
p2614
I38
sVsymbol
p2615
VCu
p2616
sVcharge
p2617
F0
sVtag
p2618
I0
sVposition
p2619
(lp2620
F1.198173572929268
aF6.1656153448723785
aF14.740286533562017
asVmomentum
p2621
(lp2622
F0
aF0
aF0
asa(dp2623
Vmagmom
p2624
F0
sVindex
p2625
I39
sVsymbol
p2626
VCu
p2627
sVcharge
p2628
F0
sVtag
p2629
I0
sVposition
p2630
(lp2631
F2.3821749403777677
aF6.6509275072356662
aF19.013674309175126
asVmomentum
p2632
(lp2633
F0
aF0
aF0
asa(dp2634
Vmagmom
p2635
F0
sVindex
p2636
I40
sVsymbol
p2637
VCu
p2638
sVcharge
p2639
F0
sVtag
p2640
I0
sVposition
p2641
(lp2642
F2.3821749403777672
aF11.226495194932827
aF15.27696424965286
asVmomentum
p2643
(lp2644
F0
aF0
aF0
asa(dp2645
Vmagmom
p2646
F0
sVindex
p2647
I41
sVsymbol
p2648
VCu
p2649
sVcharge
p2650
F0
sVtag
p2651
I0
sVposition
p2652
(lp2653
F2.3821749403777681
aF2.0753598195384999
aF22.750384368697389
asVmomentum
p2654
(lp2655
F0
aF0
aF0
asa(dp2656
Vmagmom
p2657
F0
sVindex
p2658
I42
sVsymbol
p2659
VCu
p2660
sVcharge
p2661
F0
sVtag
p2662
I0
sVposition
p2663
(lp2664
F3.5253475296288603
aF9.3704466356992739
aF16.792735798809069
asVmomentum
p2665
(lp2666
F0
aF0
aF0
asa(dp2667
Vmagmom
p2668
F0
sVindex
p2669
I43
sVsymbol
p2670
VCu
p2671
sVcharge
p2672
F0
sVtag
p2673
I0
sVposition
p2674
(lp2675
F3.5253475296288608
aF0.21931126030495207
aF14.926704588280806
asVmomentum
p2676
(lp2677
F0
aF0
aF0
asa(dp2678
Vmagmom
p2679
F0
sVindex
p2680
I44
sVsymbol
p2681
VCu
p2682
sVcharge
p2683
F0
sVtag
p2684
I0
sVposition
p2685
(lp2686
F3.5253475296288603
aF4.7948789480021086
aF20.529445858331329
asVmomentum
p2687
(lp2688
F0
aF0
aF0
asa(dp2689
Vmagmom
p2690
F0
sVindex
p2691
I45
sVsymbol
p2692
VCu
p2693
sVcharge
p2694
F0
sVtag
p2695
I0
sVposition
p2696
(lp2697
F4.7093488970773603
aF9.8557587980625598
aF21.066123574422178
asVmomentum
p2698
(lp2699
F0
aF0
aF0
asa(dp2700
Vmagmom
p2701
F0
sVindex
p2702
I46
sVsymbol
p2703
VCu
p2704
sVcharge
p2705
F0
sVtag
p2706
I0
sVposition
p2707
(lp2708
F4.7093488970773612
aF0.70462342266823796
aF19.200092363893916
asVmomentum
p2709
(lp2710
F0
aF0
aF0
asa(dp2711
Vmagmom
p2712
F0
sVindex
p2713
I47
sVsymbol
p2714
VCu
p2715
sVcharge
p2716
F0
sVtag
p2717
I0
sVposition
p2718
(lp2719
F4.7093488970773603
aF5.280191110365398
aF15.463382304371651
asVmomentum
p2720
(lp2721
F0
aF0
aF0
asa(dp2722
Vmagmom
p2723
F0
sVindex
p2724
I48
sVsymbol
p2725
VPd
p2726
sVcharge
p2727
F0
sVtag
p2728
I0
sVposition
p2729
(lp2730
F4.1800760591963826
aF5.0435946364952811
aF17.984436442286114
asVmomentum
p2731
(lp2732
F0
aF0
aF0
asa(dp2733
Vmagmom
p2734
F0
sVindex
p2735
I49
sVsymbol
p2736
VPd
p2737
sVcharge
p2738
F0
sVtag
p2739
I0
sVposition
p2740
(lp2741
F4.1800760591963817
aF9.6191623241924411
aF14.247726382763851
asVmomentum
p2742
(lp2743
F0
aF0
aF0
asa(dp2744
Vmagmom
p2745
F0
sVindex
p2746
I50
sVsymbol
p2747
VPd
p2748
sVcharge
p2749
F0
sVtag
p2750
I0
sVposition
p2751
(lp2752
F4.1800760591963826
aF0.46802694879811746
aF21.721146501808381
asVmomentum
p2753
(lp2754
F0
aF0
aF0
asa(dp2755
Vmagmom
p2756
F0
sVindex
p2757
I51
sVsymbol
p2758
VPd
p2759
sVcharge
p2760
F0
sVtag
p2761
I0
sVposition
p2762
(lp2763
F5.3032521574882976
aF10.100955966515246
aF18.523987613678532
asVmomentum
p2764
(lp2765
F0
aF0
aF0
asa(dp2766
Vmagmom
p2767
F0
sVindex
p2768
I52
sVsymbol
p2769
VPd
p2770
sVcharge
p2771
F0
sVtag
p2772
I0
sVposition
p2773
(lp2774
F5.3032521574882985
aF0.94982059112092099
aF16.657956403150266
asVmomentum
p2775
(lp2776
F0
aF0
aF0
asa(dp2777
Vmagmom
p2778
F0
sVindex
p2779
I53
sVsymbol
p2780
VPd
p2781
sVcharge
p2782
F0
sVtag
p2783
I0
sVposition
p2784
(lp2785
F5.3032521574882985
aF5.5253882788180855
aF22.260697673200795
asVmomentum
p2786
(lp2787
F0
aF0
aF0
asa(dp2788
Vmagmom
p2789
F0
sVindex
p2790
I54
sVsymbol
p2791
VPd
p2792
sVcharge
p2793
F0
sVtag
p2794
I0
sVposition
p2795
(lp2796
F0.60427031251832897
aF8.2013147842734035
aF20.075359771116425
asVmomentum
p2797
(lp2798
F0
aF0
aF0
asa(dp2799
Vmagmom
p2800
F0
sVindex
p2801
I55
sVsymbol
p2802
VPd
p2803
sVcharge
p2804
F0
sVtag
p2805
I0
sVposition
p2806
(lp2807
F0.60427031251832852
aF12.776882471970561
aF16.338649711594165
asVmomentum
p2808
(lp2809
F0
aF0
aF0
asa(dp2810
Vmagmom
p2811
F0
sVindex
p2812
I56
sVsymbol
p2813
VPd
p2814
sVcharge
p2815
F0
sVtag
p2816
I0
sVposition
p2817
(lp2818
F0.6042703125183293
aF3.6257470965762373
aF14.472618501065895
asVmomentum
p2819
(lp2820
F0
aF0
aF0
asa(dp2821
Vmagmom
p2822
F0
sVindex
p2823
I57
sVsymbol
p2824
VPd
p2825
sVcharge
p2826
F0
sVtag
p2827
I0
sVposition
p2828
(lp2829
F1.7274464108102463
aF8.6831084265962026
aF15.012169672458311
asVmomentum
p2830
(lp2831
F0
aF0
aF0
asa(dp2832
Vmagmom
p2833
F0
sVindex
p2834
I58
sVsymbol
p2835
VPd
p2836
sVcharge
p2837
F0
sVtag
p2838
I0
sVposition
p2839
(lp2840
F1.7274464108102459
aF13.258676114293364
aF20.614910942508839
asVmomentum
p2841
(lp2842
F0
aF0
aF0
asa(dp2843
Vmagmom
p2844
F0
sVindex
p2845
I59
sVsymbol
p2846
VPd
p2847
sVcharge
p2848
F0
sVtag
p2849
I0
sVposition
p2850
(lp2851
F1.7274464108102467
aF4.1075407388990381
aF18.748879731980576
asVmomentum
p2852
(lp2853
F0
aF0
aF0
asasVcell
p2854
(lp2855
(lp2856
F5.9075224700066293
aF2.9582283945787943e-31
aF0
aa(lp2857
F-1.1780635879935481e-15
aF13.726703063091485
aF-1.8706788489939976
aa(lp2858
F5.9164567891575885e-31
aF0
aF37.35780531829117
aasVmass
p2859
F4327.2479999999987
sVpbc
p2860
(lp2861
I01
aI01
aI01
asVspacegroup
p2862
VP1 (1)
p2863
sVconstraints
p2864
(lp2865
(dp2866
Vname
p2867
VFixAtoms
p2868
sVkwargs
p2869
(dp2870
Vindices
p2871
(lp2872
I0
aI1
aI4
aI5
aI6
aI7
aI10
aI11
aI12
aI13
aI16
aI17
aI18
aI19
aI21
aI23
aI24
aI25
aI28
aI29
aI31
aI32
aI33
aI34
aI37
aI38
aI39
aI40
aI42
aI43
aI46
aI47
aI48
aI49
aI51
aI52
aI55
aI56
aI57
aI59
assasaa(lp2873
g701
ag2
((ltRp2874
aa(lp2875
g704
ag705
aa(lp2876
g707
aS'4783531949c4948b50afb5c27c079dce373e3715'
p2877
aa(lp2878
g710
ag711
(S'\x07\xe1\x03\x1f\x13-\x06\x00\xf06'
tRp2879
aa(lp2880
g714
ag711
(S'\x07\xe1\x03\x1f\x13-\x06\x00\xf0?'
tRp2881
aa(lp2882
g717
a(dp2883
g719
g729
sg730
I00
sg731
g732
sg733
g734
(g736
S'p\x8dr\x0c\xa4\xe7\xc0?'
tRp2884
sg738
g752
sg753
g754
sg755
I01
sg756
g757
sg758
I60
saatRp2885
ag2
((lp2886
(lp2887
g5
a(dp2888
Vinfo
p2889
(dp2890
sVvolume
p2891
F3029.3745729518605
sVnatoms
p2892
I60
sVsymbol_counts
p2893
(dp2894
VCu
p2895
I48
sVPd
p2896
I12
ssVchemical_symbols
p2897
(lp2898
VPd
p2899
aVCu
p2900
asVatoms
p2901
(lp2902
(dp2903
Vmagmom
p2904
F0
sVindex
p2905
I0
sVsymbol
p2906
VCu
p2907
sVcharge
p2908
F0
sVtag
p2909
I0
sVposition
p2910
(lp2911
F2.9537612350033142
aF-6.8633515315457441
aF-16.498303057372212
asVmomentum
p2912
(lp2913
F0
aF0
aF0
asa(dp2914
Vmagmom
p2915
F0
sVindex
p2916
I1
sVsymbol
p2917
VCu
p2918
sVcharge
p2919
F0
sVtag
p2920
I0
sVposition
p2921
(lp2922
F2.9537612350033138
aF-11.438919219242905
aF-12.761592997849947
asVmomentum
p2923
(lp2924
F0
aF0
aF0
asa(dp2925
Vmagmom
p2926
F0
sVindex
p2927
I2
sVsymbol
p2928
VCu
p2929
sVcharge
p2930
F0
sVtag
p2931
I0
sVposition
p2932
(lp2933
F2.9537612350033147
aF-2.287783843848584
aF-20.235013116894475
asVmomentum
p2934
(lp2935
F0
aF0
aF0
asa(dp2936
Vmagmom
p2937
F0
sVindex
p2938
I3
sVsymbol
p2939
VCu
p2940
sVcharge
p2941
F0
sVtag
p2942
I0
sVposition
p2943
(lp2944
F2.9537612350033138
aF-9.1511353753943236
aF-19.29967369239748
asVmomentum
p2945
(lp2946
F0
aF0
aF0
asa(dp2947
Vmagmom
p2948
F0
sVindex
p2949
I4
sVsymbol
p2950
VCu
p2951
sVcharge
p2952
F0
sVtag
p2953
I0
sVposition
p2954
(lp2955
F2.9537612350033147
aF-2.1350054462900451e-15
aF-17.433642481869214
asVmomentum
p2956
(lp2957
F0
aF0
aF0
asa(dp2958
Vmagmom
p2959
F0
sVindex
p2960
I5
sVsymbol
p2961
VCu
p2962
sVcharge
p2963
F0
sVtag
p2964
I0
sVposition
p2965
(lp2966
F2.9537612350033142
aF-4.5755676876971645
aF-13.696932422346949
asVmomentum
p2967
(lp2968
F0
aF0
aF0
asa(dp2969
Vmagmom
p2970
F0
sVindex
p2971
I6
sVsymbol
p2972
VCu
p2973
sVcharge
p2974
F0
sVtag
p2975
I0
sVposition
p2976
(lp2977
F-8.835476909951608e-16
aF-10.295027297318615
aF-16.030633345123714
asVmomentum
p2978
(lp2979
F0
aF0
aF0
asa(dp2980
Vmagmom
p2981
F0
sVindex
p2982
I7
sVsymbol
p2983
VCu
p2984
sVcharge
p2985
F0
sVtag
p2986
I0
sVposition
p2987
(lp2988
F-9.8171965666128759e-17
aF-1.1438919219242916
aF-14.164602134595448
asVmomentum
p2989
(lp2990
F0
aF0
aF0
asa(dp2991
Vmagmom
p2992
F0
sVindex
p2993
I8
sVsymbol
p2994
VCu
p2995
sVcharge
p2996
F0
sVtag
p2997
I0
sVposition
p2998
(lp2999
F-4.9085982833064468e-16
aF-5.7194596096214525
aF-19.767343404645981
asVmomentum
p3000
(lp3001
F0
aF0
aF0
asa(dp3002
Vmagmom
p3003
F0
sVindex
p3004
I9
sVsymbol
p3005
VCu
p3006
sVcharge
p3007
F0
sVtag
p3008
I0
sVposition
p3009
(lp3010
F-1.0798916223274189e-15
aF-12.582811141167197
aF-18.832003980148976
asVmomentum
p3011
(lp3012
F0
aF0
aF0
asa(dp3013
Vmagmom
p3014
F0
sVindex
p3015
I10
sVsymbol
p3016
VCu
p3017
sVcharge
p3018
F0
sVtag
p3019
I0
sVposition
p3020
(lp3021
F-2.9451589699838667e-16
aF-3.4316757657728725
aF-16.965972769620713
asVmomentum
p3022
(lp3023
F0
aF0
aF0
asa(dp3024
Vmagmom
p3025
F0
sVindex
p3026
I11
sVsymbol
p3027
VCu
p3028
sVcharge
p3029
F0
sVtag
p3030
I0
sVposition
p3031
(lp3032
F-6.8720375966290269e-16
aF-8.0072434534700339
aF-13.229262710098448
asVmomentum
p3033
(lp3034
F0
aF0
aF0
asa(dp3035
Vmagmom
p3036
F0
sVindex
p3037
I12
sVsymbol
p3038
VCu
p3039
sVcharge
p3040
F0
sVtag
p3041
I0
sVposition
p3042
(lp3043
F0.61399746179176884
aF-5.9836759030145572
aF-17.216704137764363
asVmomentum
p3044
(lp3045
F0
aF0
aF0
asa(dp3046
Vmagmom
p3047
F0
sVindex
p3048
I13
sVsymbol
p3049
VCu
p3050
sVcharge
p3051
F0
sVtag
p3052
I0
sVposition
p3053
(lp3054
F0.6139974617917684
aF-10.559243590711718
aF-13.479994078242099
asVmomentum
p3055
(lp3056
F0
aF0
aF0
asa(dp3057
Vmagmom
p3058
F0
sVindex
p3059
I14
sVsymbol
p3060
VCu
p3061
sVcharge
p3062
F0
sVtag
p3063
I0
sVposition
p3064
(lp3065
F0.61399746179176917
aF-1.4081082153173936
aF-20.953414197286627
asVmomentum
p3066
(lp3067
F0
aF0
aF0
asa(dp3068
Vmagmom
p3069
F0
sVindex
p3070
I15
sVsymbol
p3071
VCu
p3072
sVcharge
p3073
F0
sVtag
p3074
I0
sVposition
p3075
(lp3076
F4.089511790248765
aF-7.3389124728313959
aF-20.779654322628673
asVmomentum
p3077
(lp3078
F0
aF0
aF0
asa(dp3079
Vmagmom
p3080
F0
sVindex
p3081
I16
sVsymbol
p3082
VCu
p3083
sVcharge
p3084
F0
sVtag
p3085
I0
sVposition
p3086
(lp3087
F4.0895117902487641
aF-11.914480160528557
aF-17.04294426310641
asVmomentum
p3088
(lp3089
F0
aF0
aF0
asa(dp3090
Vmagmom
p3091
F0
sVindex
p3092
I17
sVsymbol
p3093
VCu
p3094
sVcharge
p3095
F0
sVtag
p3096
I0
sVposition
p3097
(lp3098
F4.089511790248765
aF-2.7633447851342341
aF-15.176913052578143
asVmomentum
p3099
(lp3100
F0
aF0
aF0
asa(dp3101
Vmagmom
p3102
F0
sVindex
p3103
I18
sVsymbol
p3104
VCu
p3105
sVcharge
p3106
F0
sVtag
p3107
I0
sVposition
p3108
(lp3109
F1.8180106797578632
aF-10.963358277957253
aF-17.81969306216628
asVmomentum
p3110
(lp3111
F0
aF0
aF0
asa(dp3112
Vmagmom
p3113
F0
sVindex
p3114
I19
sVsymbol
p3115
VCu
p3116
sVcharge
p3117
F0
sVtag
p3118
I0
sVposition
p3119
(lp3120
F1.8180106797578641
aF-1.8122229025629306
aF-15.953661851638019
asVmomentum
p3121
(lp3122
F0
aF0
aF0
asa(dp3123
Vmagmom
p3124
F0
sVindex
p3125
I20
sVsymbol
p3126
VCu
p3127
sVcharge
p3128
F0
sVtag
p3129
I0
sVposition
p3130
(lp3131
F1.8180106797578637
aF-6.3877905902600913
aF-21.55640312168855
asVmomentum
p3132
(lp3133
F0
aF0
aF0
asa(dp3134
Vmagmom
p3135
F0
sVindex
p3136
I21
sVsymbol
p3137
VCu
p3138
sVcharge
p3139
F0
sVtag
p3140
I0
sVposition
p3141
(lp3142
F5.2935250082148588
aF-7.7430271600769309
aF-15.779901976980058
asVmomentum
p3143
(lp3144
F0
aF0
aF0
asa(dp3145
Vmagmom
p3146
F0
sVindex
p3147
I22
sVsymbol
p3148
VCu
p3149
sVcharge
p3150
F0
sVtag
p3151
I0
sVposition
p3152
(lp3153
F5.2935250082148588
aF-12.318594847774094
aF-21.382643247030593
asVmomentum
p3154
(lp3155
F0
aF0
aF0
asa(dp3156
Vmagmom
p3157
F0
sVindex
p3158
I23
sVsymbol
p3159
VCu
p3160
sVcharge
p3161
F0
sVtag
p3162
I0
sVposition
p3163
(lp3164
F5.2935250082148597
aF-3.1674594723797704
aF-19.516612036502323
asVmomentum
p3165
(lp3166
F0
aF0
aF0
asa(dp3167
Vmagmom
p3168
F0
sVindex
p3169
I24
sVsymbol
p3170
VCu
p3171
sVcharge
p3172
F0
sVtag
p3173
I0
sVposition
p3174
(lp3175
F4.7093488970773603
aF-7.5610877182191087
aF-18.25631958118241
asVmomentum
p3176
(lp3177
F0
aF0
aF0
asa(dp3178
Vmagmom
p3179
F0
sVindex
p3180
I25
sVsymbol
p3181
VCu
p3182
sVcharge
p3183
F0
sVtag
p3184
I0
sVposition
p3185
(lp3186
F4.7093488970773603
aF-12.136655405916269
aF-14.519609521660145
asVmomentum
p3187
(lp3188
F0
aF0
aF0
asa(dp3189
Vmagmom
p3190
F0
sVindex
p3191
I26
sVsymbol
p3192
VCu
p3193
sVcharge
p3194
F0
sVtag
p3195
I0
sVposition
p3196
(lp3197
F4.7093488970773612
aF-2.9855200305219443
aF-21.993029640704673
asVmomentum
p3198
(lp3199
F0
aF0
aF0
asa(dp3200
Vmagmom
p3201
F0
sVindex
p3202
I27
sVsymbol
p3203
VCu
p3204
sVcharge
p3205
F0
sVtag
p3206
I0
sVposition
p3207
(lp3208
F3.5253475296288599
aF-11.651343243552981
aF-19.58567307561983
asVmomentum
p3209
(lp3210
F0
aF0
aF0
asa(dp3211
Vmagmom
p3212
F0
sVindex
p3213
I28
sVsymbol
p3214
VCu
p3215
sVcharge
p3216
F0
sVtag
p3217
I0
sVposition
p3218
(lp3219
F3.5253475296288603
aF-2.5002078681586588
aF-17.719641865091567
asVmomentum
p3220
(lp3221
F0
aF0
aF0
asa(dp3222
Vmagmom
p3223
F0
sVindex
p3224
I29
sVsymbol
p3225
VCu
p3226
sVcharge
p3227
F0
sVtag
p3228
I0
sVposition
p3229
(lp3230
F3.5253475296288603
aF-7.0757755558558184
aF-13.982931805569301
asVmomentum
p3231
(lp3232
F0
aF0
aF0
asa(dp3233
Vmagmom
p3234
F0
sVindex
p3235
I30
sVsymbol
p3236
VCu
p3237
sVcharge
p3238
F0
sVtag
p3239
I0
sVposition
p3240
(lp3241
F2.3821749403777672
aF-8.9318241150893716
aF-21.80661158598588
asVmomentum
p3242
(lp3243
F0
aF0
aF0
asa(dp3244
Vmagmom
p3245
F0
sVindex
p3246
I31
sVsymbol
p3247
VCu
p3248
sVcharge
p3249
F0
sVtag
p3250
I0
sVposition
p3251
(lp3252
F2.3821749403777668
aF-13.507391802786534
aF-18.069901526463621
asVmomentum
p3253
(lp3254
F0
aF0
aF0
asa(dp3255
Vmagmom
p3256
F0
sVindex
p3257
I32
sVsymbol
p3258
VCu
p3259
sVcharge
p3260
F0
sVtag
p3261
I0
sVposition
p3262
(lp3263
F2.3821749403777677
aF-4.3562564273922071
aF-16.203870315935355
asVmomentum
p3264
(lp3265
F0
aF0
aF0
asa(dp3266
Vmagmom
p3267
F0
sVindex
p3268
I33
sVsymbol
p3269
VCu
p3270
sVcharge
p3271
F0
sVtag
p3272
I0
sVposition
p3273
(lp3274
F1.1981735729292677
aF-8.4465119527260875
aF-17.533223810372775
asVmomentum
p3275
(lp3276
F0
aF0
aF0
asa(dp3277
Vmagmom
p3278
F0
sVindex
p3279
I34
sVsymbol
p3280
VCu
p3281
sVcharge
p3282
F0
sVtag
p3283
I0
sVposition
p3284
(lp3285
F1.1981735729292675
aF-13.022079640423248
aF-13.796513750850512
asVmomentum
p3286
(lp3287
F0
aF0
aF0
asa(dp3288
Vmagmom
p3289
F0
sVindex
p3290
I35
sVsymbol
p3291
VCu
p3292
sVcharge
p3293
F0
sVtag
p3294
I0
sVposition
p3295
(lp3296
F1.1981735729292682
aF-3.8709442650289256
aF-21.269933869895041
asVmomentum
p3297
(lp3298
F0
aF0
aF0
asa(dp3299
Vmagmom
p3300
F0
sVindex
p3301
I36
sVsymbol
p3302
VCu
p3303
sVcharge
p3304
F0
sVtag
p3305
I0
sVposition
p3306
(lp3307
F1.1981735729292675
aF-10.741183032569543
aF-20.343027803612546
asVmomentum
p3308
(lp3309
F0
aF0
aF0
asa(dp3310
Vmagmom
p3311
F0
sVindex
p3312
I37
sVsymbol
p3313
VCu
p3314
sVcharge
p3315
F0
sVtag
p3316
I0
sVposition
p3317
(lp3318
F1.1981735729292684
aF-1.5900476571752198
aF-18.476996593084277
asVmomentum
p3319
(lp3320
F0
aF0
aF0
asa(dp3321
Vmagmom
p3322
F0
sVindex
p3323
I38
sVsymbol
p3324
VCu
p3325
sVcharge
p3326
F0
sVtag
p3327
I0
sVposition
p3328
(lp3329
F1.198173572929268
aF-6.1656153448723803
aF-14.740286533562017
asVmomentum
p3330
(lp3331
F0
aF0
aF0
asa(dp3332
Vmagmom
p3333
F0
sVindex
p3334
I39
sVsymbol
p3335
VCu
p3336
sVcharge
p3337
F0
sVtag
p3338
I0
sVposition
p3339
(lp3340
F2.3821749403777677
aF-6.6509275072356688
aF-19.013674309175126
asVmomentum
p3341
(lp3342
F0
aF0
aF0
asa(dp3343
Vmagmom
p3344
F0
sVindex
p3345
I40
sVsymbol
p3346
VCu
p3347
sVcharge
p3348
F0
sVtag
p3349
I0
sVposition
p3350
(lp3351
F2.3821749403777672
aF-11.226495194932829
aF-15.276964249652858
asVmomentum
p3352
(lp3353
F0
aF0
aF0
asa(dp3354
Vmagmom
p3355
F0
sVindex
p3356
I41
sVsymbol
p3357
VCu
p3358
sVcharge
p3359
F0
sVtag
p3360
I0
sVposition
p3361
(lp3362
F2.3821749403777681
aF-2.0753598195385026
aF-22.750384368697389
asVmomentum
p3363
(lp3364
F0
aF0
aF0
asa(dp3365
Vmagmom
p3366
F0
sVindex
p3367
I42
sVsymbol
p3368
VCu
p3369
sVcharge
p3370
F0
sVtag
p3371
I0
sVposition
p3372
(lp3373
F3.5253475296288603
aF-9.3704466356992757
aF-16.792735798809069
asVmomentum
p3374
(lp3375
F0
aF0
aF0
asa(dp3376
Vmagmom
p3377
F0
sVindex
p3378
I43
sVsymbol
p3379
VCu
p3380
sVcharge
p3381
F0
sVtag
p3382
I0
sVposition
p3383
(lp3384
F3.5253475296288608
aF-0.2193112603049539
aF-14.926704588280806
asVmomentum
p3385
(lp3386
F0
aF0
aF0
asa(dp3387
Vmagmom
p3388
F0
sVindex
p3389
I44
sVsymbol
p3390
VCu
p3391
sVcharge
p3392
F0
sVtag
p3393
I0
sVposition
p3394
(lp3395
F3.5253475296288603
aF-4.7948789480021112
aF-20.529445858331329
asVmomentum
p3396
(lp3397
F0
aF0
aF0
asa(dp3398
Vmagmom
p3399
F0
sVindex
p3400
I45
sVsymbol
p3401
VCu
p3402
sVcharge
p3403
F0
sVtag
p3404
I0
sVposition
p3405
(lp3406
F4.7093488970773603
aF-9.8557587980625616
aF-21.066123574422178
asVmomentum
p3407
(lp3408
F0
aF0
aF0
asa(dp3409
Vmagmom
p3410
F0
sVindex
p3411
I46
sVsymbol
p3412
VCu
p3413
sVcharge
p3414
F0
sVtag
p3415
I0
sVposition
p3416
(lp3417
F4.7093488970773612
aF-0.7046234226682403
aF-19.200092363893916
asVmomentum
p3418
(lp3419
F0
aF0
aF0
asa(dp3420
Vmagmom
p3421
F0
sVindex
p3422
I47
sVsymbol
p3423
VCu
p3424
sVcharge
p3425
F0
sVtag
p3426
I0
sVposition
p3427
(lp3428
F4.7093488970773603
aF-5.2801911103653998
aF-15.463382304371651
asVmomentum
p3429
(lp3430
F0
aF0
aF0
asa(dp3431
Vmagmom
p3432
F0
sVindex
p3433
I48
sVsymbol
p3434
VPd
p3435
sVcharge
p3436
F0
sVtag
p3437
I0
sVposition
p3438
(lp3439
F4.1800760591963826
aF-5.0435946364952828
aF-17.984436442286114
asVmomentum
p3440
(lp3441
F0
aF0
aF0
asa(dp3442
Vmagmom
p3443
F0
sVindex
p3444
I49
sVsymbol
p3445
VPd
p3446
sVcharge
p3447
F0
sVtag
p3448
I0
sVposition
p3449
(lp3450
F4.1800760591963817
aF-9.6191623241924429
aF-14.247726382763849
asVmomentum
p3451
(lp3452
F0
aF0
aF0
asa(dp3453
Vmagmom
p3454
F0
sVindex
p3455
I50
sVsymbol
p3456
VPd
p3457
sVcharge
p3458
F0
sVtag
p3459
I0
sVposition
p3460
(lp3461
F4.1800760591963826
aF-0.46802694879812012
aF-21.721146501808381
asVmomentum
p3462
(lp3463
F0
aF0
aF0
asa(dp3464
Vmagmom
p3465
F0
sVindex
p3466
I51
sVsymbol
p3467
VPd
p3468
sVcharge
p3469
F0
sVtag
p3470
I0
sVposition
p3471
(lp3472
F5.3032521574882976
aF-10.100955966515247
aF-18.523987613678532
asVmomentum
p3473
(lp3474
F0
aF0
aF0
asa(dp3475
Vmagmom
p3476
F0
sVindex
p3477
I52
sVsymbol
p3478
VPd
p3479
sVcharge
p3480
F0
sVtag
p3481
I0
sVposition
p3482
(lp3483
F5.3032521574882985
aF-0.94982059112092299
aF-16.657956403150266
asVmomentum
p3484
(lp3485
F0
aF0
aF0
asa(dp3486
Vmagmom
p3487
F0
sVindex
p3488
I53
sVsymbol
p3489
VPd
p3490
sVcharge
p3491
F0
sVtag
p3492
I0
sVposition
p3493
(lp3494
F5.3032521574882985
aF-5.5253882788180881
aF-22.260697673200795
asVmomentum
p3495
(lp3496
F0
aF0
aF0
asa(dp3497
Vmagmom
p3498
F0
sVindex
p3499
I54
sVsymbol
p3500
VPd
p3501
sVcharge
p3502
F0
sVtag
p3503
I0
sVposition
p3504
(lp3505
F0.60427031251832897
aF-8.2013147842734053
aF-20.075359771116425
asVmomentum
p3506
(lp3507
F0
aF0
aF0
asa(dp3508
Vmagmom
p3509
F0
sVindex
p3510
I55
sVsymbol
p3511
VPd
p3512
sVcharge
p3513
F0
sVtag
p3514
I0
sVposition
p3515
(lp3516
F0.60427031251832852
aF-12.776882471970563
aF-16.338649711594165
asVmomentum
p3517
(lp3518
F0
aF0
aF0
asa(dp3519
Vmagmom
p3520
F0
sVindex
p3521
I56
sVsymbol
p3522
VPd
p3523
sVcharge
p3524
F0
sVtag
p3525
I0
sVposition
p3526
(lp3527
F0.6042703125183293
aF-3.6257470965762391
aF-14.472618501065895
asVmomentum
p3528
(lp3529
F0
aF0
aF0
asa(dp3530
Vmagmom
p3531
F0
sVindex
p3532
I57
sVsymbol
p3533
VPd
p3534
sVcharge
p3535
F0
sVtag
p3536
I0
sVposition
p3537
(lp3538
F1.7274464108102463
aF-8.6831084265962044
aF-15.01216967245831
asVmomentum
p3539
(lp3540
F0
aF0
aF0
asa(dp3541
Vmagmom
p3542
F0
sVindex
p3543
I58
sVsymbol
p3544
VPd
p3545
sVcharge
p3546
F0
sVtag
p3547
I0
sVposition
p3548
(lp3549
F1.7274464108102459
aF-13.258676114293365
aF-20.614910942508839
asVmomentum
p3550
(lp3551
F0
aF0
aF0
asa(dp3552
Vmagmom
p3553
F0
sVindex
p3554
I59
sVsymbol
p3555
VPd
p3556
sVcharge
p3557
F0
sVtag
p3558
I0
sVposition
p3559
(lp3560
F1.7274464108102467
aF-4.1075407388990408
aF-18.748879731980576
asVmomentum
p3561
(lp3562
F0
aF0
aF0
asasVcell
p3563
(lp3564
(lp3565
F5.9075224700066293
aF-2.9582283945787943e-31
aF3.6227849345677336e-47
aa(lp3566
F-1.1780635879935481e-15
aF-13.726703063091485
aF1.8706788489939994
aa(lp3567
F5.9164567891575885e-31
aF-4.5750116706215252e-15
aF-37.35780531829117
aasVmass
p3568
F4327.2479999999987
sVpbc
p3569
(lp3570
I01
aI01
aI01
asVspacegroup
p3571
VP1 (1)
p3572
sVconstraints
p3573
(lp3574
(dp3575
Vname
p3576
VFixAtoms
p3577
sVkwargs
p3578
(dp3579
Vindices
p3580
(lp3581
I0
aI2
aI3
aI4
aI6
aI8
aI9
aI10
aI12
aI14
aI15
aI16
aI18
aI20
aI22
aI23
aI24
aI26
aI27
aI28
aI30
aI31
aI33
aI35
aI36
aI37
aI39
aI41
aI42
aI44
aI45
aI46
aI48
aI50
aI51
aI53
aI54
aI55
aI58
aI59
assasaa(lp3582
g701
ag2
((ltRp3583
aa(lp3584
g704
ag705
aa(lp3585
g707
aS'469ef703dfbb45a7365d65793080ce25ba18331d'
p3586
aa(lp3587
g710
ag711
(S'\x07\xe1\x03\x1f\x13-\x06\x01\xbd\x07'
tRp3588
aa(lp3589
g714
ag711
(S'\x07\xe1\x03\x1f\x13-\x06\x01\xbd\x11'
tRp3590
aa(lp3591
g717
a(dp3592
g719
g729
sg730
I00
sg731
g732
sg733
g2884
sg738
g752
sg753
g754
sg755
I00
sg756
g757
sg758
I60
saatRp3593
a.