(lp1
ccollections
OrderedDict
p2
((lp3
(lp4
S'atoms'
p5
a(dp6
Vinfo
p7
(dp8
sVvolume
p9
F1076.4514741935595
sVnatoms
p10
I24
sVsymbol_counts
p11
(dp12
VCu
p13
I18
sVPd
p14
I6
ssVchemical_symbols
p15
(lp16
VPd
p17
aVCu
p18
asVatoms
p19
(lp20
(dp21
Vmagmom
p22
F0
sVindex
p23
I0
sVsymbol
p24
VCu
p25
sVcharge
p26
F0
sVtag
p27
I0
sVposition
p28
(lp29
F1.857355595
aF3.9400462088978241
aF16.635750659790812
asVmomentum
p30
(lp31
F0
aF0
aF0
asa(dp32
Vmagmom
p33
F0
sVindex
p34
I1
sVsymbol
p35
VCu
p36
sVcharge
p37
F0
sVtag
p38
I0
sVposition
p39
(lp40
F1.8573555949999998
aF1.3133487362992762
aF14.009053187192261
asVmomentum
p41
(lp42
F0
aF0
aF0
asa(dp43
Vmagmom
p44
F0
sVindex
p45
I2
sVsymbol
p46
VCu
p47
sVcharge
p48
F0
sVtag
p49
I0
sVposition
p50
(lp51
F1.8573555949999994
aF6.5667436814963729
aF19.262448132389363
asVmomentum
p52
(lp53
F0
aF0
aF0
asa(dp54
Vmagmom
p55
F0
sVindex
p56
I3
sVsymbol
p57
VCu
p58
sVcharge
p59
F0
sVtag
p60
I0
sVposition
p61
(lp62
F1.9721522630525295e-31
aF5.2533949451970985
aF15.322401923491539
asVmomentum
p63
(lp64
F0
aF0
aF0
asa(dp65
Vmagmom
p66
F0
sVindex
p67
I4
sVsymbol
p68
VCu
p69
sVcharge
p70
F0
sVtag
p71
I0
sVposition
p72
(lp73
F0
aF2.6266974725985497
aF17.949099396090087
asVmomentum
p74
(lp75
F0
aF0
aF0
asa(dp76
Vmagmom
p77
F0
sVindex
p78
I5
sVsymbol
p79
VCu
p80
sVcharge
p81
F0
sVtag
p82
I0
sVposition
p83
(lp84
F0
aF0
aF15.322401923491537
asVmomentum
p85
(lp86
F0
aF0
aF0
asa(dp87
Vmagmom
p88
F0
sVindex
p89
I6
sVsymbol
p90
VCu
p91
sVcharge
p92
F0
sVtag
p93
I0
sVposition
p94
(lp95
F1.857355595
aF6.5667436814963702
aF16.635750659790808
asVmomentum
p96
(lp97
F0
aF0
aF0
asa(dp98
Vmagmom
p99
F0
sVindex
p100
I7
sVsymbol
p101
VCu
p102
sVcharge
p103
F0
sVtag
p104
I0
sVposition
p105
(lp106
F1.8573555949999998
aF3.9400462088978232
aF19.262448132389359
asVmomentum
p107
(lp108
F0
aF0
aF0
asa(dp109
Vmagmom
p110
F0
sVindex
p111
I8
sVsymbol
p112
VCu
p113
sVcharge
p114
F0
sVtag
p115
I0
sVposition
p116
(lp117
F1.8573555949999994
aF1.3133487362992744
aF16.635750659790812
asVmomentum
p118
(lp119
F0
aF0
aF0
asa(dp120
Vmagmom
p121
F0
sVindex
p122
I9
sVsymbol
p123
VPd
p124
sVcharge
p125
F0
sVtag
p126
I0
sVposition
p127
(lp128
F3.944304526105059e-31
aF5.2533949451970958
aF17.949099396090084
asVmomentum
p129
(lp130
F0
aF0
aF0
asa(dp131
Vmagmom
p132
F0
sVindex
p133
I10
sVsymbol
p134
VPd
p135
sVcharge
p136
F0
sVtag
p137
I0
sVposition
p138
(lp139
F3.944304526105059e-31
aF2.6266974725985488
aF15.322401923491535
asVmomentum
p140
(lp141
F0
aF0
aF0
asa(dp142
Vmagmom
p143
F0
sVindex
p144
I11
sVsymbol
p145
VPd
p146
sVcharge
p147
F0
sVtag
p148
I0
sVposition
p149
(lp150
F1.9721522630525295e-31
aF0
aF17.949099396090084
asVmomentum
p151
(lp152
F0
aF0
aF0
asa(dp153
Vmagmom
p154
F0
sVindex
p155
I12
sVsymbol
p156
VCu
p157
sVcharge
p158
F0
sVtag
p159
I0
sVposition
p160
(lp161
F1.8573555949999998
aF3.9400462088978205
aF21.88914560498791
asVmomentum
p162
(lp163
F0
aF0
aF0
asa(dp164
Vmagmom
p165
F0
sVindex
p166
I13
sVsymbol
p167
VCu
p168
sVcharge
p169
F0
sVtag
p170
I0
sVposition
p171
(lp172
F1.8573555949999996
aF1.3133487362992753
aF19.262448132389363
asVmomentum
p173
(lp174
F0
aF0
aF0
asa(dp175
Vmagmom
p176
F0
sVindex
p177
I14
sVsymbol
p178
VCu
p179
sVcharge
p180
F0
sVtag
p181
I0
sVposition
p182
(lp183
F1.8573555949999994
aF6.5667436814963729
aF24.51584307758646
asVmomentum
p184
(lp185
F0
aF0
aF0
asa(dp186
Vmagmom
p187
F0
sVindex
p188
I15
sVsymbol
p189
VCu
p190
sVcharge
p191
F0
sVtag
p192
I0
sVposition
p193
(lp194
F3.944304526105059e-31
aF5.2533949451970976
aF20.575796868688638
asVmomentum
p195
(lp196
F0
aF0
aF0
asa(dp197
Vmagmom
p198
F0
sVindex
p199
I16
sVsymbol
p200
VCu
p201
sVcharge
p202
F0
sVtag
p203
I0
sVposition
p204
(lp205
F7.8886090522101181e-31
aF2.6266974725985506
aF23.202494341287185
asVmomentum
p206
(lp207
F0
aF0
aF0
asa(dp208
Vmagmom
p209
F0
sVindex
p210
I17
sVsymbol
p211
VCu
p212
sVcharge
p213
F0
sVtag
p214
I0
sVposition
p215
(lp216
F3.944304526105059e-31
aF0
aF20.575796868688638
asVmomentum
p217
(lp218
F0
aF0
aF0
asa(dp219
Vmagmom
p220
F0
sVindex
p221
I18
sVsymbol
p222
VCu
p223
sVcharge
p224
F0
sVtag
p225
I0
sVposition
p226
(lp227
F1.8573555949999998
aF6.566743681496372
aF21.88914560498791
asVmomentum
p228
(lp229
F0
aF0
aF0
asa(dp230
Vmagmom
p231
F0
sVindex
p232
I19
sVsymbol
p233
VCu
p234
sVcharge
p235
F0
sVtag
p236
I0
sVposition
p237
(lp238
F1.8573555949999998
aF3.9400462088978241
aF24.51584307758646
asVmomentum
p239
(lp240
F0
aF0
aF0
asa(dp241
Vmagmom
p242
F0
sVindex
p243
I20
sVsymbol
p244
VCu
p245
sVcharge
p246
F0
sVtag
p247
I0
sVposition
p248
(lp249
F1.8573555949999991
aF1.3133487362992735
aF21.88914560498791
asVmomentum
p250
(lp251
F0
aF0
aF0
asa(dp252
Vmagmom
p253
F0
sVindex
p254
I21
sVsymbol
p255
VPd
p256
sVcharge
p257
F0
sVtag
p258
I0
sVposition
p259
(lp260
F3.944304526105059e-31
aF5.2533949451970958
aF23.202494341287185
asVmomentum
p261
(lp262
F0
aF0
aF0
asa(dp263
Vmagmom
p264
F0
sVindex
p265
I22
sVsymbol
p266
VPd
p267
sVcharge
p268
F0
sVtag
p269
I0
sVposition
p270
(lp271
F3.944304526105059e-31
aF2.6266974725985488
aF20.575796868688634
asVmomentum
p272
(lp273
F0
aF0
aF0
asa(dp274
Vmagmom
p275
F0
sVindex
p276
I23
sVsymbol
p277
VPd
p278
sVcharge
p279
F0
sVtag
p280
I0
sVposition
p281
(lp282
F0
aF1.7763568394002505e-15
aF23.202494341287185
asVmomentum
p283
(lp284
F0
aF0
aF0
asasVcell
p285
(lp286
(lp287
F3.7147111899999996
aF0
aF0
aa(lp288
F1.4791141972893971e-31
aF7.8800924177956473
aF2.6266974725985501
aa(lp289
F3.944304526105059e-31
aF0
aF36.773764616379694
aasVmass
p290
F1782.3480000000004
sVpbc
p291
(lp292
I01
aI01
aI01
asVspacegroup
p293
VPm (6)
p294
sVconstraints
p295
(lp296
(dp297
Vname
p298
VFixAtoms
p299
sVkwargs
p300
(dp301
Vindices
p302
(lp303
I0
aI1
aI2
aI3
aI4
aI5
aI6
aI7
aI8
aI9
aI10
aI11
aI13
aI15
aI18
aI22
assasaa(lp304
S'results'
p305
ag2
((ltRp306
aa(lp307
S'user'
p308
aS'ktran'
p309
aa(lp310
S'inserted-hash'
p311
aS'b29c8ea09112fa9d2d71015cf8e87a98d68495a3'
p312
aa(lp313
S'ctime'
p314
acdatetime
datetime
p315
(S'\x07\xe1\x03\x1f\x13,\x05\x0e\x7f\x8d'
tRp316
aa(lp317
S'mtime'
p318
ag315
(S'\x07\xe1\x03\x1f\x13,\x05\x0e\x7f\xb7'
tRp319
aa(lp320
S'tags'
p321
a(dp322
S'get_slab_settings'
p323
g2
((lp324
(lp325
S'max_broken_bonds'
p326
aI0
aa(lp327
S'bonds'
p328
aNaa(lp329
S'tol'
p330
aF0.29999999999999999
aa(lp331
S'symmetrize'
p332
aI00
aatRp333
sS'relaxed'
p334
I00
sS'mpid'
p335
Vmp-580357
p336
sS'shift'
p337
I0
sS'slab_generate_settings'
p338
g2
((lp339
(lp340
S'primitive'
p341
aI01
aa(lp342
S'min_vacuum_size'
p343
aF20
aa(lp344
S'lll_reduce'
p345
aI00
aa(lp346
S'max_normal_search'
p347
aI1
aa(lp348
S'min_slab_size'
p349
aF7
aa(lp350
S'center_slab'
p351
aI01
aatRp352
sS'miller'
p353
(I2
I1
I0
tp354
sS'top'
p355
I01
sS'type'
p356
S'slab'
p357
sS'num_slab_atoms'
p358
I24
saatRp359
ag2
((lp360
(lp361
g5
a(dp362
Vinfo
p363
(dp364
sVvolume
p365
F1076.4514741935595
sVnatoms
p366
I24
sVsymbol_counts
p367
(dp368
VCu
p369
I18
sVPd
p370
I6
ssVchemical_symbols
p371
(lp372
VPd
p373
aVCu
p374
asVatoms
p375
(lp376
(dp377
Vmagmom
p378
F0
sVindex
p379
I0
sVsymbol
p380
VCu
p381
sVcharge
p382
F0
sVtag
p383
I0
sVposition
p384
(lp385
F1.857355595
aF-3.9400462088978263
aF-16.635750659790812
asVmomentum
p386
(lp387
F0
aF0
aF0
asa(dp388
Vmagmom
p389
F0
sVindex
p390
I1
sVsymbol
p391
VCu
p392
sVcharge
p393
F0
sVtag
p394
I0
sVposition
p395
(lp396
F1.8573555949999998
aF-1.313348736299278
aF-14.009053187192261
asVmomentum
p397
(lp398
F0
aF0
aF0
asa(dp399
Vmagmom
p400
F0
sVindex
p401
I2
sVsymbol
p402
VCu
p403
sVcharge
p404
F0
sVtag
p405
I0
sVposition
p406
(lp407
F1.8573555949999994
aF-6.5667436814963756
aF-19.262448132389363
asVmomentum
p408
(lp409
F0
aF0
aF0
asa(dp410
Vmagmom
p411
F0
sVindex
p412
I3
sVsymbol
p413
VCu
p414
sVcharge
p415
F0
sVtag
p416
I0
sVposition
p417
(lp418
F1.9721522630525295e-31
aF-5.2533949451971003
aF-15.322401923491539
asVmomentum
p419
(lp420
F0
aF0
aF0
asa(dp421
Vmagmom
p422
F0
sVindex
p423
I4
sVsymbol
p424
VCu
p425
sVcharge
p426
F0
sVtag
p427
I0
sVposition
p428
(lp429
F0
aF-2.6266974725985519
aF-17.949099396090087
asVmomentum
p430
(lp431
F0
aF0
aF0
asa(dp432
Vmagmom
p433
F0
sVindex
p434
I5
sVsymbol
p435
VCu
p436
sVcharge
p437
F0
sVtag
p438
I0
sVposition
p439
(lp440
F0
aF-1.8764530470853157e-15
aF-15.322401923491537
asVmomentum
p441
(lp442
F0
aF0
aF0
asa(dp443
Vmagmom
p444
F0
sVindex
p445
I6
sVsymbol
p446
VCu
p447
sVcharge
p448
F0
sVtag
p449
I0
sVposition
p450
(lp451
F1.857355595
aF-6.566743681496372
aF-16.635750659790808
asVmomentum
p452
(lp453
F0
aF0
aF0
asa(dp454
Vmagmom
p455
F0
sVindex
p456
I7
sVsymbol
p457
VCu
p458
sVcharge
p459
F0
sVtag
p460
I0
sVposition
p461
(lp462
F1.8573555949999998
aF-3.9400462088978254
aF-19.262448132389359
asVmomentum
p463
(lp464
F0
aF0
aF0
asa(dp465
Vmagmom
p466
F0
sVindex
p467
I8
sVsymbol
p468
VCu
p469
sVcharge
p470
F0
sVtag
p471
I0
sVposition
p472
(lp473
F1.8573555949999994
aF-1.3133487362992764
aF-16.635750659790812
asVmomentum
p474
(lp475
F0
aF0
aF0
asa(dp476
Vmagmom
p477
F0
sVindex
p478
I9
sVsymbol
p479
VPd
p480
sVcharge
p481
F0
sVtag
p482
I0
sVposition
p483
(lp484
F3.944304526105059e-31
aF-5.2533949451970976
aF-17.949099396090084
asVmomentum
p485
(lp486
F0
aF0
aF0
asa(dp487
Vmagmom
p488
F0
sVindex
p489
I10
sVsymbol
p490
VPd
p491
sVcharge
p492
F0
sVtag
p493
I0
sVposition
p494
(lp495
F3.944304526105059e-31
aF-2.6266974725985506
aF-15.322401923491535
asVmomentum
p496
(lp497
F0
aF0
aF0
asa(dp498
Vmagmom
p499
F0
sVindex
p500
I11
sVsymbol
p501
VPd
p502
sVcharge
p503
F0
sVtag
p504
I0
sVposition
p505
(lp506
F1.9721522630525295e-31
aF-2.1981307122999413e-15
aF-17.949099396090084
asVmomentum
p507
(lp508
F0
aF0
aF0
asa(dp509
Vmagmom
p510
F0
sVindex
p511
I12
sVsymbol
p512
VCu
p513
sVcharge
p514
F0
sVtag
p515
I0
sVposition
p516
(lp517
F1.8573555949999998
aF-3.9400462088978232
aF-21.88914560498791
asVmomentum
p518
(lp519
F0
aF0
aF0
asa(dp520
Vmagmom
p521
F0
sVindex
p522
I13
sVsymbol
p523
VCu
p524
sVcharge
p525
F0
sVtag
p526
I0
sVposition
p527
(lp528
F1.8573555949999996
aF-1.3133487362992777
aF-19.262448132389363
asVmomentum
p529
(lp530
F0
aF0
aF0
asa(dp531
Vmagmom
p532
F0
sVindex
p533
I14
sVsymbol
p534
VCu
p535
sVcharge
p536
F0
sVtag
p537
I0
sVposition
p538
(lp539
F1.8573555949999994
aF-6.5667436814963756
aF-24.51584307758646
asVmomentum
p540
(lp541
F0
aF0
aF0
asa(dp542
Vmagmom
p543
F0
sVindex
p544
I15
sVsymbol
p545
VCu
p546
sVcharge
p547
F0
sVtag
p548
I0
sVposition
p549
(lp550
F3.944304526105059e-31
aF-5.2533949451971003
aF-20.575796868688638
asVmomentum
p551
(lp552
F0
aF0
aF0
asa(dp553
Vmagmom
p554
F0
sVindex
p555
I16
sVsymbol
p556
VCu
p557
sVcharge
p558
F0
sVtag
p559
I0
sVposition
p560
(lp561
F7.8886090522101181e-31
aF-2.6266974725985532
aF-23.202494341287185
asVmomentum
p562
(lp563
F0
aF0
aF0
asa(dp564
Vmagmom
p565
F0
sVindex
p566
I17
sVsymbol
p567
VCu
p568
sVcharge
p569
F0
sVtag
p570
I0
sVposition
p571
(lp572
F3.944304526105059e-31
aF-2.5198083775145672e-15
aF-20.575796868688638
asVmomentum
p573
(lp574
F0
aF0
aF0
asa(dp575
Vmagmom
p576
F0
sVindex
p577
I18
sVsymbol
p578
VCu
p579
sVcharge
p580
F0
sVtag
p581
I0
sVposition
p582
(lp583
F1.8573555949999998
aF-6.5667436814963747
aF-21.88914560498791
asVmomentum
p584
(lp585
F0
aF0
aF0
asa(dp586
Vmagmom
p587
F0
sVindex
p588
I19
sVsymbol
p589
VCu
p590
sVcharge
p591
F0
sVtag
p592
I0
sVposition
p593
(lp594
F1.8573555949999998
aF-3.9400462088978272
aF-24.51584307758646
asVmomentum
p595
(lp596
F0
aF0
aF0
asa(dp597
Vmagmom
p598
F0
sVindex
p599
I20
sVsymbol
p600
VCu
p601
sVcharge
p602
F0
sVtag
p603
I0
sVposition
p604
(lp605
F1.8573555949999991
aF-1.3133487362992762
aF-21.88914560498791
asVmomentum
p606
(lp607
F0
aF0
aF0
asa(dp608
Vmagmom
p609
F0
sVindex
p610
I21
sVsymbol
p611
VPd
p612
sVcharge
p613
F0
sVtag
p614
I0
sVposition
p615
(lp616
F3.944304526105059e-31
aF-5.2533949451970985
aF-23.202494341287185
asVmomentum
p617
(lp618
F0
aF0
aF0
asa(dp619
Vmagmom
p620
F0
sVindex
p621
I22
sVsymbol
p622
VPd
p623
sVcharge
p624
F0
sVtag
p625
I0
sVposition
p626
(lp627
F3.944304526105059e-31
aF-2.6266974725985515
aF-20.575796868688634
asVmomentum
p628
(lp629
F0
aF0
aF0
asa(dp630
Vmagmom
p631
F0
sVindex
p632
I23
sVsymbol
p633
VPd
p634
sVcharge
p635
F0
sVtag
p636
I0
sVposition
p637
(lp638
F0
aF-4.6178428821294436e-15
aF-23.202494341287185
asVmomentum
p639
(lp640
F0
aF0
aF0
asasVcell
p641
(lp642
(lp643
F3.7147111899999996
aF0
aF0
aa(lp644
F1.4791141972893971e-31
aF-7.8800924177956473
aF-2.6266974725985492
aa(lp645
F3.944304526105059e-31
aF-4.5034873130047584e-15
aF-36.773764616379694
aasVmass
p646
F1782.3480000000004
sVpbc
p647
(lp648
I01
aI01
aI01
asVspacegroup
p649
VPm (6)
p650
sVconstraints
p651
(lp652
(dp653
Vname
p654
VFixAtoms
p655
sVkwargs
p656
(dp657
Vindices
p658
(lp659
I2
aI4
aI7
aI11
aI12
aI13
aI14
aI15
aI16
aI17
aI18
aI19
aI20
aI21
aI22
aI23
assasaa(lp660
g305
ag2
((ltRp661
aa(lp662
g308
ag309
aa(lp663
g311
aS'e3a99909bd94310a9dff4d1a1598f19dce169c9f'
p664
aa(lp665
g314
ag315
(S'\x07\xe1\x03\x1f\x13,\x05\x0e\xac1'
tRp666
aa(lp667
g318
ag315
(S'\x07\xe1\x03\x1f\x13,\x05\x0e\xac9'
tRp668
aa(lp669
g321
a(dp670
g323
g333
sg334
I00
sg335
g336
sg337
I0
sg338
g352
sg353
g354
sg355
I00
sg356
g357
sg358
I24
saatRp671
a.