(lp1
ccollections
OrderedDict
p2
((lp3
(lp4
S'atoms'
p5
a(dp6
Vinfo
p7
(dp8
sVvolume
p9
F496.61666362130592
sVnatoms
p10
I12
sVsymbol_counts
p11
(dp12
VCu
p13
I12
ssVchemical_symbols
p14
(lp15
VCu
p16
asVatoms
p17
(lp18
(dp19
Vmagmom
p20
F0
sVindex
p21
I0
sVsymbol
p22
VCu
p23
sVcharge
p24
F0
sVtag
p25
I0
sVposition
p26
(lp27
F1.0085370203617143
aF1.3954940319170612
aF15.072457778541501
asVmomentum
p28
(lp29
F0
aF0
aF0
asa(dp30
Vmagmom
p31
F0
sVindex
p32
I1
sVsymbol
p33
VCu
p34
sVcharge
p35
F0
sVtag
p36
I0
sVposition
p37
(lp38
F2.9011424178283285
aF0.62556629016971588
aF13.534778770316223
asVmomentum
p39
(lp40
F0
aF0
aF0
asa(dp41
Vmagmom
p42
F0
sVindex
p43
I2
sVsymbol
p44
VCu
p45
sVcharge
p46
F0
sVtag
p47
I0
sVposition
p48
(lp49
F2.7272273272503154
aF2.1654217736644075
aF16.802346662794935
asVmomentum
p50
(lp51
F0
aF0
aF0
asa(dp52
Vmagmom
p53
F0
sVindex
p54
I3
sVsymbol
p55
VCu
p56
sVcharge
p57
F0
sVtag
p58
I0
sVposition
p59
(lp60
F2.8551060703223845
aF3.0315904831301728
aF14.399723212442943
asVmomentum
p61
(lp62
F0
aF0
aF0
asa(dp63
Vmagmom
p64
F0
sVindex
p65
I4
sVsymbol
p66
VCu
p67
sVcharge
p68
F0
sVtag
p69
I0
sVposition
p70
(lp71
F1.1364157634337833
aF2.2616627413828243
aF12.669834328189509
asVmomentum
p72
(lp73
F0
aF0
aF0
asa(dp74
Vmagmom
p75
F0
sVindex
p76
I5
sVsymbol
p77
VCu
p78
sVcharge
p79
F0
sVtag
p80
I0
sVposition
p81
(lp82
F4.573796377210984
aF3.8015182248775172
aF16.129612096696377
asVmomentum
p83
(lp84
F0
aF0
aF0
asa(dp85
Vmagmom
p86
F0
sVindex
p87
I6
sVsymbol
p88
VCu
p89
sVcharge
p90
F0
sVtag
p91
I0
sVposition
p92
(lp93
F2.5533122366723022
aF3.7052772571590964
aF20.069914555273645
asVmomentum
p94
(lp95
F0
aF0
aF0
asa(dp96
Vmagmom
p97
F0
sVindex
p98
I7
sVsymbol
p99
VCu
p100
sVcharge
p101
F0
sVtag
p102
I0
sVposition
p103
(lp104
F4.4459176341389188
aF2.9353495154117546
aF18.532235547048373
asVmomentum
p105
(lp106
F0
aF0
aF0
asa(dp107
Vmagmom
p108
F0
sVindex
p109
I8
sVsymbol
p110
VCu
p111
sVcharge
p112
F0
sVtag
p113
I0
sVposition
p114
(lp115
F2.4714698411061793
aF0.43308435473287954
aF21.607593563498924
asVmomentum
p116
(lp117
F0
aF0
aF0
asa(dp118
Vmagmom
p119
F0
sVindex
p120
I9
sVsymbol
p121
VCu
p122
sVcharge
p123
F0
sVtag
p124
I0
sVposition
p125
(lp126
F2.5993485841782475
aF1.2992530641986431
aF19.204970113146931
asVmomentum
p127
(lp128
F0
aF0
aF0
asa(dp129
Vmagmom
p130
F0
sVindex
p131
I10
sVsymbol
p132
VCu
p133
sVcharge
p134
F0
sVtag
p135
I0
sVposition
p136
(lp137
F0.88065827728964519
aF0.52932532245129771
aF17.475081228893494
asVmomentum
p138
(lp139
F0
aF0
aF0
asa(dp140
Vmagmom
p141
F0
sVindex
p142
I11
sVsymbol
p143
VCu
p144
sVcharge
p145
F0
sVtag
p146
I0
sVposition
p147
(lp148
F4.3180388910668484
aF2.0691808059459902
aF20.934858997400358
asVmomentum
p149
(lp150
F0
aF0
aF0
asasVcell
p151
(lp152
(lp153
F3.6112957043552156
aF0
aF0.1922098760281592
aa(lp154
F1.8005327024547253
aF4.042120644173564
aF0.19220987602815864
aa(lp155
F0
aF-1.7763568394002505e-15
aF34.021148056984217
aasVmass
p156
F762.55200000000013
sVpbc
p157
(lp158
I01
aI01
aI01
asVspacegroup
p159
VC2/m (12)
p160
sVconstraints
p161
(lp162
(dp163
Vname
p164
VFixAtoms
p165
sVkwargs
p166
(dp167
Vindices
p168
(lp169
I0
aI1
aI2
aI3
aI4
aI5
aI7
aI10
assasaa(lp170
S'results'
p171
ag2
((ltRp172
aa(lp173
S'user'
p174
aS'ktran'
p175
aa(lp176
S'inserted-hash'
p177
aS'5be37748e75d2ae96b4ca5ac684e05cdad1fad10'
p178
aa(lp179
S'ctime'
p180
acdatetime
datetime
p181
(S"\x07\xe1\x03\x1f\x13)-\x03\xd4'"
tRp182
aa(lp183
S'mtime'
p184
ag181
(S'\x07\xe1\x03\x1f\x13)-\x03\xd4P'
tRp185
aa(lp186
S'tags'
p187
a(dp188
S'get_slab_settings'
p189
g2
((lp190
(lp191
S'max_broken_bonds'
p192
aI0
aa(lp193
S'bonds'
p194
aNaa(lp195
S'tol'
p196
aF0.29999999999999999
aa(lp197
S'symmetrize'
p198
aI00
aatRp199
sS'relaxed'
p200
I00
sS'mpid'
p201
Vmp-30
p202
sS'shift'
p203
I0
sS'slab_generate_settings'
p204
g2
((lp205
(lp206
S'primitive'
p207
aI01
aa(lp208
S'min_vacuum_size'
p209
aF20
aa(lp210
S'lll_reduce'
p211
aI00
aa(lp212
S'max_normal_search'
p213
aI1
aa(lp214
S'min_slab_size'
p215
aF7
aa(lp216
S'center_slab'
p217
aI01
aatRp218
sS'miller'
p219
(I2
I1
I0
tp220
sS'top'
p221
I01
sS'type'
p222
S'slab'
p223
sS'num_slab_atoms'
p224
I12
saatRp225
a.