(lp1
ccollections
OrderedDict
p2
((lp3
(lp4
S'atoms'
p5
a(dp6
Vinfo
p7
(dp8
sVvolume
p9
F358.2331311575993
sVnatoms
p10
I28
sVsymbol_counts
p11
(dp12
VCu
p13
I21
sVPd
p14
I7
ssVchemical_symbols
p15
(lp16
VPd
p17
aVCu
p18
asVatoms
p19
(lp20
(dp21
Vmagmom
p22
F0
sVindex
p23
I0
sVsymbol
p24
VCu
p25
sVcharge
p26
F0
sVtag
p27
I0
sVposition
p28
(lp29
F1.8606076592391303
aF1.8605254943309721
aF25.833448697529317
asVmomentum
p30
(lp31
F0
aF0
aF0
asa(dp32
Vmagmom
p33
F0
sVindex
p34
I1
sVsymbol
p35
VCu
p36
sVcharge
p37
F0
sVtag
p38
I0
sVposition
p39
(lp40
F1.8606035117753847
aF1.8605735821874145
aF7.3906568724308688
asVmomentum
p41
(lp42
F0
aF0
aF0
asa(dp43
Vmagmom
p44
F0
sVindex
p45
I2
sVsymbol
p46
VCu
p47
sVcharge
p48
F0
sVtag
p49
I0
sVposition
p50
(lp51
F4.9207852585799999e-05
aF1.8605417623968161
aF16.531792701895572
asVmomentum
p52
(lp53
F0
aF0
aF0
asa(dp54
Vmagmom
p55
F0
sVindex
p56
I3
sVsymbol
p57
VCu
p58
sVcharge
p59
F0
sVtag
p60
I0
sVposition
p61
(lp62
F-2.1026336678000004e-06
aF1.8605525083144876
aF23.959406729716505
asVmomentum
p63
(lp64
F0
aF0
aF0
asa(dp65
Vmagmom
p66
F0
sVindex
p67
I4
sVsymbol
p68
VCu
p69
sVcharge
p70
F0
sVtag
p71
I0
sVposition
p72
(lp73
F1.8606181481241768
aF3.7211530105385262
aF16.53176845930691
asVmomentum
p74
(lp75
F0
aF0
aF0
asa(dp76
Vmagmom
p77
F0
sVindex
p78
I5
sVsymbol
p79
VCu
p80
sVcharge
p81
F0
sVtag
p82
I0
sVposition
p83
(lp84
F3.7212533908436005
aF-4.0540978322899988e-05
aF14.704280207347132
asVmomentum
p85
(lp86
F0
aF0
aF0
asa(dp87
Vmagmom
p88
F0
sVindex
p89
I6
sVsymbol
p90
VCu
p91
sVcharge
p92
F0
sVtag
p93
I0
sVposition
p94
(lp95
F1.8606285835394405
aF-8.0379351477099999e-05
aF23.959449503637902
asVmomentum
p96
(lp97
F0
aF0
aF0
asa(dp98
Vmagmom
p99
F0
sVindex
p100
I7
sVsymbol
p101
VCu
p102
sVcharge
p103
F0
sVtag
p104
I0
sVposition
p105
(lp106
F1.8606330615689959
aF-5.2157331986300005e-05
aF20.2201706899464
asVmomentum
p107
(lp108
F0
aF0
aF0
asa(dp109
Vmagmom
p110
F0
sVindex
p111
I8
sVsymbol
p112
VCu
p113
sVcharge
p114
F0
sVtag
p115
I0
sVposition
p116
(lp117
F-1.9029146900100001e-05
aF1.8606027851060543
aF9.2355625849564387
asVmomentum
p118
(lp119
F0
aF0
aF0
asa(dp120
Vmagmom
p121
F0
sVindex
p122
I9
sVsymbol
p123
VCu
p124
sVcharge
p125
F0
sVtag
p126
I0
sVposition
p127
(lp128
F1.8606478831743598
aF-4.1102049327300003e-05
aF5.5418908316804671
asVmomentum
p129
(lp130
F0
aF0
aF0
asa(dp131
Vmagmom
p132
F0
sVindex
p133
I10
sVsymbol
p134
VCu
p135
sVcharge
p136
F0
sVtag
p137
I0
sVposition
p138
(lp139
F3.7212364300613356
aF1.8605876526065688
aF12.890204951857497
asVmomentum
p140
(lp141
F0
aF0
aF0
asa(dp142
Vmagmom
p143
F0
sVindex
p144
I11
sVsymbol
p145
VCu
p146
sVcharge
p147
F0
sVtag
p148
I0
sVposition
p149
(lp150
F1.8606344277131583
aF-2.4078807587e-06
aF1.8262252202053024
asVmomentum
p151
(lp152
F0
aF0
aF0
asa(dp153
Vmagmom
p154
F0
sVindex
p155
I12
sVsymbol
p156
VCu
p157
sVcharge
p158
F0
sVtag
p159
I0
sVposition
p160
(lp161
F3.7212295656895229
aF1.8605744185462165
aF1.8262490951114074
asVmomentum
p162
(lp163
F0
aF0
aF0
asa(dp164
Vmagmom
p165
F0
sVindex
p166
I13
sVsymbol
p167
VCu
p168
sVcharge
p169
F0
sVtag
p170
I0
sVposition
p171
(lp172
F1.7347352508900002e-05
aF-6.9997913621699996e-05
aF18.358609742450142
asVmomentum
p173
(lp174
F0
aF0
aF0
asa(dp175
Vmagmom
p176
F0
sVindex
p177
I14
sVsymbol
p178
VCu
p179
sVcharge
p180
F0
sVtag
p181
I0
sVposition
p182
(lp183
F1.8606351753616559
aF-3.6354174121900002e-05
aF9.2355771611057431
asVmomentum
p184
(lp185
F0
aF0
aF0
asa(dp186
Vmagmom
p187
F0
sVindex
p188
I15
sVsymbol
p189
VCu
p190
sVcharge
p191
F0
sVtag
p192
I0
sVposition
p193
(lp194
F3.7212386672103439
aF1.8605714855321502
aF5.5419066868850253
asVmomentum
p195
(lp196
F0
aF0
aF0
asa(dp197
Vmagmom
p198
F0
sVindex
p199
I16
sVsymbol
p200
VCu
p201
sVcharge
p202
F0
sVtag
p203
I0
sVposition
p204
(lp205
F1.8606260805554837
aF1.8605731993756236
aF3.6942136256995228
asVmomentum
p206
(lp207
F0
aF0
aF0
asa(dp208
Vmagmom
p209
F0
sVindex
p210
I17
sVsymbol
p211
VCu
p212
sVcharge
p213
F0
sVtag
p214
I0
sVposition
p215
(lp216
F7.3504860471999998e-06
aF3.7211219876529054
aF22.088820490643236
asVmomentum
p217
(lp218
F0
aF0
aF0
asa(dp219
Vmagmom
p220
F0
sVindex
p221
I18
sVsymbol
p222
VCu
p223
sVcharge
p224
F0
sVtag
p225
I0
sVposition
p226
(lp227
F1.8606604836723653
aF3.7211585439763404
aF12.89024444334537
asVmomentum
p228
(lp229
F0
aF0
aF0
asa(dp230
Vmagmom
p231
F0
sVindex
p232
I19
sVsymbol
p233
VCu
p234
sVcharge
p235
F0
sVtag
p236
I0
sVposition
p237
(lp238
F-9.7367922280000007e-07
aF1.8605513699356149
aF20.220084714002336
asVmomentum
p239
(lp240
F0
aF0
aF0
asa(dp241
Vmagmom
p242
F0
sVindex
p243
I20
sVsymbol
p244
VCu
p245
sVcharge
p246
F0
sVtag
p247
I0
sVposition
p248
(lp249
F1.8606253357198066
aF1.8605747313209853
aF11.072527287712143
asVmomentum
p250
(lp251
F0
aF0
aF0
asa(dp252
Vmagmom
p253
F0
sVindex
p254
I21
sVsymbol
p255
VPd
p256
sVcharge
p257
F0
sVtag
p258
I0
sVposition
p259
(lp260
F-8.0571921632999998e-06
aF-2.1243856638300002e-05
aF11.068684809500262
asVmomentum
p261
(lp262
F0
aF0
aF0
asa(dp263
Vmagmom
p264
F0
sVindex
p265
I22
sVsymbol
p266
VPd
p267
sVcharge
p268
F0
sVtag
p269
I0
sVposition
p270
(lp271
F2.9713122456099993e-05
aF-2.45668278029e-05
aF3.6824053975526976
asVmomentum
p272
(lp273
F0
aF0
aF0
asa(dp274
Vmagmom
p275
F0
sVindex
p276
I23
sVsymbol
p277
VPd
p278
sVcharge
p279
F0
sVtag
p280
I0
sVposition
p281
(lp282
F1.8606206363066811
aF1.8605328664187495
aF18.370407105370067
asVmomentum
p283
(lp284
F0
aF0
aF0
asa(dp285
Vmagmom
p286
F0
sVindex
p287
I24
sVsymbol
p288
VPd
p289
sVcharge
p290
F0
sVtag
p291
I0
sVposition
p292
(lp293
F1.8606400462482022
aF1.8605075897262977
aF22.090045761342537
asVmomentum
p294
(lp295
F0
aF0
aF0
asa(dp296
Vmagmom
p297
F0
sVindex
p298
I25
sVsymbol
p299
VPd
p300
sVcharge
p301
F0
sVtag
p302
I0
sVposition
p303
(lp304
F1.8605867573320762
aF1.8605337790026788
aF14.703119093267048
asVmomentum
p305
(lp306
F0
aF0
aF0
asa(dp307
Vmagmom
p308
F0
sVindex
p309
I26
sVsymbol
p310
VPd
p311
sVcharge
p312
F0
sVtag
p313
I0
sVposition
p314
(lp315
F3.7212302321896793
aF-0.00010561572549459999
aF25.826469183755499
asVmomentum
p316
(lp317
F0
aF0
aF0
asa(dp318
Vmagmom
p319
F0
sVindex
p320
I27
sVsymbol
p321
VPd
p322
sVcharge
p323
F0
sVtag
p324
I0
sVposition
p325
(lp326
F-5.5801977359999998e-06
aF-2.9314033982100002e-05
aF7.395822686822326
asVmomentum
p327
(lp328
F0
aF0
aF0
asasVcell
p329
(lp330
(lp331
F3.7212541799999999
aF-7.3499999999999999e-06
aF9.4e-07
aa(lp332
F-7.4900000000000003e-06
aF3.7212396700000001
aF-1.4759999999999999e-05
aa(lp333
F3.2600000000000001e-06
aF-0.0001054
aF25.869543879999998
aasVmass
p334
F2079.4060000000009
sVpbc
p335
(lp336
I01
aI01
aI01
asVspacegroup
p337
VP1 (1)
p338
sVconstraints
p339
(lp340
saa(lp341
S'results'
p342
ag2
((ltRp343
aa(lp344
S'user'
p345
aS'ktran'
p346
aa(lp347
S'inserted-hash'
p348
aS'1982538ccabb57452efe930aec04945d80360ee3'
p349
aa(lp350
S'ctime'
p351
acdatetime
datetime
p352
(S'\x07\xe1\x03\x1f\x13).\x08\x05\xac'
tRp353
aa(lp354
S'mtime'
p355
ag352
(S'\x07\xe1\x03\x1f\x13).\x08\x05\xc4'
tRp356
aatRp357
a.