(lp1
ccollections
OrderedDict
p2
((lp3
(lp4
S'atoms'
p5
a(dp6
Vinfo
p7
(dp8
sVvolume
p9
F1537.7878202765153
sVnatoms
p10
I40
sVsymbol_counts
p11
(dp12
VCu
p13
I30
sVPd
p14
I10
ssVchemical_symbols
p15
(lp16
VPd
p17
aVCu
p18
asVatoms
p19
(lp20
(dp21
Vmagmom
p22
F0
sVindex
p23
I0
sVsymbol
p24
VCu
p25
sVcharge
p26
F0
sVtag
p27
I0
sVposition
p28
(lp29
F1.3133487362992744
aF3.7913112322112053
aF16.83581261823949
asVmomentum
p30
(lp31
F0
aF0
aF0
asa(dp32
Vmagmom
p33
F0
sVindex
p34
I1
sVsymbol
p35
VCu
p36
sVcharge
p37
F0
sVtag
p38
I0
sVposition
p39
(lp40
F6.5667436814963747
aF6.8243602179801712
aF18.980502123747709
asVmomentum
p41
(lp42
F0
aF0
aF0
asa(dp43
Vmagmom
p44
F0
sVindex
p45
I2
sVsymbol
p46
VCu
p47
sVcharge
p48
F0
sVtag
p49
I0
sVposition
p50
(lp51
F1.3133487362992735
aF0.75826224644224105
aF14.691123112731276
asVmomentum
p52
(lp53
F0
aF0
aF0
asa(dp54
Vmagmom
p55
F0
sVindex
p56
I3
sVsymbol
p57
VCu
p58
sVcharge
p59
F0
sVtag
p60
I0
sVposition
p61
(lp62
F3.940046208897825
aF2.2747867393267232
aF18.980502123747705
asVmomentum
p63
(lp64
F0
aF0
aF0
asa(dp65
Vmagmom
p66
F0
sVindex
p67
I4
sVsymbol
p68
VCu
p69
sVcharge
p70
F0
sVtag
p71
I0
sVposition
p72
(lp73
F3.9400462088978245
aF5.3078357250956865
aF14.691123112731276
asVmomentum
p74
(lp75
F0
aF0
aF0
asa(dp76
Vmagmom
p77
F0
sVindex
p78
I5
sVsymbol
p79
VCu
p80
sVcharge
p81
F0
sVtag
p82
I0
sVposition
p83
(lp84
F5.2533949451971003
aF1.5165244928844839
aF16.83581261823949
asVmomentum
p85
(lp86
F0
aF0
aF0
asa(dp87
Vmagmom
p88
F0
sVindex
p89
I6
sVsymbol
p90
VCu
p91
sVcharge
p92
F0
sVtag
p93
I0
sVposition
p94
(lp95
F5.2533949451970976
aF4.5495734786534463
aF18.980502123747705
asVmomentum
p96
(lp97
F0
aF0
aF0
asa(dp98
Vmagmom
p99
F0
sVindex
p100
I7
sVsymbol
p101
VCu
p102
sVcharge
p103
F0
sVtag
p104
I0
sVposition
p105
(lp106
F2.6266974725985501
aF6.0660979715379266
aF16.835812618239494
asVmomentum
p107
(lp108
F0
aF0
aF0
asa(dp109
Vmagmom
p110
F0
sVindex
p111
I8
sVsymbol
p112
VCu
p113
sVcharge
p114
F0
sVtag
p115
I0
sVposition
p116
(lp117
F2.6266974725985497
aF0
aF18.980502123747709
asVmomentum
p118
(lp119
F0
aF0
aF0
asa(dp120
Vmagmom
p121
F0
sVindex
p122
I9
sVsymbol
p123
VCu
p124
sVcharge
p125
F0
sVtag
p126
I0
sVposition
p127
(lp128
F2.6266974725985501
aF3.0330489857689651
aF14.691123112731276
asVmomentum
p129
(lp130
F0
aF0
aF0
asa(dp131
Vmagmom
p132
F0
sVindex
p133
I10
sVsymbol
p134
VCu
p135
sVcharge
p136
F0
sVtag
p137
I0
sVposition
p138
(lp139
F3.9400462088978241
aF3.7913112322112053
aF16.83581261823949
asVmomentum
p140
(lp141
F0
aF0
aF0
asa(dp142
Vmagmom
p143
F0
sVindex
p144
I11
sVsymbol
p145
VCu
p146
sVcharge
p147
F0
sVtag
p148
I0
sVposition
p149
(lp150
F3.9400462088978259
aF6.8243602179801712
aF18.980502123747709
asVmomentum
p151
(lp152
F0
aF0
aF0
asa(dp153
Vmagmom
p154
F0
sVindex
p155
I12
sVsymbol
p156
VCu
p157
sVcharge
p158
F0
sVtag
p159
I0
sVposition
p160
(lp161
F3.9400462088978241
aF0.75826224644224105
aF14.691123112731278
asVmomentum
p162
(lp163
F0
aF0
aF0
asa(dp164
Vmagmom
p165
F0
sVindex
p166
I13
sVsymbol
p167
VCu
p168
sVcharge
p169
F0
sVtag
p170
I0
sVposition
p171
(lp172
F1.3133487362992753
aF2.2747867393267232
aF18.980502123747712
asVmomentum
p173
(lp174
F0
aF0
aF0
asa(dp175
Vmagmom
p176
F0
sVindex
p177
I14
sVsymbol
p178
VCu
p179
sVcharge
p180
F0
sVtag
p181
I0
sVposition
p182
(lp183
F6.5667436814963729
aF5.3078357250956847
aF14.69112311273128
asVmomentum
p184
(lp185
F0
aF0
aF0
asa(dp186
Vmagmom
p187
F0
sVindex
p188
I15
sVsymbol
p189
VPd
p190
sVcharge
p191
F0
sVtag
p192
I0
sVposition
p193
(lp194
F5.2533949451970985
aF3.033048985768966
aF14.691123112731276
asVmomentum
p195
(lp196
F0
aF0
aF0
asa(dp197
Vmagmom
p198
F0
sVindex
p199
I16
sVsymbol
p200
VPd
p201
sVcharge
p202
F0
sVtag
p203
I0
sVposition
p204
(lp205
F5.2533949451970994
aF6.0660979715379275
aF16.835812618239494
asVmomentum
p206
(lp207
F0
aF0
aF0
asa(dp208
Vmagmom
p209
F0
sVindex
p210
I17
sVsymbol
p211
VPd
p212
sVcharge
p213
F0
sVtag
p214
I0
sVposition
p215
(lp216
F0
aF1.7763568394002505e-15
aF18.980502123747709
asVmomentum
p217
(lp218
F0
aF0
aF0
asa(dp219
Vmagmom
p220
F0
sVindex
p221
I18
sVsymbol
p222
VPd
p223
sVcharge
p224
F0
sVtag
p225
I0
sVposition
p226
(lp227
F2.6266974725985497
aF1.5165244928844821
aF16.835812618239494
asVmomentum
p228
(lp229
F0
aF0
aF0
asa(dp230
Vmagmom
p231
F0
sVindex
p232
I19
sVsymbol
p233
VPd
p234
sVcharge
p235
F0
sVtag
p236
I0
sVposition
p237
(lp238
F2.6266974725985488
aF4.5495734786534463
aF18.980502123747709
asVmomentum
p239
(lp240
F0
aF0
aF0
asa(dp241
Vmagmom
p242
F0
sVindex
p243
I20
sVsymbol
p244
VCu
p245
sVcharge
p246
F0
sVtag
p247
I0
sVposition
p248
(lp249
F1.3133487362992744
aF3.7913112322112035
aF23.269881134764134
asVmomentum
p250
(lp251
F0
aF0
aF0
asa(dp252
Vmagmom
p253
F0
sVindex
p254
I21
sVsymbol
p255
VCu
p256
sVcharge
p257
F0
sVtag
p258
I0
sVposition
p259
(lp260
F6.5667436814963702
aF6.8243602179801712
aF25.414570640272352
asVmomentum
p261
(lp262
F0
aF0
aF0
asa(dp263
Vmagmom
p264
F0
sVindex
p265
I22
sVsymbol
p266
VCu
p267
sVcharge
p268
F0
sVtag
p269
I0
sVposition
p270
(lp271
F1.3133487362992744
aF0.75826224644224105
aF21.125191629255923
asVmomentum
p272
(lp273
F0
aF0
aF0
asa(dp274
Vmagmom
p275
F0
sVindex
p276
I23
sVsymbol
p277
VCu
p278
sVcharge
p279
F0
sVtag
p280
I0
sVposition
p281
(lp282
F3.940046208897825
aF2.2747867393267249
aF25.414570640272352
asVmomentum
p283
(lp284
F0
aF0
aF0
asa(dp285
Vmagmom
p286
F0
sVindex
p287
I24
sVsymbol
p288
VCu
p289
sVcharge
p290
F0
sVtag
p291
I0
sVposition
p292
(lp293
F3.940046208897825
aF5.3078357250956874
aF21.125191629255923
asVmomentum
p294
(lp295
F0
aF0
aF0
asa(dp296
Vmagmom
p297
F0
sVindex
p298
I25
sVsymbol
p299
VCu
p300
sVcharge
p301
F0
sVtag
p302
I0
sVposition
p303
(lp304
F5.2533949451970985
aF1.5165244928844839
aF23.26988113476413
asVmomentum
p305
(lp306
F0
aF0
aF0
asa(dp307
Vmagmom
p308
F0
sVindex
p309
I26
sVsymbol
p310
VCu
p311
sVcharge
p312
F0
sVtag
p313
I0
sVposition
p314
(lp315
F5.2533949451970985
aF4.5495734786534481
aF25.414570640272352
asVmomentum
p316
(lp317
F0
aF0
aF0
asa(dp318
Vmagmom
p319
F0
sVindex
p320
I27
sVsymbol
p321
VCu
p322
sVcharge
p323
F0
sVtag
p324
I0
sVposition
p325
(lp326
F2.6266974725985488
aF6.0660979715379284
aF23.269881134764141
asVmomentum
p327
(lp328
F0
aF0
aF0
asa(dp329
Vmagmom
p330
F0
sVindex
p331
I28
sVsymbol
p332
VCu
p333
sVcharge
p334
F0
sVtag
p335
I0
sVposition
p336
(lp337
F2.6266974725985506
aF0
aF25.414570640272352
asVmomentum
p338
(lp339
F0
aF0
aF0
asa(dp340
Vmagmom
p341
F0
sVindex
p342
I29
sVsymbol
p343
VCu
p344
sVcharge
p345
F0
sVtag
p346
I0
sVposition
p347
(lp348
F2.6266974725985488
aF3.0330489857689642
aF21.125191629255923
asVmomentum
p349
(lp350
F0
aF0
aF0
asa(dp351
Vmagmom
p352
F0
sVindex
p353
I30
sVsymbol
p354
VCu
p355
sVcharge
p356
F0
sVtag
p357
I0
sVposition
p358
(lp359
F3.9400462088978223
aF3.7913112322112035
aF23.269881134764134
asVmomentum
p360
(lp361
F0
aF0
aF0
asa(dp362
Vmagmom
p363
F0
sVindex
p364
I31
sVsymbol
p365
VCu
p366
sVcharge
p367
F0
sVtag
p368
I0
sVposition
p369
(lp370
F3.940046208897825
aF6.8243602179801712
aF25.414570640272359
asVmomentum
p371
(lp372
F0
aF0
aF0
asa(dp373
Vmagmom
p374
F0
sVindex
p375
I32
sVsymbol
p376
VCu
p377
sVcharge
p378
F0
sVtag
p379
I0
sVposition
p380
(lp381
F3.9400462088978241
aF0.75826224644224105
aF21.125191629255923
asVmomentum
p382
(lp383
F0
aF0
aF0
asa(dp384
Vmagmom
p385
F0
sVindex
p386
I33
sVsymbol
p387
VCu
p388
sVcharge
p389
F0
sVtag
p390
I0
sVposition
p391
(lp392
F1.3133487362992771
aF2.2747867393267232
aF25.414570640272355
asVmomentum
p393
(lp394
F0
aF0
aF0
asa(dp395
Vmagmom
p396
F0
sVindex
p397
I34
sVsymbol
p398
VCu
p399
sVcharge
p400
F0
sVtag
p401
I0
sVposition
p402
(lp403
F6.5667436814963729
aF5.3078357250956856
aF21.125191629255919
asVmomentum
p404
(lp405
F0
aF0
aF0
asa(dp406
Vmagmom
p407
F0
sVindex
p408
I35
sVsymbol
p409
VPd
p410
sVcharge
p411
F0
sVtag
p412
I0
sVposition
p413
(lp414
F5.2533949451970985
aF3.0330489857689642
aF21.125191629255919
asVmomentum
p415
(lp416
F0
aF0
aF0
asa(dp417
Vmagmom
p418
F0
sVindex
p419
I36
sVsymbol
p420
VPd
p421
sVcharge
p422
F0
sVtag
p423
I0
sVposition
p424
(lp425
F5.2533949451970976
aF6.0660979715379302
aF23.269881134764141
asVmomentum
p426
(lp427
F0
aF0
aF0
asa(dp428
Vmagmom
p429
F0
sVindex
p430
I37
sVsymbol
p431
VPd
p432
sVcharge
p433
F0
sVtag
p434
I0
sVposition
p435
(lp436
F0
aF0
aF25.414570640272352
asVmomentum
p437
(lp438
F0
aF0
aF0
asa(dp439
Vmagmom
p440
F0
sVindex
p441
I38
sVsymbol
p442
VPd
p443
sVcharge
p444
F0
sVtag
p445
I0
sVposition
p446
(lp447
F2.6266974725985506
aF1.5165244928844821
aF23.269881134764137
asVmomentum
p448
(lp449
F0
aF0
aF0
asa(dp450
Vmagmom
p451
F0
sVindex
p452
I39
sVsymbol
p453
VPd
p454
sVcharge
p455
F0
sVtag
p456
I0
sVposition
p457
(lp458
F2.6266974725985488
aF4.5495734786534481
aF25.414570640272352
asVmomentum
p459
(lp460
F0
aF0
aF0
asasVcell
p461
(lp462
(lp463
F5.2533949451970985
aF0
aF0
aa(lp464
F2.6266974725985492
aF7.5826224644224096
aF2.1446895055082158
aa(lp465
F0
aF0
aF38.604411099147875
aasVmass
p466
F2970.5800000000004
sVpbc
p467
(lp468
I01
aI01
aI01
asVspacegroup
p469
VCm (8)
p470
sVconstraints
p471
(lp472
(dp473
Vname
p474
VFixAtoms
p475
sVkwargs
p476
(dp477
Vindices
p478
(lp479
I0
aI1
aI2
aI3
aI4
aI5
aI6
aI7
aI8
aI9
aI10
aI11
aI12
aI13
aI14
aI15
aI16
aI17
aI18
aI19
aI20
aI22
aI24
aI27
aI29
aI30
aI32
aI34
aI35
aI36
assasaa(lp480
S'results'
p481
ag2
((ltRp482
aa(lp483
S'user'
p484
aS'ktran'
p485
aa(lp486
S'inserted-hash'
p487
aS'90c1db473818c4ff6b8382fa40578d61e915c270'
p488
aa(lp489
S'ctime'
p490
acdatetime
datetime
p491
(S'\x07\xe1\x03\x1f\x13,\x05\x03:\xc6'
tRp492
aa(lp493
S'mtime'
p494
ag491
(S'\x07\xe1\x03\x1f\x13,\x05\x03:\xf5'
tRp495
aa(lp496
S'tags'
p497
a(dp498
S'get_slab_settings'
p499
g2
((lp500
(lp501
S'max_broken_bonds'
p502
aI0
aa(lp503
S'bonds'
p504
aNaa(lp505
S'tol'
p506
aF0.29999999999999999
aa(lp507
S'symmetrize'
p508
aI00
aatRp509
sS'relaxed'
p510
I00
sS'mpid'
p511
Vmp-580357
p512
sS'shift'
p513
I0
sS'slab_generate_settings'
p514
g2
((lp515
(lp516
S'primitive'
p517
aI01
aa(lp518
S'min_vacuum_size'
p519
aF20
aa(lp520
S'lll_reduce'
p521
aI00
aa(lp522
S'max_normal_search'
p523
aI1
aa(lp524
S'min_slab_size'
p525
aF7
aa(lp526
S'center_slab'
p527
aI01
aatRp528
sS'miller'
p529
(I2
I2
I1
tp530
sS'top'
p531
I01
sS'type'
p532
S'slab'
p533
sS'num_slab_atoms'
p534
I40
saatRp535
ag2
((lp536
(lp537
g5
a(dp538
Vinfo
p539
(dp540
sVvolume
p541
F1537.7878202765153
sVnatoms
p542
I40
sVsymbol_counts
p543
(dp544
VCu
p545
I30
sVPd
p546
I10
ssVchemical_symbols
p547
(lp548
VPd
p549
aVCu
p550
asVatoms
p551
(lp552
(dp553
Vmagmom
p554
F0
sVindex
p555
I0
sVsymbol
p556
VCu
p557
sVcharge
p558
F0
sVtag
p559
I0
sVposition
p560
(lp561
F1.3133487362992744
aF-3.7913112322112075
aF-16.83581261823949
asVmomentum
p562
(lp563
F0
aF0
aF0
asa(dp564
Vmagmom
p565
F0
sVindex
p566
I1
sVsymbol
p567
VCu
p568
sVcharge
p569
F0
sVtag
p570
I0
sVposition
p571
(lp572
F6.5667436814963747
aF-6.8243602179801739
aF-18.980502123747709
asVmomentum
p573
(lp574
F0
aF0
aF0
asa(dp575
Vmagmom
p576
F0
sVindex
p577
I2
sVsymbol
p578
VCu
p579
sVcharge
p580
F0
sVtag
p581
I0
sVposition
p582
(lp583
F1.3133487362992735
aF-0.75826224644224283
aF-14.691123112731276
asVmomentum
p584
(lp585
F0
aF0
aF0
asa(dp586
Vmagmom
p587
F0
sVindex
p588
I3
sVsymbol
p589
VCu
p590
sVcharge
p591
F0
sVtag
p592
I0
sVposition
p593
(lp594
F3.940046208897825
aF-2.2747867393267254
aF-18.980502123747705
asVmomentum
p595
(lp596
F0
aF0
aF0
asa(dp597
Vmagmom
p598
F0
sVindex
p599
I4
sVsymbol
p600
VCu
p601
sVcharge
p602
F0
sVtag
p603
I0
sVposition
p604
(lp605
F3.9400462088978245
aF-5.3078357250956882
aF-14.691123112731276
asVmomentum
p606
(lp607
F0
aF0
aF0
asa(dp608
Vmagmom
p609
F0
sVindex
p610
I5
sVsymbol
p611
VCu
p612
sVcharge
p613
F0
sVtag
p614
I0
sVposition
p615
(lp616
F5.2533949451971003
aF-1.5165244928844859
aF-16.83581261823949
asVmomentum
p617
(lp618
F0
aF0
aF0
asa(dp619
Vmagmom
p620
F0
sVindex
p621
I6
sVsymbol
p622
VCu
p623
sVcharge
p624
F0
sVtag
p625
I0
sVposition
p626
(lp627
F5.2533949451970976
aF-4.549573478653449
aF-18.980502123747705
asVmomentum
p628
(lp629
F0
aF0
aF0
asa(dp630
Vmagmom
p631
F0
sVindex
p632
I7
sVsymbol
p633
VCu
p634
sVcharge
p635
F0
sVtag
p636
I0
sVposition
p637
(lp638
F2.6266974725985501
aF-6.0660979715379284
aF-16.835812618239494
asVmomentum
p639
(lp640
F0
aF0
aF0
asa(dp641
Vmagmom
p642
F0
sVindex
p643
I8
sVsymbol
p644
VCu
p645
sVcharge
p646
F0
sVtag
p647
I0
sVposition
p648
(lp649
F2.6266974725985497
aF-2.3244411172057172e-15
aF-18.980502123747709
asVmomentum
p650
(lp651
F0
aF0
aF0
asa(dp652
Vmagmom
p653
F0
sVindex
p654
I9
sVsymbol
p655
VCu
p656
sVcharge
p657
F0
sVtag
p658
I0
sVposition
p659
(lp660
F2.6266974725985501
aF-3.0330489857689669
aF-14.691123112731276
asVmomentum
p661
(lp662
F0
aF0
aF0
asa(dp663
Vmagmom
p664
F0
sVindex
p665
I10
sVsymbol
p666
VCu
p667
sVcharge
p668
F0
sVtag
p669
I0
sVposition
p670
(lp671
F3.9400462088978241
aF-3.7913112322112075
aF-16.83581261823949
asVmomentum
p672
(lp673
F0
aF0
aF0
asa(dp674
Vmagmom
p675
F0
sVindex
p676
I11
sVsymbol
p677
VCu
p678
sVcharge
p679
F0
sVtag
p680
I0
sVposition
p681
(lp682
F3.9400462088978259
aF-6.8243602179801739
aF-18.980502123747709
asVmomentum
p683
(lp684
F0
aF0
aF0
asa(dp685
Vmagmom
p686
F0
sVindex
p687
I12
sVsymbol
p688
VCu
p689
sVcharge
p690
F0
sVtag
p691
I0
sVposition
p692
(lp693
F3.9400462088978241
aF-0.75826224644224283
aF-14.691123112731278
asVmomentum
p694
(lp695
F0
aF0
aF0
asa(dp696
Vmagmom
p697
F0
sVindex
p698
I13
sVsymbol
p699
VCu
p700
sVcharge
p701
F0
sVtag
p702
I0
sVposition
p703
(lp704
F1.3133487362992753
aF-2.2747867393267254
aF-18.980502123747712
asVmomentum
p705
(lp706
F0
aF0
aF0
asa(dp707
Vmagmom
p708
F0
sVindex
p709
I14
sVsymbol
p710
VCu
p711
sVcharge
p712
F0
sVtag
p713
I0
sVposition
p714
(lp715
F6.5667436814963729
aF-5.3078357250956865
aF-14.69112311273128
asVmomentum
p716
(lp717
F0
aF0
aF0
asa(dp718
Vmagmom
p719
F0
sVindex
p720
I15
sVsymbol
p721
VPd
p722
sVcharge
p723
F0
sVtag
p724
I0
sVposition
p725
(lp726
F5.2533949451970985
aF-3.0330489857689678
aF-14.691123112731276
asVmomentum
p727
(lp728
F0
aF0
aF0
asa(dp729
Vmagmom
p730
F0
sVindex
p731
I16
sVsymbol
p732
VPd
p733
sVcharge
p734
F0
sVtag
p735
I0
sVposition
p736
(lp737
F5.2533949451970994
aF-6.0660979715379293
aF-16.835812618239494
asVmomentum
p738
(lp739
F0
aF0
aF0
asa(dp740
Vmagmom
p741
F0
sVindex
p742
I17
sVsymbol
p743
VPd
p744
sVcharge
p745
F0
sVtag
p746
I0
sVposition
p747
(lp748
F0
aF-4.100797956605968e-15
aF-18.980502123747709
asVmomentum
p749
(lp750
F0
aF0
aF0
asa(dp751
Vmagmom
p752
F0
sVindex
p753
I18
sVsymbol
p754
VPd
p755
sVcharge
p756
F0
sVtag
p757
I0
sVposition
p758
(lp759
F2.6266974725985497
aF-1.5165244928844841
aF-16.835812618239494
asVmomentum
p760
(lp761
F0
aF0
aF0
asa(dp762
Vmagmom
p763
F0
sVindex
p764
I19
sVsymbol
p765
VPd
p766
sVcharge
p767
F0
sVtag
p768
I0
sVposition
p769
(lp770
F2.6266974725985488
aF-4.549573478653449
aF-18.980502123747709
asVmomentum
p771
(lp772
F0
aF0
aF0
asa(dp773
Vmagmom
p774
F0
sVindex
p775
I20
sVsymbol
p776
VCu
p777
sVcharge
p778
F0
sVtag
p779
I0
sVposition
p780
(lp781
F1.3133487362992744
aF-3.7913112322112061
aF-23.269881134764134
asVmomentum
p782
(lp783
F0
aF0
aF0
asa(dp784
Vmagmom
p785
F0
sVindex
p786
I21
sVsymbol
p787
VCu
p788
sVcharge
p789
F0
sVtag
p790
I0
sVposition
p791
(lp792
F6.5667436814963702
aF-6.8243602179801748
aF-25.414570640272352
asVmomentum
p793
(lp794
F0
aF0
aF0
asa(dp795
Vmagmom
p796
F0
sVindex
p797
I22
sVsymbol
p798
VCu
p799
sVcharge
p800
F0
sVtag
p801
I0
sVposition
p802
(lp803
F1.3133487362992744
aF-0.7582622464422436
aF-21.125191629255923
asVmomentum
p804
(lp805
F0
aF0
aF0
asa(dp806
Vmagmom
p807
F0
sVindex
p808
I23
sVsymbol
p809
VCu
p810
sVcharge
p811
F0
sVtag
p812
I0
sVposition
p813
(lp814
F3.940046208897825
aF-2.274786739326728
aF-25.414570640272352
asVmomentum
p815
(lp816
F0
aF0
aF0
asa(dp817
Vmagmom
p818
F0
sVindex
p819
I24
sVsymbol
p820
VCu
p821
sVcharge
p822
F0
sVtag
p823
I0
sVposition
p824
(lp825
F3.940046208897825
aF-5.30783572509569
aF-21.125191629255923
asVmomentum
p826
(lp827
F0
aF0
aF0
asa(dp828
Vmagmom
p829
F0
sVindex
p830
I25
sVsymbol
p831
VCu
p832
sVcharge
p833
F0
sVtag
p834
I0
sVposition
p835
(lp836
F5.2533949451970985
aF-1.5165244928844868
aF-23.26988113476413
asVmomentum
p837
(lp838
F0
aF0
aF0
asa(dp839
Vmagmom
p840
F0
sVindex
p841
I26
sVsymbol
p842
VCu
p843
sVcharge
p844
F0
sVtag
p845
I0
sVposition
p846
(lp847
F5.2533949451970985
aF-4.5495734786534516
aF-25.414570640272352
asVmomentum
p848
(lp849
F0
aF0
aF0
asa(dp850
Vmagmom
p851
F0
sVindex
p852
I27
sVsymbol
p853
VCu
p854
sVcharge
p855
F0
sVtag
p856
I0
sVposition
p857
(lp858
F2.6266974725985488
aF-6.0660979715379311
aF-23.269881134764141
asVmomentum
p859
(lp860
F0
aF0
aF0
asa(dp861
Vmagmom
p862
F0
sVindex
p863
I28
sVsymbol
p864
VCu
p865
sVcharge
p866
F0
sVtag
p867
I0
sVposition
p868
(lp869
F2.6266974725985506
aF-3.1123872586313833e-15
aF-25.414570640272352
asVmomentum
p870
(lp871
F0
aF0
aF0
asa(dp872
Vmagmom
p873
F0
sVindex
p874
I29
sVsymbol
p875
VCu
p876
sVcharge
p877
F0
sVtag
p878
I0
sVposition
p879
(lp880
F2.6266974725985488
aF-3.0330489857689669
aF-21.125191629255923
asVmomentum
p881
(lp882
F0
aF0
aF0
asa(dp883
Vmagmom
p884
F0
sVindex
p885
I30
sVsymbol
p886
VCu
p887
sVcharge
p888
F0
sVtag
p889
I0
sVposition
p890
(lp891
F3.9400462088978223
aF-3.7913112322112061
aF-23.269881134764134
asVmomentum
p892
(lp893
F0
aF0
aF0
asa(dp894
Vmagmom
p895
F0
sVindex
p896
I31
sVsymbol
p897
VCu
p898
sVcharge
p899
F0
sVtag
p900
I0
sVposition
p901
(lp902
F3.940046208897825
aF-6.8243602179801748
aF-25.414570640272359
asVmomentum
p903
(lp904
F0
aF0
aF0
asa(dp905
Vmagmom
p906
F0
sVindex
p907
I32
sVsymbol
p908
VCu
p909
sVcharge
p910
F0
sVtag
p911
I0
sVposition
p912
(lp913
F3.9400462088978241
aF-0.7582622464422436
aF-21.125191629255923
asVmomentum
p914
(lp915
F0
aF0
aF0
asa(dp916
Vmagmom
p917
F0
sVindex
p918
I33
sVsymbol
p919
VCu
p920
sVcharge
p921
F0
sVtag
p922
I0
sVposition
p923
(lp924
F1.3133487362992771
aF-2.2747867393267263
aF-25.414570640272355
asVmomentum
p925
(lp926
F0
aF0
aF0
asa(dp927
Vmagmom
p928
F0
sVindex
p929
I34
sVsymbol
p930
VCu
p931
sVcharge
p932
F0
sVtag
p933
I0
sVposition
p934
(lp935
F6.5667436814963729
aF-5.3078357250956882
aF-21.125191629255919
asVmomentum
p936
(lp937
F0
aF0
aF0
asa(dp938
Vmagmom
p939
F0
sVindex
p940
I35
sVsymbol
p941
VPd
p942
sVcharge
p943
F0
sVtag
p944
I0
sVposition
p945
(lp946
F5.2533949451970985
aF-3.0330489857689669
aF-21.125191629255919
asVmomentum
p947
(lp948
F0
aF0
aF0
asa(dp949
Vmagmom
p950
F0
sVindex
p951
I36
sVsymbol
p952
VPd
p953
sVcharge
p954
F0
sVtag
p955
I0
sVposition
p956
(lp957
F5.2533949451970976
aF-6.0660979715379328
aF-23.269881134764141
asVmomentum
p958
(lp959
F0
aF0
aF0
asa(dp960
Vmagmom
p961
F0
sVindex
p962
I37
sVsymbol
p963
VPd
p964
sVcharge
p965
F0
sVtag
p966
I0
sVposition
p967
(lp968
F0
aF-3.1123872586313833e-15
aF-25.414570640272352
asVmomentum
p969
(lp970
F0
aF0
aF0
asa(dp971
Vmagmom
p972
F0
sVindex
p973
I38
sVsymbol
p974
VPd
p975
sVcharge
p976
F0
sVtag
p977
I0
sVposition
p978
(lp979
F2.6266974725985506
aF-1.516524492884485
aF-23.269881134764137
asVmomentum
p980
(lp981
F0
aF0
aF0
asa(dp982
Vmagmom
p983
F0
sVindex
p984
I39
sVsymbol
p985
VPd
p986
sVcharge
p987
F0
sVtag
p988
I0
sVposition
p989
(lp990
F2.6266974725985488
aF-4.5495734786534516
aF-25.414570640272352
asVmomentum
p991
(lp992
F0
aF0
aF0
asasVcell
p993
(lp994
(lp995
F5.2533949451970985
aF0
aF0
aa(lp996
F2.6266974725985492
aF-7.5826224644224096
aF-2.1446895055082149
aa(lp997
F0
aF-4.7276768485539999e-15
aF-38.604411099147875
aasVmass
p998
F2970.5800000000004
sVpbc
p999
(lp1000
I01
aI01
aI01
asVspacegroup
p1001
VCm (8)
p1002
sVconstraints
p1003
(lp1004
(dp1005
Vname
p1006
VFixAtoms
p1007
sVkwargs
p1008
(dp1009
Vindices
p1010
(lp1011
I1
aI3
aI5
aI6
aI8
aI11
aI13
aI17
aI18
aI19
aI20
aI21
aI22
aI23
aI24
aI25
aI26
aI27
aI28
aI29
aI30
aI31
aI32
aI33
aI34
aI35
aI36
aI37
aI38
aI39
assasaa(lp1012
g481
ag2
((ltRp1013
aa(lp1014
g484
ag485
aa(lp1015
g487
aS'a114e04f5c138bffeaeb0261500d41b1b99b17d3'
p1016
aa(lp1017
g490
ag491
(S'\x07\xe1\x03\x1f\x13,\x05\x03\x87\x94'
tRp1018
aa(lp1019
g494
ag491
(S'\x07\xe1\x03\x1f\x13,\x05\x03\x87\x9e'
tRp1020
aa(lp1021
g497
a(dp1022
g499
g509
sg510
I00
sg511
g512
sg513
I0
sg514
g528
sg529
g530
sg531
I00
sg532
g533
sg534
I40
saatRp1023
a.