(lp1
ccollections
OrderedDict
p2
((lp3
(lp4
S'atoms'
p5
a(dp6
Vinfo
p7
(dp8
sVvolume
p9
F3029.3745729518605
sVnatoms
p10
I60
sVsymbol_counts
p11
(dp12
VCu
p13
I48
sVPd
p14
I12
ssVchemical_symbols
p15
(lp16
VPd
p17
aVCu
p18
asVatoms
p19
(lp20
(dp21
Vmagmom
p22
F0
sVindex
p23
I0
sVsymbol
p24
VCu
p25
sVcharge
p26
F0
sVtag
p27
I0
sVposition
p28
(lp29
F0
aF8.3544983971071822
aF16.012788594455429
asVmomentum
p30
(lp31
F0
aF0
aF0
asa(dp32
Vmagmom
p33
F0
sVindex
p34
I1
sVsymbol
p35
VCu
p36
sVcharge
p37
F0
sVtag
p38
I0
sVposition
p39
(lp40
F0
aF4.1772491985535876
aF20.190037793009019
asVmomentum
p41
(lp42
F0
aF0
aF0
asa(dp43
Vmagmom
p44
F0
sVindex
p45
I2
sVsymbol
p46
VCu
p47
sVcharge
p48
F0
sVtag
p49
I0
sVposition
p50
(lp51
F0
aF0
aF16.012788594455429
asVmomentum
p52
(lp53
F0
aF0
aF0
asa(dp54
Vmagmom
p55
F0
sVindex
p56
I3
sVsymbol
p57
VCu
p58
sVcharge
p59
F0
sVtag
p60
I0
sVposition
p61
(lp62
F3.6168539300000004
aF8.3544983971071822
aF16.012788594455429
asVmomentum
p63
(lp64
F0
aF0
aF0
asa(dp65
Vmagmom
p66
F0
sVindex
p67
I4
sVsymbol
p68
VCu
p69
sVcharge
p70
F0
sVtag
p71
I0
sVposition
p72
(lp73
F3.61685393
aF4.1772491985535876
aF20.190037793009019
asVmomentum
p74
(lp75
F0
aF0
aF0
asa(dp76
Vmagmom
p77
F0
sVindex
p78
I5
sVsymbol
p79
VCu
p80
sVcharge
p81
F0
sVtag
p82
I0
sVposition
p83
(lp84
F3.61685393
aF0
aF16.012788594455429
asVmomentum
p85
(lp86
F0
aF0
aF0
asa(dp87
Vmagmom
p88
F0
sVindex
p89
I6
sVsymbol
p90
VCu
p91
sVcharge
p92
F0
sVtag
p93
I0
sVposition
p94
(lp95
F5.4252808950000002
aF8.3544983971071787
aF20.190037793009019
asVmomentum
p96
(lp97
F0
aF0
aF0
asa(dp98
Vmagmom
p99
F0
sVindex
p100
I7
sVsymbol
p101
VCu
p102
sVcharge
p103
F0
sVtag
p104
I0
sVposition
p105
(lp106
F5.4252808949999993
aF4.1772491985535911
aF16.012788594455429
asVmomentum
p107
(lp108
F0
aF0
aF0
asa(dp109
Vmagmom
p110
F0
sVindex
p111
I8
sVsymbol
p112
VCu
p113
sVcharge
p114
F0
sVtag
p115
I0
sVposition
p116
(lp117
F5.4252808950000002
aF0
aF20.190037793009019
asVmomentum
p118
(lp119
F0
aF0
aF0
asa(dp120
Vmagmom
p121
F0
sVindex
p122
I9
sVsymbol
p123
VCu
p124
sVcharge
p125
F0
sVtag
p126
I0
sVposition
p127
(lp128
F1.808426965
aF8.3544983971071787
aF20.190037793009019
asVmomentum
p129
(lp130
F0
aF0
aF0
asa(dp131
Vmagmom
p132
F0
sVindex
p133
I10
sVsymbol
p134
VCu
p135
sVcharge
p136
F0
sVtag
p137
I0
sVposition
p138
(lp139
F1.8084269650000002
aF4.1772491985535911
aF16.012788594455429
asVmomentum
p140
(lp141
F0
aF0
aF0
asa(dp142
Vmagmom
p143
F0
sVindex
p144
I11
sVsymbol
p145
VCu
p146
sVcharge
p147
F0
sVtag
p148
I0
sVposition
p149
(lp150
F1.808426965
aF0
aF20.190037793009019
asVmomentum
p151
(lp152
F0
aF0
aF0
asa(dp153
Vmagmom
p154
F0
sVindex
p155
I12
sVsymbol
p156
VCu
p157
sVcharge
p158
F0
sVtag
p159
I0
sVposition
p160
(lp161
F0
aF10.812058146870131
aF16.86415450551749
asVmomentum
p162
(lp163
F0
aF0
aF0
asa(dp164
Vmagmom
p165
F0
sVindex
p166
I13
sVsymbol
p167
VCu
p168
sVcharge
p169
F0
sVtag
p170
I0
sVposition
p171
(lp172
F0
aF6.6348089483165404
aF21.041403704071083
asVmomentum
p173
(lp174
F0
aF0
aF0
asa(dp175
Vmagmom
p176
F0
sVindex
p177
I14
sVsymbol
p178
VCu
p179
sVcharge
p180
F0
sVtag
p181
I0
sVposition
p182
(lp183
F-1.9721522630525295e-31
aF2.4575597497629493
aF16.864154505517494
asVmomentum
p184
(lp185
F0
aF0
aF0
asa(dp186
Vmagmom
p187
F0
sVindex
p188
I15
sVsymbol
p189
VCu
p190
sVcharge
p191
F0
sVtag
p192
I0
sVposition
p193
(lp194
F3.6168539300000013
aF9.2058643081692413
aF21.909727241799658
asVmomentum
p195
(lp196
F0
aF0
aF0
asa(dp197
Vmagmom
p198
F0
sVindex
p199
I16
sVsymbol
p200
VCu
p201
sVcharge
p202
F0
sVtag
p203
I0
sVposition
p204
(lp205
F3.61685393
aF5.0286151096156537
aF17.732478043246068
asVmomentum
p206
(lp207
F0
aF0
aF0
asa(dp208
Vmagmom
p209
F0
sVindex
p210
I17
sVsymbol
p211
VCu
p212
sVcharge
p213
F0
sVtag
p214
I0
sVposition
p215
(lp216
F3.61685393
aF0.85136591106206261
aF13.555228844692479
asVmomentum
p217
(lp218
F0
aF0
aF0
asa(dp219
Vmagmom
p220
F0
sVindex
p221
I18
sVsymbol
p222
VCu
p223
sVcharge
p224
F0
sVtag
p225
I0
sVposition
p226
(lp227
F3.6168539300000004
aF7.5031324860451196
aF18.47034834421838
asVmomentum
p228
(lp229
F0
aF0
aF0
asa(dp230
Vmagmom
p231
F0
sVindex
p232
I19
sVsymbol
p233
VCu
p234
sVcharge
p235
F0
sVtag
p236
I0
sVposition
p237
(lp238
F3.61685393
aF3.3258832874915276
aF14.29309914566479
asVmomentum
p239
(lp240
F0
aF0
aF0
asa(dp241
Vmagmom
p242
F0
sVindex
p243
I20
sVsymbol
p244
VCu
p245
sVcharge
p246
F0
sVtag
p247
I0
sVposition
p248
(lp249
F3.6168539300000004
aF11.680381684598707
aF22.647597542771969
asVmomentum
p250
(lp251
F0
aF0
aF0
asa(dp252
Vmagmom
p253
F0
sVindex
p254
I21
sVsymbol
p255
VCu
p256
sVcharge
p257
F0
sVtag
p258
I0
sVposition
p259
(lp260
F1.9721522630525295e-31
aF5.8969386473442285
aF15.161422683393365
asVmomentum
p261
(lp262
F0
aF0
aF0
asa(dp263
Vmagmom
p264
F0
sVindex
p265
I22
sVsymbol
p266
VCu
p267
sVcharge
p268
F0
sVtag
p269
I0
sVposition
p270
(lp271
F1.9721522630525295e-31
aF1.7196894487906391
aF19.338671881946958
asVmomentum
p272
(lp273
F0
aF0
aF0
asa(dp274
Vmagmom
p275
F0
sVindex
p276
I23
sVsymbol
p277
VCu
p278
sVcharge
p279
F0
sVtag
p280
I0
sVposition
p281
(lp282
F1.9721522630525295e-31
aF10.074187845897818
aF19.338671881946954
asVmomentum
p283
(lp284
F0
aF0
aF0
asa(dp285
Vmagmom
p286
F0
sVindex
p287
I24
sVsymbol
p288
VCu
p289
sVcharge
p290
F0
sVtag
p291
I0
sVposition
p292
(lp293
F5.4307250558725144
aF7.5172830012502025
aF22.7217265057796
asVmomentum
p294
(lp295
F0
aF0
aF0
asa(dp296
Vmagmom
p297
F0
sVindex
p298
I25
sVsymbol
p299
VCu
p300
sVcharge
p301
F0
sVtag
p302
I0
sVposition
p303
(lp304
F5.4307250558725144
aF3.3400338026966105
aF18.544477307226011
asVmomentum
p305
(lp306
F0
aF0
aF0
asa(dp307
Vmagmom
p308
F0
sVindex
p309
I26
sVsymbol
p310
VCu
p311
sVcharge
p312
F0
sVtag
p313
I0
sVposition
p314
(lp315
F5.4307250558725135
aF11.69453219980379
aF18.544477307226007
asVmomentum
p316
(lp317
F0
aF0
aF0
asa(dp318
Vmagmom
p319
F0
sVindex
p320
I27
sVsymbol
p321
VCu
p322
sVcharge
p323
F0
sVtag
p324
I0
sVposition
p325
(lp326
F1.8138711258725142
aF6.7089379113241705
aF16.850003990312409
asVmomentum
p327
(lp328
F0
aF0
aF0
asa(dp329
Vmagmom
p330
F0
sVindex
p331
I28
sVsymbol
p332
VCu
p333
sVcharge
p334
F0
sVtag
p335
I0
sVposition
p336
(lp337
F1.8138711258725142
aF2.5316887127705812
aF21.027253188865998
asVmomentum
p338
(lp339
F0
aF0
aF0
asa(dp340
Vmagmom
p341
F0
sVindex
p342
I29
sVsymbol
p343
VCu
p344
sVcharge
p345
F0
sVtag
p346
I0
sVposition
p347
(lp348
F1.8138711258725142
aF10.886187109877762
aF21.027253188866002
asVmomentum
p349
(lp350
F0
aF0
aF0
asa(dp351
Vmagmom
p352
F0
sVindex
p353
I30
sVsymbol
p354
VCu
p355
sVcharge
p356
F0
sVtag
p357
I0
sVposition
p358
(lp359
F1.8138711258725149
aF10.00005888289019
aF23.530071595705628
asVmomentum
p360
(lp361
F0
aF0
aF0
asa(dp362
Vmagmom
p363
F0
sVindex
p364
I31
sVsymbol
p365
VCu
p366
sVcharge
p367
F0
sVtag
p368
I0
sVposition
p369
(lp370
F1.8138711258725142
aF5.8228096843365993
aF19.352822397152039
asVmomentum
p371
(lp372
F0
aF0
aF0
asa(dp373
Vmagmom
p374
F0
sVindex
p375
I32
sVsymbol
p376
VCu
p377
sVcharge
p378
F0
sVtag
p379
I0
sVposition
p380
(lp381
F1.8138711258725149
aF1.64556048578301
aF15.17557319859845
asVmomentum
p382
(lp383
F0
aF0
aF0
asa(dp384
Vmagmom
p385
F0
sVindex
p386
I33
sVsymbol
p387
VCu
p388
sVcharge
p389
F0
sVtag
p390
I0
sVposition
p391
(lp392
F5.4307250558725135
aF9.1917137929641584
aF17.658349080238438
asVmomentum
p393
(lp394
F0
aF0
aF0
asa(dp395
Vmagmom
p396
F0
sVindex
p397
I34
sVsymbol
p398
VCu
p399
sVcharge
p400
F0
sVtag
p401
I0
sVposition
p402
(lp403
F5.4307250558725144
aF5.014464594410569
aF21.83559827879203
asVmomentum
p404
(lp405
F0
aF0
aF0
asa(dp406
Vmagmom
p407
F0
sVindex
p408
I35
sVsymbol
p409
VCu
p410
sVcharge
p411
F0
sVtag
p412
I0
sVposition
p413
(lp414
F5.4307250558725144
aF0.83721539585697968
aF17.658349080238438
asVmomentum
p415
(lp416
F0
aF0
aF0
asa(dp417
Vmagmom
p418
F0
sVindex
p419
I36
sVsymbol
p420
VCu
p421
sVcharge
p422
F0
sVtag
p423
I0
sVposition
p424
(lp425
F1.8029828041274858
aF9.1917137929641584
aF17.658349080238438
asVmomentum
p426
(lp427
F0
aF0
aF0
asa(dp428
Vmagmom
p429
F0
sVindex
p430
I37
sVsymbol
p431
VCu
p432
sVcharge
p433
F0
sVtag
p434
I0
sVposition
p435
(lp436
F1.8029828041274858
aF5.014464594410569
aF21.83559827879203
asVmomentum
p437
(lp438
F0
aF0
aF0
asa(dp439
Vmagmom
p440
F0
sVindex
p441
I38
sVsymbol
p442
VCu
p443
sVcharge
p444
F0
sVtag
p445
I0
sVposition
p446
(lp447
F1.8029828041274858
aF0.83721539585697968
aF17.658349080238438
asVmomentum
p448
(lp449
F0
aF0
aF0
asa(dp450
Vmagmom
p451
F0
sVindex
p452
I39
sVsymbol
p453
VCu
p454
sVcharge
p455
F0
sVtag
p456
I0
sVposition
p457
(lp458
F5.419836734127486
aF10.00005888289019
aF23.530071595705628
asVmomentum
p459
(lp460
F0
aF0
aF0
asa(dp461
Vmagmom
p462
F0
sVindex
p463
I40
sVsymbol
p464
VCu
p465
sVcharge
p466
F0
sVtag
p467
I0
sVposition
p468
(lp469
F5.419836734127486
aF5.8228096843365993
aF19.352822397152039
asVmomentum
p470
(lp471
F0
aF0
aF0
asa(dp472
Vmagmom
p473
F0
sVindex
p474
I41
sVsymbol
p475
VCu
p476
sVcharge
p477
F0
sVtag
p478
I0
sVposition
p479
(lp480
F5.419836734127486
aF1.64556048578301
aF15.17557319859845
asVmomentum
p481
(lp482
F0
aF0
aF0
asa(dp483
Vmagmom
p484
F0
sVindex
p485
I42
sVsymbol
p486
VCu
p487
sVcharge
p488
F0
sVtag
p489
I0
sVposition
p490
(lp491
F5.4198367341274851
aF6.7089379113241705
aF16.850003990312409
asVmomentum
p492
(lp493
F0
aF0
aF0
asa(dp494
Vmagmom
p495
F0
sVindex
p496
I43
sVsymbol
p497
VCu
p498
sVcharge
p499
F0
sVtag
p500
I0
sVposition
p501
(lp502
F5.4198367341274869
aF2.5316887127705812
aF21.027253188865998
asVmomentum
p503
(lp504
F0
aF0
aF0
asa(dp505
Vmagmom
p506
F0
sVindex
p507
I44
sVsymbol
p508
VCu
p509
sVcharge
p510
F0
sVtag
p511
I0
sVposition
p512
(lp513
F5.4198367341274869
aF10.886187109877762
aF21.027253188866002
asVmomentum
p514
(lp515
F0
aF0
aF0
asa(dp516
Vmagmom
p517
F0
sVindex
p518
I45
sVsymbol
p519
VCu
p520
sVcharge
p521
F0
sVtag
p522
I0
sVposition
p523
(lp524
F1.8029828041274858
aF7.5172830012502025
aF22.7217265057796
asVmomentum
p525
(lp526
F0
aF0
aF0
asa(dp527
Vmagmom
p528
F0
sVindex
p529
I46
sVsymbol
p530
VCu
p531
sVcharge
p532
F0
sVtag
p533
I0
sVposition
p534
(lp535
F1.8029828041274851
aF3.3400338026966105
aF18.544477307226011
asVmomentum
p536
(lp537
F0
aF0
aF0
asa(dp538
Vmagmom
p539
F0
sVindex
p540
I47
sVsymbol
p541
VCu
p542
sVcharge
p543
F0
sVtag
p544
I0
sVposition
p545
(lp546
F1.802982804127486
aF11.69453219980379
aF18.544477307226007
asVmomentum
p547
(lp548
F0
aF0
aF0
asa(dp549
Vmagmom
p550
F0
sVindex
p551
I48
sVsymbol
p552
VPd
p553
sVcharge
p554
F0
sVtag
p555
I0
sVposition
p556
(lp557
F0
aF9.148703832676043
aF21.838810499880733
asVmomentum
p558
(lp559
F0
aF0
aF0
asa(dp560
Vmagmom
p561
F0
sVindex
p562
I49
sVsymbol
p563
VPd
p564
sVcharge
p565
F0
sVtag
p566
I0
sVposition
p567
(lp568
F-1.9721522630525295e-31
aF4.9714546341224519
aF17.661561301327144
asVmomentum
p569
(lp570
F0
aF0
aF0
asa(dp571
Vmagmom
p572
F0
sVindex
p573
I50
sVsymbol
p574
VPd
p575
sVcharge
p576
F0
sVtag
p577
I0
sVposition
p578
(lp579
F0
aF0.79420543556886258
aF13.484312102773554
asVmomentum
p580
(lp581
F0
aF0
aF0
asa(dp582
Vmagmom
p583
F0
sVindex
p584
I51
sVsymbol
p585
VPd
p586
sVcharge
p587
F0
sVtag
p588
I0
sVposition
p589
(lp590
F3.61685393
aF5.8260219054253026
aF15.218583158886563
asVmomentum
p591
(lp592
F0
aF0
aF0
asa(dp593
Vmagmom
p594
F0
sVindex
p595
I52
sVsymbol
p596
VPd
p597
sVcharge
p598
F0
sVtag
p599
I0
sVposition
p600
(lp601
F3.61685393
aF1.6487727068717142
aF19.395832357440156
asVmomentum
p602
(lp603
F0
aF0
aF0
asa(dp604
Vmagmom
p605
F0
sVindex
p606
I53
sVsymbol
p607
VPd
p608
sVcharge
p609
F0
sVtag
p610
I0
sVposition
p611
(lp612
F3.61685393
aF10.003271103978895
aF19.395832357440156
asVmomentum
p613
(lp614
F0
aF0
aF0
asa(dp615
Vmagmom
p616
F0
sVindex
p617
I54
sVsymbol
p618
VPd
p619
sVcharge
p620
F0
sVtag
p621
I0
sVposition
p622
(lp623
F3.6168539300000004
aF10.882974888789054
aF16.806994030024292
asVmomentum
p624
(lp625
F0
aF0
aF0
asa(dp626
Vmagmom
p627
F0
sVindex
p628
I55
sVsymbol
p629
VPd
p630
sVcharge
p631
F0
sVtag
p632
I0
sVposition
p633
(lp634
F3.61685393
aF6.7057256902354654
aF20.984243228577881
asVmomentum
p635
(lp636
F0
aF0
aF0
asa(dp637
Vmagmom
p638
F0
sVindex
p639
I56
sVsymbol
p640
VPd
p641
sVcharge
p642
F0
sVtag
p643
I0
sVposition
p644
(lp645
F3.61685393
aF2.528476491681876
aF16.806994030024292
asVmomentum
p646
(lp647
F0
aF0
aF0
asa(dp648
Vmagmom
p649
F0
sVindex
p650
I57
sVsymbol
p651
VPd
p652
sVcharge
p653
F0
sVtag
p654
I0
sVposition
p655
(lp656
F0
aF7.5602929615383196
aF18.541265086137305
asVmomentum
p657
(lp658
F0
aF0
aF0
asa(dp659
Vmagmom
p660
F0
sVindex
p661
I58
sVsymbol
p662
VPd
p663
sVcharge
p664
F0
sVtag
p665
I0
sVposition
p666
(lp667
F1.9721522630525295e-31
aF3.3830437629847259
aF14.364015887583715
asVmomentum
p668
(lp669
F0
aF0
aF0
asa(dp670
Vmagmom
p671
F0
sVindex
p672
I59
sVsymbol
p673
VPd
p674
sVcharge
p675
F0
sVtag
p676
I0
sVposition
p677
(lp678
F0
aF11.737542160091907
aF22.718514284690897
asVmomentum
p679
(lp680
F0
aF0
aF0
asasVcell
p681
(lp682
(lp683
F7.23370786
aF0
aF0
aa(lp684
F-4.9303806576313238e-32
aF12.531747595660772
aF4.1772491985535902
aa(lp685
F0
aF3.5527136788005009e-15
aF33.417993588428715
aasVmass
p686
F4327.2479999999987
sVpbc
p687
(lp688
I01
aI01
aI01
asVspacegroup
p689
VPm (6)
p690
sVconstraints
p691
(lp692
(dp693
Vname
p694
VFixAtoms
p695
sVkwargs
p696
(dp697
Vindices
p698
(lp699
I0
aI2
aI3
aI5
aI7
aI10
aI12
aI14
aI16
aI17
aI18
aI19
aI21
aI23
aI26
aI27
aI32
aI33
aI36
aI41
aI42
aI47
aI49
aI50
aI51
aI53
aI54
aI56
aI57
aI58
assasaa(lp700
S'results'
p701
ag2
((ltRp702
aa(lp703
S'user'
p704
aS'ktran'
p705
aa(lp706
S'inserted-hash'
p707
aS'5c1396446c08420addd0183d08b900d52c84a339'
p708
aa(lp709
S'ctime'
p710
acdatetime
datetime
p711
(S'\x07\xe1\x03\x1f\x13-\x03\x05\x08,'
tRp712
aa(lp713
S'mtime'
p714
ag711
(S'\x07\xe1\x03\x1f\x13-\x03\x05\x08['
tRp715
aa(lp716
S'tags'
p717
a(dp718
S'get_slab_settings'
p719
g2
((lp720
(lp721
S'max_broken_bonds'
p722
aI0
aa(lp723
S'bonds'
p724
aNaa(lp725
S'tol'
p726
aF0.29999999999999999
aa(lp727
S'symmetrize'
p728
aI00
aatRp729
sS'relaxed'
p730
I00
sS'mpid'
p731
Vmp-30594
p732
sS'shift'
p733
I0
sS'slab_generate_settings'
p734
g2
((lp735
(lp736
S'primitive'
p737
aI01
aa(lp738
S'min_vacuum_size'
p739
aF20
aa(lp740
S'lll_reduce'
p741
aI00
aa(lp742
S'max_normal_search'
p743
aI1
aa(lp744
S'min_slab_size'
p745
aF7
aa(lp746
S'center_slab'
p747
aI01
aatRp748
sS'miller'
p749
(I2
I1
I0
tp750
sS'top'
p751
I01
sS'type'
p752
S'slab'
p753
sS'num_slab_atoms'
p754
I60
saatRp755
ag2
((lp756
(lp757
g5
a(dp758
Vinfo
p759
(dp760
sVvolume
p761
F3029.3745729518605
sVnatoms
p762
I60
sVsymbol_counts
p763
(dp764
VCu
p765
I48
sVPd
p766
I12
ssVchemical_symbols
p767
(lp768
VPd
p769
aVCu
p770
asVatoms
p771
(lp772
(dp773
Vmagmom
p774
F0
sVindex
p775
I0
sVsymbol
p776
VCu
p777
sVcharge
p778
F0
sVtag
p779
I0
sVposition
p780
(lp781
F0
aF-8.354498397107184
aF-16.012788594455429
asVmomentum
p782
(lp783
F0
aF0
aF0
asa(dp784
Vmagmom
p785
F0
sVindex
p786
I1
sVsymbol
p787
VCu
p788
sVcharge
p789
F0
sVtag
p790
I0
sVposition
p791
(lp792
F0
aF-4.1772491985535902
aF-20.190037793009019
asVmomentum
p793
(lp794
F0
aF0
aF0
asa(dp795
Vmagmom
p796
F0
sVindex
p797
I2
sVsymbol
p798
VCu
p799
sVcharge
p800
F0
sVtag
p801
I0
sVposition
p802
(lp803
F0
aF-1.9610010297623086e-15
aF-16.012788594455429
asVmomentum
p804
(lp805
F0
aF0
aF0
asa(dp806
Vmagmom
p807
F0
sVindex
p808
I3
sVsymbol
p809
VCu
p810
sVcharge
p811
F0
sVtag
p812
I0
sVposition
p813
(lp814
F3.6168539300000004
aF-8.354498397107184
aF-16.012788594455429
asVmomentum
p815
(lp816
F0
aF0
aF0
asa(dp817
Vmagmom
p818
F0
sVindex
p819
I4
sVsymbol
p820
VCu
p821
sVcharge
p822
F0
sVtag
p823
I0
sVposition
p824
(lp825
F3.61685393
aF-4.1772491985535902
aF-20.190037793009019
asVmomentum
p826
(lp827
F0
aF0
aF0
asa(dp828
Vmagmom
p829
F0
sVindex
p830
I5
sVsymbol
p831
VCu
p832
sVcharge
p833
F0
sVtag
p834
I0
sVposition
p835
(lp836
F3.61685393
aF-1.9610010297623086e-15
aF-16.012788594455429
asVmomentum
p837
(lp838
F0
aF0
aF0
asa(dp839
Vmagmom
p840
F0
sVindex
p841
I6
sVsymbol
p842
VCu
p843
sVcharge
p844
F0
sVtag
p845
I0
sVposition
p846
(lp847
F5.4252808950000002
aF-8.3544983971071805
aF-20.190037793009019
asVmomentum
p848
(lp849
F0
aF0
aF0
asa(dp850
Vmagmom
p851
F0
sVindex
p852
I7
sVsymbol
p853
VCu
p854
sVcharge
p855
F0
sVtag
p856
I0
sVposition
p857
(lp858
F5.4252808949999993
aF-4.1772491985535929
aF-16.012788594455429
asVmomentum
p859
(lp860
F0
aF0
aF0
asa(dp861
Vmagmom
p862
F0
sVindex
p863
I8
sVsymbol
p864
VCu
p865
sVcharge
p866
F0
sVtag
p867
I0
sVposition
p868
(lp869
F5.4252808950000002
aF-2.4725665157872584e-15
aF-20.190037793009019
asVmomentum
p870
(lp871
F0
aF0
aF0
asa(dp872
Vmagmom
p873
F0
sVindex
p874
I9
sVsymbol
p875
VCu
p876
sVcharge
p877
F0
sVtag
p878
I0
sVposition
p879
(lp880
F1.808426965
aF-8.3544983971071805
aF-20.190037793009019
asVmomentum
p881
(lp882
F0
aF0
aF0
asa(dp883
Vmagmom
p884
F0
sVindex
p885
I10
sVsymbol
p886
VCu
p887
sVcharge
p888
F0
sVtag
p889
I0
sVposition
p890
(lp891
F1.8084269650000002
aF-4.1772491985535929
aF-16.012788594455429
asVmomentum
p892
(lp893
F0
aF0
aF0
asa(dp894
Vmagmom
p895
F0
sVindex
p896
I11
sVsymbol
p897
VCu
p898
sVcharge
p899
F0
sVtag
p900
I0
sVposition
p901
(lp902
F1.808426965
aF-2.4725665157872584e-15
aF-20.190037793009019
asVmomentum
p903
(lp904
F0
aF0
aF0
asa(dp905
Vmagmom
p906
F0
sVindex
p907
I12
sVsymbol
p908
VCu
p909
sVcharge
p910
F0
sVtag
p911
I0
sVposition
p912
(lp913
F0
aF-10.812058146870132
aF-16.86415450551749
asVmomentum
p914
(lp915
F0
aF0
aF0
asa(dp916
Vmagmom
p917
F0
sVindex
p918
I13
sVsymbol
p919
VCu
p920
sVcharge
p921
F0
sVtag
p922
I0
sVposition
p923
(lp924
F0
aF-6.6348089483165431
aF-21.041403704071083
asVmomentum
p925
(lp926
F0
aF0
aF0
asa(dp927
Vmagmom
p928
F0
sVindex
p929
I14
sVsymbol
p930
VCu
p931
sVcharge
p932
F0
sVtag
p933
I0
sVposition
p934
(lp935
F-1.9721522630525295e-31
aF-2.4575597497629516
aF-16.864154505517494
asVmomentum
p936
(lp937
F0
aF0
aF0
asa(dp938
Vmagmom
p939
F0
sVindex
p940
I15
sVsymbol
p941
VCu
p942
sVcharge
p943
F0
sVtag
p944
I0
sVposition
p945
(lp946
F3.6168539300000013
aF-9.2058643081692448
aF-21.909727241799658
asVmomentum
p947
(lp948
F0
aF0
aF0
asa(dp949
Vmagmom
p950
F0
sVindex
p951
I16
sVsymbol
p952
VCu
p953
sVcharge
p954
F0
sVtag
p955
I0
sVposition
p956
(lp957
F3.61685393
aF-5.0286151096156555
aF-17.732478043246068
asVmomentum
p958
(lp959
F0
aF0
aF0
asa(dp960
Vmagmom
p961
F0
sVindex
p962
I17
sVsymbol
p963
VCu
p964
sVcharge
p965
F0
sVtag
p966
I0
sVposition
p967
(lp968
F3.61685393
aF-0.85136591106206427
aF-13.555228844692479
asVmomentum
p969
(lp970
F0
aF0
aF0
asa(dp971
Vmagmom
p972
F0
sVindex
p973
I18
sVsymbol
p974
VCu
p975
sVcharge
p976
F0
sVtag
p977
I0
sVposition
p978
(lp979
F3.6168539300000004
aF-7.5031324860451223
aF-18.47034834421838
asVmomentum
p980
(lp981
F0
aF0
aF0
asa(dp982
Vmagmom
p983
F0
sVindex
p984
I19
sVsymbol
p985
VCu
p986
sVcharge
p987
F0
sVtag
p988
I0
sVposition
p989
(lp990
F3.61685393
aF-3.3258832874915294
aF-14.29309914566479
asVmomentum
p991
(lp992
F0
aF0
aF0
asa(dp993
Vmagmom
p994
F0
sVindex
p995
I20
sVsymbol
p996
VCu
p997
sVcharge
p998
F0
sVtag
p999
I0
sVposition
p1000
(lp1001
F3.6168539300000004
aF-11.680381684598711
aF-22.647597542771969
asVmomentum
p1002
(lp1003
F0
aF0
aF0
asa(dp1004
Vmagmom
p1005
F0
sVindex
p1006
I21
sVsymbol
p1007
VCu
p1008
sVcharge
p1009
F0
sVtag
p1010
I0
sVposition
p1011
(lp1012
F1.9721522630525295e-31
aF-5.8969386473442302
aF-15.161422683393365
asVmomentum
p1013
(lp1014
F0
aF0
aF0
asa(dp1015
Vmagmom
p1016
F0
sVindex
p1017
I22
sVsymbol
p1018
VCu
p1019
sVcharge
p1020
F0
sVtag
p1021
I0
sVposition
p1022
(lp1023
F1.9721522630525295e-31
aF-1.7196894487906416
aF-19.338671881946958
asVmomentum
p1024
(lp1025
F0
aF0
aF0
asa(dp1026
Vmagmom
p1027
F0
sVindex
p1028
I23
sVsymbol
p1029
VCu
p1030
sVcharge
p1031
F0
sVtag
p1032
I0
sVposition
p1033
(lp1034
F1.9721522630525295e-31
aF-10.07418784589782
aF-19.338671881946954
asVmomentum
p1035
(lp1036
F0
aF0
aF0
asa(dp1037
Vmagmom
p1038
F0
sVindex
p1039
I24
sVsymbol
p1040
VCu
p1041
sVcharge
p1042
F0
sVtag
p1043
I0
sVposition
p1044
(lp1045
F5.4307250558725144
aF-7.5172830012502052
aF-22.7217265057796
asVmomentum
p1046
(lp1047
F0
aF0
aF0
asa(dp1048
Vmagmom
p1049
F0
sVindex
p1050
I25
sVsymbol
p1051
VCu
p1052
sVcharge
p1053
F0
sVtag
p1054
I0
sVposition
p1055
(lp1056
F5.4307250558725144
aF-3.3400338026966128
aF-18.544477307226011
asVmomentum
p1057
(lp1058
F0
aF0
aF0
asa(dp1059
Vmagmom
p1060
F0
sVindex
p1061
I26
sVsymbol
p1062
VCu
p1063
sVcharge
p1064
F0
sVtag
p1065
I0
sVposition
p1066
(lp1067
F5.4307250558725135
aF-11.694532199803792
aF-18.544477307226007
asVmomentum
p1068
(lp1069
F0
aF0
aF0
asa(dp1070
Vmagmom
p1071
F0
sVindex
p1072
I27
sVsymbol
p1073
VCu
p1074
sVcharge
p1075
F0
sVtag
p1076
I0
sVposition
p1077
(lp1078
F1.8138711258725142
aF-6.7089379113241723
aF-16.850003990312409
asVmomentum
p1079
(lp1080
F0
aF0
aF0
asa(dp1081
Vmagmom
p1082
F0
sVindex
p1083
I28
sVsymbol
p1084
VCu
p1085
sVcharge
p1086
F0
sVtag
p1087
I0
sVposition
p1088
(lp1089
F1.8138711258725142
aF-2.5316887127705838
aF-21.027253188865998
asVmomentum
p1090
(lp1091
F0
aF0
aF0
asa(dp1092
Vmagmom
p1093
F0
sVindex
p1094
I29
sVsymbol
p1095
VCu
p1096
sVcharge
p1097
F0
sVtag
p1098
I0
sVposition
p1099
(lp1100
F1.8138711258725142
aF-10.886187109877763
aF-21.027253188866002
asVmomentum
p1101
(lp1102
F0
aF0
aF0
asa(dp1103
Vmagmom
p1104
F0
sVindex
p1105
I30
sVsymbol
p1106
VCu
p1107
sVcharge
p1108
F0
sVtag
p1109
I0
sVposition
p1110
(lp1111
F1.8138711258725149
aF-10.000058882890194
aF-23.530071595705628
asVmomentum
p1112
(lp1113
F0
aF0
aF0
asa(dp1114
Vmagmom
p1115
F0
sVindex
p1116
I31
sVsymbol
p1117
VCu
p1118
sVcharge
p1119
F0
sVtag
p1120
I0
sVposition
p1121
(lp1122
F1.8138711258725142
aF-5.822809684336602
aF-19.352822397152039
asVmomentum
p1123
(lp1124
F0
aF0
aF0
asa(dp1125
Vmagmom
p1126
F0
sVindex
p1127
I32
sVsymbol
p1128
VCu
p1129
sVcharge
p1130
F0
sVtag
p1131
I0
sVposition
p1132
(lp1133
F1.8138711258725149
aF-1.6455604857830117
aF-15.17557319859845
asVmomentum
p1134
(lp1135
F0
aF0
aF0
asa(dp1136
Vmagmom
p1137
F0
sVindex
p1138
I33
sVsymbol
p1139
VCu
p1140
sVcharge
p1141
F0
sVtag
p1142
I0
sVposition
p1143
(lp1144
F5.4307250558725135
aF-9.1917137929641601
aF-17.658349080238438
asVmomentum
p1145
(lp1146
F0
aF0
aF0
asa(dp1147
Vmagmom
p1148
F0
sVindex
p1149
I34
sVsymbol
p1150
VCu
p1151
sVcharge
p1152
F0
sVtag
p1153
I0
sVposition
p1154
(lp1155
F5.4307250558725144
aF-5.0144645944105717
aF-21.83559827879203
asVmomentum
p1156
(lp1157
F0
aF0
aF0
asa(dp1158
Vmagmom
p1159
F0
sVindex
p1160
I35
sVsymbol
p1161
VCu
p1162
sVcharge
p1163
F0
sVtag
p1164
I0
sVposition
p1165
(lp1166
F5.4307250558725144
aF-0.83721539585698179
aF-17.658349080238438
asVmomentum
p1167
(lp1168
F0
aF0
aF0
asa(dp1169
Vmagmom
p1170
F0
sVindex
p1171
I36
sVsymbol
p1172
VCu
p1173
sVcharge
p1174
F0
sVtag
p1175
I0
sVposition
p1176
(lp1177
F1.8029828041274858
aF-9.1917137929641601
aF-17.658349080238438
asVmomentum
p1178
(lp1179
F0
aF0
aF0
asa(dp1180
Vmagmom
p1181
F0
sVindex
p1182
I37
sVsymbol
p1183
VCu
p1184
sVcharge
p1185
F0
sVtag
p1186
I0
sVposition
p1187
(lp1188
F1.8029828041274858
aF-5.0144645944105717
aF-21.83559827879203
asVmomentum
p1189
(lp1190
F0
aF0
aF0
asa(dp1191
Vmagmom
p1192
F0
sVindex
p1193
I38
sVsymbol
p1194
VCu
p1195
sVcharge
p1196
F0
sVtag
p1197
I0
sVposition
p1198
(lp1199
F1.8029828041274858
aF-0.83721539585698179
aF-17.658349080238438
asVmomentum
p1200
(lp1201
F0
aF0
aF0
asa(dp1202
Vmagmom
p1203
F0
sVindex
p1204
I39
sVsymbol
p1205
VCu
p1206
sVcharge
p1207
F0
sVtag
p1208
I0
sVposition
p1209
(lp1210
F5.419836734127486
aF-10.000058882890194
aF-23.530071595705628
asVmomentum
p1211
(lp1212
F0
aF0
aF0
asa(dp1213
Vmagmom
p1214
F0
sVindex
p1215
I40
sVsymbol
p1216
VCu
p1217
sVcharge
p1218
F0
sVtag
p1219
I0
sVposition
p1220
(lp1221
F5.419836734127486
aF-5.822809684336602
aF-19.352822397152039
asVmomentum
p1222
(lp1223
F0
aF0
aF0
asa(dp1224
Vmagmom
p1225
F0
sVindex
p1226
I41
sVsymbol
p1227
VCu
p1228
sVcharge
p1229
F0
sVtag
p1230
I0
sVposition
p1231
(lp1232
F5.419836734127486
aF-1.6455604857830117
aF-15.17557319859845
asVmomentum
p1233
(lp1234
F0
aF0
aF0
asa(dp1235
Vmagmom
p1236
F0
sVindex
p1237
I42
sVsymbol
p1238
VCu
p1239
sVcharge
p1240
F0
sVtag
p1241
I0
sVposition
p1242
(lp1243
F5.4198367341274851
aF-6.7089379113241723
aF-16.850003990312409
asVmomentum
p1244
(lp1245
F0
aF0
aF0
asa(dp1246
Vmagmom
p1247
F0
sVindex
p1248
I43
sVsymbol
p1249
VCu
p1250
sVcharge
p1251
F0
sVtag
p1252
I0
sVposition
p1253
(lp1254
F5.4198367341274869
aF-2.5316887127705838
aF-21.027253188865998
asVmomentum
p1255
(lp1256
F0
aF0
aF0
asa(dp1257
Vmagmom
p1258
F0
sVindex
p1259
I44
sVsymbol
p1260
VCu
p1261
sVcharge
p1262
F0
sVtag
p1263
I0
sVposition
p1264
(lp1265
F5.4198367341274869
aF-10.886187109877763
aF-21.027253188866002
asVmomentum
p1266
(lp1267
F0
aF0
aF0
asa(dp1268
Vmagmom
p1269
F0
sVindex
p1270
I45
sVsymbol
p1271
VCu
p1272
sVcharge
p1273
F0
sVtag
p1274
I0
sVposition
p1275
(lp1276
F1.8029828041274858
aF-7.5172830012502052
aF-22.7217265057796
asVmomentum
p1277
(lp1278
F0
aF0
aF0
asa(dp1279
Vmagmom
p1280
F0
sVindex
p1281
I46
sVsymbol
p1282
VCu
p1283
sVcharge
p1284
F0
sVtag
p1285
I0
sVposition
p1286
(lp1287
F1.8029828041274851
aF-3.3400338026966128
aF-18.544477307226011
asVmomentum
p1288
(lp1289
F0
aF0
aF0
asa(dp1290
Vmagmom
p1291
F0
sVindex
p1292
I47
sVsymbol
p1293
VCu
p1294
sVcharge
p1295
F0
sVtag
p1296
I0
sVposition
p1297
(lp1298
F1.802982804127486
aF-11.694532199803792
aF-18.544477307226007
asVmomentum
p1299
(lp1300
F0
aF0
aF0
asa(dp1301
Vmagmom
p1302
F0
sVindex
p1303
I48
sVsymbol
p1304
VPd
p1305
sVcharge
p1306
F0
sVtag
p1307
I0
sVposition
p1308
(lp1309
F0
aF-9.1487038326760466
aF-21.838810499880733
asVmomentum
p1310
(lp1311
F0
aF0
aF0
asa(dp1312
Vmagmom
p1313
F0
sVindex
p1314
I49
sVsymbol
p1315
VPd
p1316
sVcharge
p1317
F0
sVtag
p1318
I0
sVposition
p1319
(lp1320
F-1.9721522630525295e-31
aF-4.9714546341224537
aF-17.661561301327144
asVmomentum
p1321
(lp1322
F0
aF0
aF0
asa(dp1323
Vmagmom
p1324
F0
sVindex
p1325
I50
sVsymbol
p1326
VPd
p1327
sVcharge
p1328
F0
sVtag
p1329
I0
sVposition
p1330
(lp1331
F0
aF-0.79420543556886425
aF-13.484312102773554
asVmomentum
p1332
(lp1333
F0
aF0
aF0
asa(dp1334
Vmagmom
p1335
F0
sVindex
p1336
I51
sVsymbol
p1337
VPd
p1338
sVcharge
p1339
F0
sVtag
p1340
I0
sVposition
p1341
(lp1342
F3.61685393
aF-5.8260219054253044
aF-15.218583158886563
asVmomentum
p1343
(lp1344
F0
aF0
aF0
asa(dp1345
Vmagmom
p1346
F0
sVindex
p1347
I52
sVsymbol
p1348
VPd
p1349
sVcharge
p1350
F0
sVtag
p1351
I0
sVposition
p1352
(lp1353
F3.61685393
aF-1.6487727068717166
aF-19.395832357440156
asVmomentum
p1354
(lp1355
F0
aF0
aF0
asa(dp1356
Vmagmom
p1357
F0
sVindex
p1358
I53
sVsymbol
p1359
VPd
p1360
sVcharge
p1361
F0
sVtag
p1362
I0
sVposition
p1363
(lp1364
F3.61685393
aF-10.003271103978896
aF-19.395832357440156
asVmomentum
p1365
(lp1366
F0
aF0
aF0
asa(dp1367
Vmagmom
p1368
F0
sVindex
p1369
I54
sVsymbol
p1370
VPd
p1371
sVcharge
p1372
F0
sVtag
p1373
I0
sVposition
p1374
(lp1375
F3.6168539300000004
aF-10.882974888789056
aF-16.806994030024292
asVmomentum
p1376
(lp1377
F0
aF0
aF0
asa(dp1378
Vmagmom
p1379
F0
sVindex
p1380
I55
sVsymbol
p1381
VPd
p1382
sVcharge
p1383
F0
sVtag
p1384
I0
sVposition
p1385
(lp1386
F3.61685393
aF-6.7057256902354681
aF-20.984243228577881
asVmomentum
p1387
(lp1388
F0
aF0
aF0
asa(dp1389
Vmagmom
p1390
F0
sVindex
p1391
I56
sVsymbol
p1392
VPd
p1393
sVcharge
p1394
F0
sVtag
p1395
I0
sVposition
p1396
(lp1397
F3.61685393
aF-2.5284764916818783
aF-16.806994030024292
asVmomentum
p1398
(lp1399
F0
aF0
aF0
asa(dp1400
Vmagmom
p1401
F0
sVindex
p1402
I57
sVsymbol
p1403
VPd
p1404
sVcharge
p1405
F0
sVtag
p1406
I0
sVposition
p1407
(lp1408
F0
aF-7.5602929615383223
aF-18.541265086137305
asVmomentum
p1409
(lp1410
F0
aF0
aF0
asa(dp1411
Vmagmom
p1412
F0
sVindex
p1413
I58
sVsymbol
p1414
VPd
p1415
sVcharge
p1416
F0
sVtag
p1417
I0
sVposition
p1418
(lp1419
F1.9721522630525295e-31
aF-3.3830437629847276
aF-14.364015887583715
asVmomentum
p1420
(lp1421
F0
aF0
aF0
asa(dp1422
Vmagmom
p1423
F0
sVindex
p1424
I59
sVsymbol
p1425
VPd
p1426
sVcharge
p1427
F0
sVtag
p1428
I0
sVposition
p1429
(lp1430
F0
aF-11.737542160091911
aF-22.718514284690897
asVmomentum
p1431
(lp1432
F0
aF0
aF0
asasVcell
p1433
(lp1434
(lp1435
F7.23370786
aF0
aF0
aa(lp1436
F-4.9303806576313238e-32
aF-12.531747595660772
aF-4.1772491985535884
aa(lp1437
F0
aF-7.6452375670001008e-15
aF-33.417993588428715
aasVmass
p1438
F4327.2479999999987
sVpbc
p1439
(lp1440
I01
aI01
aI01
asVspacegroup
p1441
VPm (6)
p1442
sVconstraints
p1443
(lp1444
(dp1445
Vname
p1446
VFixAtoms
p1447
sVkwargs
p1448
(dp1449
Vindices
p1450
(lp1451
I1
aI4
aI6
aI8
aI9
aI11
aI13
aI15
aI20
aI22
aI24
aI25
aI28
aI29
aI30
aI31
aI34
aI35
aI37
aI38
aI39
aI40
aI43
aI44
aI45
aI46
aI48
aI52
aI55
aI59
assasaa(lp1452
g701
ag2
((ltRp1453
aa(lp1454
g704
ag705
aa(lp1455
g707
aS'7a5f652a3327116c59f04882cc033cf1ca228230'
p1456
aa(lp1457
g710
ag711
(S'\x07\xe1\x03\x1f\x13-\x03\x05\xa8y'
tRp1458
aa(lp1459
g714
ag711
(S'\x07\xe1\x03\x1f\x13-\x03\x05\xa8\x82'
tRp1460
aa(lp1461
g717
a(dp1462
g719
g729
sg730
I00
sg731
g732
sg733
I0
sg734
g748
sg749
g750
sg751
I00
sg752
g753
sg754
I60
saatRp1463
a.