(lp1
ccollections
OrderedDict
p2
((lp3
(lp4
S'atoms'
p5
a(dp6
Vinfo
p7
(dp8
sVvolume
p9
F231.69809951415903
sVnatoms
p10
I6
sVsymbol_counts
p11
(dp12
VPd
p13
I6
ssVchemical_symbols
p14
(lp15
VPd
p16
asVatoms
p17
(lp18
(dp19
Vmagmom
p20
F0
sVindex
p21
I0
sVsymbol
p22
VPd
p23
sVcharge
p24
F0
sVtag
p25
I0
sVposition
p26
(lp27
F4.4408920985006262e-15
aF1.6139426909339636
aF11.412298212058706
asVmomentum
p28
(lp29
F0
aF0
aF0
asa(dp30
Vmagmom
p31
F0
sVindex
p32
I1
sVsymbol
p33
VPd
p34
sVcharge
p35
F0
sVtag
p36
I0
sVposition
p37
(lp38
F1.3977153706010306
aF2.420914036400946
aF15.97721749688219
asVmomentum
p39
(lp40
F0
aF0
aF0
asa(dp41
Vmagmom
p42
F0
sVindex
p43
I2
sVsymbol
p44
VPd
p45
sVcharge
p46
F0
sVtag
p47
I0
sVposition
p48
(lp49
F1.3977153706010315
aF0.8069713454669829
aF13.694757854470447
asVmomentum
p50
(lp51
F0
aF0
aF0
asa(dp52
Vmagmom
p53
F0
sVindex
p54
I3
sVsymbol
p55
VPd
p56
sVcharge
p57
F0
sVtag
p58
I0
sVposition
p59
(lp60
F8.8817841970012523e-16
aF1.6139426909339658
aF18.259677139293927
asVmomentum
p61
(lp62
F0
aF0
aF0
asa(dp63
Vmagmom
p64
F0
sVindex
p65
I4
sVsymbol
p66
VPd
p67
sVcharge
p68
F0
sVtag
p69
I0
sVposition
p70
(lp71
F2.7954307412020611
aF2.6645352591003757e-15
aF22.824596424117409
asVmomentum
p72
(lp73
F0
aF0
aF0
asa(dp74
Vmagmom
p75
F0
sVindex
p76
I5
sVsymbol
p77
VPd
p78
sVcharge
p79
F0
sVtag
p80
I0
sVposition
p81
(lp82
F1.3977153706010332
aF0.80697134546698202
aF20.542136781705675
asVmomentum
p83
(lp84
F0
aF0
aF0
asasVcell
p85
(lp86
(lp87
F2.7954307412020598
aF3.3306690738754696e-16
aF2.2204460492503131e-16
aa(lp88
F-1.3977153706010299
aF2.420914036400946
aF0
aa(lp89
F7.1054273576010019e-15
aF3.5527136788005009e-15
aF34.236894636176118
aasVmass
p90
F638.51999999999998
sVpbc
p91
(lp92
I01
aI01
aI01
asVspacegroup
p93
VP-3m1 (164)
p94
sVconstraints
p95
(lp96
(dp97
Vname
p98
VFixAtoms
p99
sVkwargs
p100
(dp101
Vindices
p102
(lp103
I0
aI1
aI2
aI3
assasaa(lp104
S'results'
p105
ag2
((ltRp106
aa(lp107
S'user'
p108
aS'ktran'
p109
aa(lp110
S'inserted-hash'
p111
aS'052ddd6fd0fbbfeb10b6c8586fa965c190ca06a5'
p112
aa(lp113
S'ctime'
p114
acdatetime
datetime
p115
(S'\x07\xe1\x03\x1f\x13/\x1c\x0b\x8d\xb4'
tRp116
aa(lp117
S'mtime'
p118
ag115
(S'\x07\xe1\x03\x1f\x13/\x1c\x0b\x8d\xde'
tRp119
aa(lp120
S'tags'
p121
a(dp122
S'get_slab_settings'
p123
g2
((lp124
(lp125
S'max_broken_bonds'
p126
aI0
aa(lp127
S'bonds'
p128
aNaa(lp129
S'tol'
p130
aF0.29999999999999999
aa(lp131
S'symmetrize'
p132
aI00
aatRp133
sS'relaxed'
p134
I00
sS'mpid'
p135
Vmp-2
p136
sS'shift'
p137
I0
sS'slab_generate_settings'
p138
g2
((lp139
(lp140
S'primitive'
p141
aI01
aa(lp142
S'min_vacuum_size'
p143
aF20
aa(lp144
S'lll_reduce'
p145
aI00
aa(lp146
S'max_normal_search'
p147
aI1
aa(lp148
S'min_slab_size'
p149
aF7
aa(lp150
S'center_slab'
p151
aI01
aatRp152
sS'miller'
p153
(I1
I1
I1
tp154
sS'top'
p155
I01
sS'type'
p156
S'slab'
p157
sS'num_slab_atoms'
p158
I6
saatRp159
a.