(lp1
ccollections
OrderedDict
p2
((lp3
(lp4
S'atoms'
p5
a(dp6
Vinfo
p7
(dp8
sVvolume
p9
F741.43391844530834
sVnatoms
p10
I16
sVsymbol_counts
p11
(dp12
VPd
p13
I16
ssVchemical_symbols
p14
(lp15
VPd
p16
asVatoms
p17
(lp18
(dp19
Vmagmom
p20
F0
sVindex
p21
I0
sVsymbol
p22
VPd
p23
sVcharge
p24
F0
sVtag
p25
I0
sVposition
p26
(lp27
F2.7954307412020576
aF0.14265372765073359
aF18.963826618474084
asVmomentum
p28
(lp29
F0
aF0
aF0
asa(dp30
Vmagmom
p31
F0
sVindex
p32
I1
sVsymbol
p33
VPd
p34
sVcharge
p35
F0
sVtag
p36
I0
sVposition
p37
(lp38
F2.7954307412020585
aF0.1426537276507327
aF14.121998545672188
asVmomentum
p39
(lp40
F0
aF0
aF0
asa(dp41
Vmagmom
p42
F0
sVindex
p43
I2
sVsymbol
p44
VPd
p45
sVcharge
p46
F0
sVtag
p47
I0
sVposition
p48
(lp49
F4.4408920985006262e-16
aF4.7075730124742154
aF15.735941236606152
asVmomentum
p50
(lp51
F0
aF0
aF0
asa(dp52
Vmagmom
p53
F0
sVindex
p54
I3
sVsymbol
p55
VPd
p56
sVcharge
p57
F0
sVtag
p58
I0
sVposition
p59
(lp60
F2.7954307412020585
aF2.4251133700624754
aF17.349883927540116
asVmomentum
p61
(lp62
F0
aF0
aF0
asa(dp63
Vmagmom
p64
F0
sVindex
p65
I4
sVsymbol
p66
VPd
p67
sVcharge
p68
F0
sVtag
p69
I0
sVposition
p70
(lp71
F1.3977153706010288
aF2.4251133700624754
aF14.928969891139168
asVmomentum
p72
(lp73
F0
aF0
aF0
asa(dp74
Vmagmom
p75
F0
sVindex
p76
I5
sVsymbol
p77
VPd
p78
sVcharge
p79
F0
sVtag
p80
I0
sVposition
p81
(lp82
F1.3977153706010288
aF0.1426537276507327
aF16.542912582073136
asVmomentum
p83
(lp84
F0
aF0
aF0
asa(dp85
Vmagmom
p86
F0
sVindex
p87
I6
sVsymbol
p88
VPd
p89
sVcharge
p90
F0
sVtag
p91
I0
sVposition
p92
(lp93
F1.3977153706010297
aF4.7075730124742172
aF18.1568552730071
asVmomentum
p94
(lp95
F0
aF0
aF0
asa(dp96
Vmagmom
p97
F0
sVindex
p98
I7
sVsymbol
p99
VPd
p100
sVcharge
p101
F0
sVtag
p102
I0
sVposition
p103
(lp104
F1.3977153706010301
aF4.7075730124742163
aF13.315027200205208
asVmomentum
p105
(lp106
F0
aF0
aF0
asa(dp107
Vmagmom
p108
F0
sVindex
p109
I8
sVsymbol
p110
VPd
p111
sVcharge
p112
F0
sVtag
p113
I0
sVposition
p114
(lp115
F2.7954307412020576
aF4.7075730124742137
aF25.419597382209936
asVmomentum
p116
(lp117
F0
aF0
aF0
asa(dp118
Vmagmom
p119
F0
sVindex
p120
I9
sVsymbol
p121
VPd
p122
sVcharge
p123
F0
sVtag
p124
I0
sVposition
p125
(lp126
F0
aF4.7075730124742154
aF20.577769309408048
asVmomentum
p127
(lp128
F0
aF0
aF0
asa(dp129
Vmagmom
p130
F0
sVindex
p131
I10
sVsymbol
p132
VPd
p133
sVcharge
p134
F0
sVtag
p135
I0
sVposition
p136
(lp137
F2.7954307412020576
aF2.4251133700624745
aF22.191712000342015
asVmomentum
p138
(lp139
F0
aF0
aF0
asa(dp140
Vmagmom
p141
F0
sVindex
p142
I11
sVsymbol
p143
VPd
p144
sVcharge
p145
F0
sVtag
p146
I0
sVposition
p147
(lp148
F2.7954307412020567
aF0.14265372765073625
aF23.805654691275969
asVmomentum
p149
(lp150
F0
aF0
aF0
asa(dp151
Vmagmom
p152
F0
sVindex
p153
I12
sVsymbol
p154
VPd
p155
sVcharge
p156
F0
sVtag
p157
I0
sVposition
p158
(lp159
F1.3977153706010279
aF0.14265372765073447
aF21.384740654875021
asVmomentum
p160
(lp161
F0
aF0
aF0
asa(dp162
Vmagmom
p163
F0
sVindex
p164
I13
sVsymbol
p165
VPd
p166
sVcharge
p167
F0
sVtag
p168
I0
sVposition
p169
(lp170
F1.3977153706010297
aF4.7075730124742146
aF22.998683345808992
asVmomentum
p171
(lp172
F0
aF0
aF0
asa(dp173
Vmagmom
p174
F0
sVindex
p175
I14
sVsymbol
p176
VPd
p177
sVcharge
p178
F0
sVtag
p179
I0
sVposition
p180
(lp181
F1.3977153706010279
aF2.4251133700624727
aF24.612626036742959
asVmomentum
p182
(lp183
F0
aF0
aF0
asa(dp184
Vmagmom
p185
F0
sVindex
p186
I15
sVsymbol
p187
VPd
p188
sVcharge
p189
F0
sVtag
p190
I0
sVposition
p191
(lp192
F1.3977153706010279
aF2.4251133700624745
aF19.770797963941067
asVmomentum
p193
(lp194
F0
aF0
aF0
asasVcell
p195
(lp196
(lp197
F2.7954307412020598
aF2.2204460492503131e-16
aF-9.9920072216264089e-16
aa(lp198
F8.8817841970012523e-16
aF6.8473789272352228
aF-2.2204460492503131e-16
aa(lp199
F-1.7763568394002505e-15
aF1.7763568394002505e-15
aF38.734624582415151
aasVmass
p200
F1702.7200000000003
sVpbc
p201
(lp202
I01
aI01
aI01
asVspacegroup
p203
VP2_1/m (11)
p204
sVconstraints
p205
(lp206
(dp207
Vname
p208
VFixAtoms
p209
sVkwargs
p210
(dp211
Vindices
p212
(lp213
I0
aI1
aI2
aI3
aI4
aI5
aI6
aI7
aI9
aI10
aI12
aI15
assasaa(lp214
S'results'
p215
ag2
((ltRp216
aa(lp217
S'user'
p218
aS'ktran'
p219
aa(lp220
S'inserted-hash'
p221
aS'45e4ac92d1f64f2b7adc8d8f4792f69bf79302c9'
p222
aa(lp223
S'ctime'
p224
acdatetime
datetime
p225
(S'\x07\xe1\x03\x1f\x13/\x1e\x07\xb5\xd3'
tRp226
aa(lp227
S'mtime'
p228
ag225
(S'\x07\xe1\x03\x1f\x13/\x1e\x07\xb5\xf7'
tRp229
aa(lp230
S'tags'
p231
a(dp232
S'get_slab_settings'
p233
g2
((lp234
(lp235
S'max_broken_bonds'
p236
aI0
aa(lp237
S'bonds'
p238
aNaa(lp239
S'tol'
p240
aF0.29999999999999999
aa(lp241
S'symmetrize'
p242
aI00
aatRp243
sS'relaxed'
p244
I00
sS'mpid'
p245
Vmp-2
p246
sS'shift'
p247
I0
sS'slab_generate_settings'
p248
g2
((lp249
(lp250
S'primitive'
p251
aI01
aa(lp252
S'min_vacuum_size'
p253
aF20
aa(lp254
S'lll_reduce'
p255
aI00
aa(lp256
S'max_normal_search'
p257
aI1
aa(lp258
S'min_slab_size'
p259
aF7
aa(lp260
S'center_slab'
p261
aI01
aatRp262
sS'miller'
p263
(I2
I1
I1
tp264
sS'top'
p265
I01
sS'type'
p266
S'slab'
p267
sS'num_slab_atoms'
p268
I16
saatRp269
a.