(lp1
ccollections
OrderedDict
p2
((lp3
(lp4
S'atoms'
p5
a(dp6
Vinfo
p7
(dp8
sVvolume
p9
F252.44788107932138
sVnatoms
p10
I20
sVsymbol_counts
p11
(dp12
VCu
p13
I16
sVPd
p14
I4
ssVchemical_symbols
p15
(lp16
VPd
p17
aVCu
p18
asVatoms
p19
(lp20
(dp21
Vmagmom
p22
F0
sVindex
p23
I0
sVsymbol
p24
VCu
p25
sVcharge
p26
F0
sVtag
p27
I0
sVposition
p28
(lp29
F0
aF0
aF0
asVmomentum
p30
(lp31
F0
aF0
aF0
asa(dp32
Vmagmom
p33
F0
sVindex
p34
I1
sVsymbol
p35
VCu
p36
sVcharge
p37
F0
sVtag
p38
I0
sVposition
p39
(lp40
F0
aF0
aF3.61685393
asVmomentum
p41
(lp42
F0
aF0
aF0
asa(dp43
Vmagmom
p44
F0
sVindex
p45
I2
sVsymbol
p46
VCu
p47
sVcharge
p48
F0
sVtag
p49
I0
sVposition
p50
(lp51
F2.9537656600000002
aF2.9537568099999998
aF1.808426965
asVmomentum
p52
(lp53
F0
aF0
aF0
asa(dp54
Vmagmom
p55
F0
sVindex
p56
I3
sVsymbol
p57
VCu
p58
sVcharge
p59
F0
sVtag
p60
I0
sVposition
p61
(lp62
F2.9537656600000002
aF2.9537568099999998
aF5.4252808950000002
asVmomentum
p63
(lp64
F0
aF0
aF0
asa(dp65
Vmagmom
p66
F0
sVindex
p67
I4
sVsymbol
p68
VCu
p69
sVcharge
p70
F0
sVtag
p71
I0
sVposition
p72
(lp73
F1.1357559000675983
aF3.5677569953345949
aF0
asVmomentum
p74
(lp75
F0
aF0
aF0
asa(dp76
Vmagmom
p77
F0
sVindex
p78
I5
sVsymbol
p79
VCu
p80
sVcharge
p81
F0
sVtag
p82
I0
sVposition
p83
(lp84
F2.3397654746654051
aF1.1357470500675984
aF3.61685393
asVmomentum
p85
(lp86
F0
aF0
aF0
asa(dp87
Vmagmom
p88
F0
sVindex
p89
I6
sVsymbol
p90
VCu
p91
sVcharge
p92
F0
sVtag
p93
I0
sVposition
p94
(lp95
F3.5677658453345948
aF4.7717665699324021
aF3.61685393
asVmomentum
p96
(lp97
F0
aF0
aF0
asa(dp98
Vmagmom
p99
F0
sVindex
p100
I7
sVsymbol
p101
VCu
p102
sVcharge
p103
F0
sVtag
p104
I0
sVposition
p105
(lp106
F4.7717754199324016
aF2.3397566246654051
aF0
asVmomentum
p107
(lp108
F0
aF0
aF0
asa(dp109
Vmagmom
p110
F0
sVindex
p111
I8
sVsymbol
p112
VCu
p113
sVcharge
p114
F0
sVtag
p115
I0
sVposition
p116
(lp117
F0.5715889246531255
aF1.7555868057843955
aF1.8029828041274856
asVmomentum
p118
(lp119
F0
aF0
aF0
asa(dp120
Vmagmom
p121
F0
sVindex
p122
I9
sVsymbol
p123
VCu
p124
sVcharge
p125
F0
sVtag
p126
I0
sVposition
p127
(lp128
F4.1519356642156042
aF0.57158007465312544
aF5.4198367341274851
asVmomentum
p129
(lp130
F0
aF0
aF0
asa(dp131
Vmagmom
p132
F0
sVindex
p133
I10
sVsymbol
p134
VCu
p135
sVcharge
p136
F0
sVtag
p137
I0
sVposition
p138
(lp139
F1.7555956557843955
aF5.335933545346875
aF5.4198367341274851
asVmomentum
p140
(lp141
F0
aF0
aF0
asa(dp142
Vmagmom
p143
F0
sVindex
p144
I11
sVsymbol
p145
VCu
p146
sVcharge
p147
F0
sVtag
p148
I0
sVposition
p149
(lp150
F5.3359423953468745
aF4.1519268142156038
aF1.8029828041274856
asVmomentum
p151
(lp152
F0
aF0
aF0
asa(dp153
Vmagmom
p154
F0
sVindex
p155
I12
sVsymbol
p156
VCu
p157
sVcharge
p158
F0
sVtag
p159
I0
sVposition
p160
(lp161
F5.3359423953468745
aF4.1519268142156038
aF5.4307250558725153
asVmomentum
p162
(lp163
F0
aF0
aF0
asa(dp164
Vmagmom
p165
F0
sVindex
p166
I13
sVsymbol
p167
VCu
p168
sVcharge
p169
F0
sVtag
p170
I0
sVposition
p171
(lp172
F1.7555956557843955
aF5.335933545346875
aF1.8138711258725144
asVmomentum
p173
(lp174
F0
aF0
aF0
asa(dp175
Vmagmom
p176
F0
sVindex
p177
I14
sVsymbol
p178
VCu
p179
sVcharge
p180
F0
sVtag
p181
I0
sVposition
p182
(lp183
F4.1519356642156042
aF0.57158007465312544
aF1.8138711258725144
asVmomentum
p184
(lp185
F0
aF0
aF0
asa(dp186
Vmagmom
p187
F0
sVindex
p188
I15
sVsymbol
p189
VCu
p190
sVcharge
p191
F0
sVtag
p192
I0
sVposition
p193
(lp194
F0.5715889246531255
aF1.7555868057843955
aF5.4307250558725153
asVmomentum
p195
(lp196
F0
aF0
aF0
asa(dp197
Vmagmom
p198
F0
sVindex
p199
I16
sVsymbol
p200
VPd
p201
sVcharge
p202
F0
sVtag
p203
I0
sVposition
p204
(lp205
F2.3494927596122532
aF1.226311304442969
aF0
asVmomentum
p206
(lp207
F0
aF0
aF0
asa(dp208
Vmagmom
p209
F0
sVindex
p210
I17
sVsymbol
p211
VPd
p212
sVcharge
p213
F0
sVtag
p214
I0
sVposition
p215
(lp216
F4.6812111655570305
aF2.3494839096122533
aF3.61685393
asVmomentum
p217
(lp218
F0
aF0
aF0
asa(dp219
Vmagmom
p220
F0
sVindex
p221
I18
sVsymbol
p222
VPd
p223
sVcharge
p224
F0
sVtag
p225
I0
sVposition
p226
(lp227
F1.2263201544429689
aF3.5580297103877467
aF3.61685393
asVmomentum
p228
(lp229
F0
aF0
aF0
asa(dp230
Vmagmom
p231
F0
sVindex
p232
I19
sVsymbol
p233
VPd
p234
sVcharge
p235
F0
sVtag
p236
I0
sVposition
p237
(lp238
F3.5580385603877467
aF4.681202315557031
aF0
asVmomentum
p239
(lp240
F0
aF0
aF0
asasVcell
p241
(lp242
(lp243
F5.90752247
aF-8.85e-06
aF0
aa(lp244
F8.85e-06
aF5.90752247
aF0
aa(lp245
F0
aF0
aF7.23370786
aasVmass
p246
F1442.4160000000006
sVpbc
p247
(lp248
I01
aI01
aI01
asVspacegroup
p249
VP4_2/m (84)
p250
sVconstraints
p251
(lp252
saa(lp253
S'results'
p254
ag2
((ltRp255
aa(lp256
S'user'
p257
aS'ktran'
p258
aa(lp259
S'inserted-hash'
p260
aS'5015ec6ff5fc43cd7bc9eb1b953379787250f478'
p261
aa(lp262
S'ctime'
p263
acdatetime
datetime
p264
(S'\x07\xe1\x03\x1f\x13,:\x0b\xbe\xf3'
tRp265
aa(lp266
S'mtime'
p267
ag264
(S'\x07\xe1\x03\x1f\x13,:\x0b\xbf\x0b'
tRp268
aatRp269
a.