(lp1
ccollections
OrderedDict
p2
((lp3
(lp4
S'atoms'
p5
a(dp6
Vinfo
p7
(dp8
sVvolume
p9
F6461.386921398941
sVnatoms
p10
I168
sVsymbol_counts
p11
(dp12
VCu
p13
I126
sVPd
p14
I42
ssVchemical_symbols
p15
(lp16
VPd
p17
aVCu
p18
asVatoms
p19
(lp20
(dp21
Vmagmom
p22
F0
sVindex
p23
I0
sVsymbol
p24
VCu
p25
sVcharge
p26
F0
sVtag
p27
I0
sVposition
p28
(lp29
F3.690382069995545
aF6.5906906304591395
aF14.060140011646173
asVmomentum
p30
(lp31
F0
aF0
aF0
asa(dp32
Vmagmom
p33
F0
sVindex
p34
I1
sVsymbol
p35
VCu
p36
sVcharge
p37
F0
sVtag
p38
I0
sVposition
p39
(lp40
F3.6903820699955454
aF3.9544143782754846
aF16.696416263829832
asVmomentum
p41
(lp42
F0
aF0
aF0
asa(dp43
Vmagmom
p44
F0
sVindex
p45
I2
sVsymbol
p46
VCu
p47
sVcharge
p48
F0
sVtag
p49
I0
sVposition
p50
(lp51
F3.6903820699955454
aF1.3181381260918279
aF14.060140011646173
asVmomentum
p52
(lp53
F0
aF0
aF0
asa(dp54
Vmagmom
p55
F0
sVindex
p56
I3
sVsymbol
p57
VCu
p58
sVcharge
p59
F0
sVtag
p60
I0
sVposition
p61
(lp62
F23.98195740769934
aF5.2725525043673116
aF15.378278137738
asVmomentum
p63
(lp64
F0
aF0
aF0
asa(dp65
Vmagmom
p66
F0
sVindex
p67
I4
sVsymbol
p68
VCu
p69
sVcharge
p70
F0
sVtag
p71
I0
sVposition
p72
(lp73
F23.98195740769934
aF2.6362762521836549
aF12.742001885554345
asVmomentum
p74
(lp75
F0
aF0
aF0
asa(dp76
Vmagmom
p77
F0
sVindex
p78
I5
sVsymbol
p79
VCu
p80
sVcharge
p81
F0
sVtag
p82
I0
sVposition
p83
(lp84
F23.98195740769934
aF0
aF15.378278137738
asVmomentum
p85
(lp86
F0
aF0
aF0
asa(dp87
Vmagmom
p88
F0
sVindex
p89
I6
sVsymbol
p90
VCu
p91
sVcharge
p92
F0
sVtag
p93
I0
sVposition
p94
(lp95
F16.603984440664259
aF5.2725525043673116
aF12.742001885554345
asVmomentum
p96
(lp97
F0
aF0
aF0
asa(dp98
Vmagmom
p99
F0
sVindex
p100
I7
sVsymbol
p101
VCu
p102
sVcharge
p103
F0
sVtag
p104
I0
sVposition
p105
(lp106
F16.603984440664259
aF2.6362762521836549
aF15.378278137738002
asVmomentum
p107
(lp108
F0
aF0
aF0
asa(dp109
Vmagmom
p110
F0
sVindex
p111
I8
sVsymbol
p112
VCu
p113
sVcharge
p114
F0
sVtag
p115
I0
sVposition
p116
(lp117
F16.603984440664259
aF0
aF12.742001885554345
asVmomentum
p118
(lp119
F0
aF0
aF0
asa(dp120
Vmagmom
p121
F0
sVindex
p122
I9
sVsymbol
p123
VCu
p124
sVcharge
p125
F0
sVtag
p126
I0
sVposition
p127
(lp128
F20.290232434357062
aF5.2725525043673116
aF15.378278137738
asVmomentum
p129
(lp130
F0
aF0
aF0
asa(dp131
Vmagmom
p132
F0
sVindex
p133
I10
sVsymbol
p134
VCu
p135
sVcharge
p136
F0
sVtag
p137
I0
sVposition
p138
(lp139
F20.290232434357062
aF2.6362762521836549
aF12.742001885554345
asVmomentum
p140
(lp141
F0
aF0
aF0
asa(dp142
Vmagmom
p143
F0
sVindex
p144
I11
sVsymbol
p145
VCu
p146
sVcharge
p147
F0
sVtag
p148
I0
sVposition
p149
(lp150
F20.290232434357062
aF0
aF15.378278137738
asVmomentum
p151
(lp152
F0
aF0
aF0
asa(dp153
Vmagmom
p154
F0
sVindex
p155
I12
sVsymbol
p156
VCu
p157
sVcharge
p158
F0
sVtag
p159
I0
sVposition
p160
(lp161
F7.3787094978706183
aF6.5906906304591395
aF14.060140011646173
asVmomentum
p162
(lp163
F0
aF0
aF0
asa(dp164
Vmagmom
p165
F0
sVindex
p166
I13
sVsymbol
p167
VCu
p168
sVcharge
p169
F0
sVtag
p170
I0
sVposition
p171
(lp172
F7.3787094978706174
aF3.9544143782754846
aF16.696416263829832
asVmomentum
p173
(lp174
F0
aF0
aF0
asa(dp175
Vmagmom
p176
F0
sVindex
p177
I14
sVsymbol
p178
VCu
p179
sVcharge
p180
F0
sVtag
p181
I0
sVposition
p182
(lp183
F7.3787094978706183
aF1.3181381260918279
aF14.060140011646173
asVmomentum
p184
(lp185
F0
aF0
aF0
asa(dp186
Vmagmom
p187
F0
sVindex
p188
I15
sVsymbol
p189
VCu
p190
sVcharge
p191
F0
sVtag
p192
I0
sVposition
p193
(lp194
F18.446354862132637
aF3.9544143782754837
aF14.060140011646173
asVmomentum
p195
(lp196
F0
aF0
aF0
asa(dp197
Vmagmom
p198
F0
sVindex
p199
I16
sVsymbol
p200
VCu
p201
sVcharge
p202
F0
sVtag
p203
I0
sVposition
p204
(lp205
F18.446354862132637
aF1.318138126091827
aF11.423863759462517
asVmomentum
p206
(lp207
F0
aF0
aF0
asa(dp208
Vmagmom
p209
F0
sVindex
p210
I17
sVsymbol
p211
VCu
p212
sVcharge
p213
F0
sVtag
p214
I0
sVposition
p215
(lp216
F18.446354862132637
aF6.5906906304591422
aF16.696416263829832
asVmomentum
p217
(lp218
F0
aF0
aF0
asa(dp219
Vmagmom
p220
F0
sVindex
p221
I18
sVsymbol
p222
VCu
p223
sVcharge
p224
F0
sVtag
p225
I0
sVposition
p226
(lp227
F22.13468229000771
aF6.5906906304591395
aF14.060140011646173
asVmomentum
p228
(lp229
F0
aF0
aF0
asa(dp230
Vmagmom
p231
F0
sVindex
p232
I19
sVsymbol
p233
VCu
p234
sVcharge
p235
F0
sVtag
p236
I0
sVposition
p237
(lp238
F22.13468229000771
aF3.9544143782754846
aF16.696416263829832
asVmomentum
p239
(lp240
F0
aF0
aF0
asa(dp241
Vmagmom
p242
F0
sVindex
p243
I20
sVsymbol
p244
VCu
p245
sVcharge
p246
F0
sVtag
p247
I0
sVposition
p248
(lp249
F22.13468229000771
aF1.3181381260918279
aF14.060140011646173
asVmomentum
p250
(lp251
F0
aF0
aF0
asa(dp252
Vmagmom
p253
F0
sVindex
p254
I21
sVsymbol
p255
VCu
p256
sVcharge
p257
F0
sVtag
p258
I0
sVposition
p259
(lp260
F1.8431069523039165
aF5.2725525043673116
aF15.378278137738
asVmomentum
p261
(lp262
F0
aF0
aF0
asa(dp263
Vmagmom
p264
F0
sVindex
p265
I22
sVsymbol
p266
VCu
p267
sVcharge
p268
F0
sVtag
p269
I0
sVposition
p270
(lp271
F1.8431069523039165
aF2.6362762521836549
aF12.742001885554345
asVmomentum
p272
(lp273
F0
aF0
aF0
asa(dp274
Vmagmom
p275
F0
sVindex
p276
I23
sVsymbol
p277
VCu
p278
sVcharge
p279
F0
sVtag
p280
I0
sVposition
p281
(lp282
F1.8431069523039165
aF0
aF15.378278137738
asVmomentum
p283
(lp284
F0
aF0
aF0
asa(dp285
Vmagmom
p286
F0
sVindex
p287
I24
sVsymbol
p288
VCu
p289
sVcharge
p290
F0
sVtag
p291
I0
sVposition
p292
(lp293
F14.757020514998164
aF6.5906906304591395
aF14.060140011646173
asVmomentum
p294
(lp295
F0
aF0
aF0
asa(dp296
Vmagmom
p297
F0
sVindex
p298
I25
sVsymbol
p299
VCu
p300
sVcharge
p301
F0
sVtag
p302
I0
sVposition
p303
(lp304
F14.757020514998164
aF3.9544143782754846
aF16.696416263829832
asVmomentum
p305
(lp306
F0
aF0
aF0
asa(dp307
Vmagmom
p308
F0
sVindex
p309
I26
sVsymbol
p310
VCu
p311
sVcharge
p312
F0
sVtag
p313
I0
sVposition
p314
(lp315
F14.757020514998164
aF1.3181381260918279
aF14.060140011646173
asVmomentum
p316
(lp317
F0
aF0
aF0
asa(dp318
Vmagmom
p319
F0
sVindex
p320
I27
sVsymbol
p321
VCu
p322
sVcharge
p323
F0
sVtag
p324
I0
sVposition
p325
(lp326
F3.690382069995545
aF3.9544143782754837
aF14.060140011646173
asVmomentum
p327
(lp328
F0
aF0
aF0
asa(dp329
Vmagmom
p330
F0
sVindex
p331
I28
sVsymbol
p332
VCu
p333
sVcharge
p334
F0
sVtag
p335
I0
sVposition
p336
(lp337
F3.6903820699955454
aF1.318138126091827
aF11.423863759462517
asVmomentum
p338
(lp339
F0
aF0
aF0
asa(dp340
Vmagmom
p341
F0
sVindex
p342
I29
sVsymbol
p343
VCu
p344
sVcharge
p345
F0
sVtag
p346
I0
sVposition
p347
(lp348
F3.6903820699955454
aF6.5906906304591422
aF16.696416263829832
asVmomentum
p349
(lp350
F0
aF0
aF0
asa(dp351
Vmagmom
p352
F0
sVindex
p353
I30
sVsymbol
p354
VCu
p355
sVcharge
p356
F0
sVtag
p357
I0
sVposition
p358
(lp359
F11.068043845005093
aF3.9544143782754837
aF14.060140011646173
asVmomentum
p360
(lp361
F0
aF0
aF0
asa(dp362
Vmagmom
p363
F0
sVindex
p364
I31
sVsymbol
p365
VCu
p366
sVcharge
p367
F0
sVtag
p368
I0
sVposition
p369
(lp370
F11.068043845005093
aF1.318138126091827
aF11.423863759462517
asVmomentum
p371
(lp372
F0
aF0
aF0
asa(dp373
Vmagmom
p374
F0
sVindex
p375
I32
sVsymbol
p376
VCu
p377
sVcharge
p378
F0
sVtag
p379
I0
sVposition
p380
(lp381
F11.068043845005093
aF6.5906906304591422
aF16.696416263829832
asVmomentum
p382
(lp383
F0
aF0
aF0
asa(dp384
Vmagmom
p385
F0
sVindex
p386
I33
sVsymbol
p387
VCu
p388
sVcharge
p389
F0
sVtag
p390
I0
sVposition
p391
(lp392
F18.446354862132637
aF6.5906906304591395
aF14.060140011646173
asVmomentum
p393
(lp394
F0
aF0
aF0
asa(dp395
Vmagmom
p396
F0
sVindex
p397
I34
sVsymbol
p398
VCu
p399
sVcharge
p400
F0
sVtag
p401
I0
sVposition
p402
(lp403
F18.446354862132637
aF3.9544143782754846
aF16.696416263829832
asVmomentum
p404
(lp405
F0
aF0
aF0
asa(dp406
Vmagmom
p407
F0
sVindex
p408
I35
sVsymbol
p409
VCu
p410
sVcharge
p411
F0
sVtag
p412
I0
sVposition
p413
(lp414
F18.446354862132637
aF1.3181381260918279
aF14.060140011646173
asVmomentum
p415
(lp416
F0
aF0
aF0
asa(dp417
Vmagmom
p418
F0
sVindex
p419
I36
sVsymbol
p420
VCu
p421
sVcharge
p422
F0
sVtag
p423
I0
sVposition
p424
(lp425
F22.13468229000771
aF3.9544143782754837
aF14.060140011646173
asVmomentum
p426
(lp427
F0
aF0
aF0
asa(dp428
Vmagmom
p429
F0
sVindex
p430
I37
sVsymbol
p431
VCu
p432
sVcharge
p433
F0
sVtag
p434
I0
sVposition
p435
(lp436
F22.13468229000771
aF1.318138126091827
aF11.423863759462517
asVmomentum
p437
(lp438
F0
aF0
aF0
asa(dp439
Vmagmom
p440
F0
sVindex
p441
I38
sVsymbol
p442
VCu
p443
sVcharge
p444
F0
sVtag
p445
I0
sVposition
p446
(lp447
F22.13468229000771
aF6.5906906304591422
aF16.696416263829832
asVmomentum
p448
(lp449
F0
aF0
aF0
asa(dp450
Vmagmom
p451
F0
sVindex
p452
I39
sVsymbol
p453
VCu
p454
sVcharge
p455
F0
sVtag
p456
I0
sVposition
p457
(lp458
F14.757020514998164
aF3.9544143782754837
aF14.060140011646173
asVmomentum
p459
(lp460
F0
aF0
aF0
asa(dp461
Vmagmom
p462
F0
sVindex
p463
I40
sVsymbol
p464
VCu
p465
sVcharge
p466
F0
sVtag
p467
I0
sVposition
p468
(lp469
F14.757020514998164
aF1.318138126091827
aF11.423863759462517
asVmomentum
p470
(lp471
F0
aF0
aF0
asa(dp472
Vmagmom
p473
F0
sVindex
p474
I41
sVsymbol
p475
VCu
p476
sVcharge
p477
F0
sVtag
p478
I0
sVposition
p479
(lp480
F14.757020514998164
aF6.5906906304591422
aF16.696416263829832
asVmomentum
p481
(lp482
F0
aF0
aF0
asa(dp483
Vmagmom
p484
F0
sVindex
p485
I42
sVsymbol
p486
VCu
p487
sVcharge
p488
F0
sVtag
p489
I0
sVposition
p490
(lp491
F9.2210799193389974
aF5.2725525043673116
aF12.742001885554345
asVmomentum
p492
(lp493
F0
aF0
aF0
asa(dp494
Vmagmom
p495
F0
sVindex
p496
I43
sVsymbol
p497
VCu
p498
sVcharge
p499
F0
sVtag
p500
I0
sVposition
p501
(lp502
F9.2210799193389974
aF2.6362762521836549
aF15.378278137738002
asVmomentum
p503
(lp504
F0
aF0
aF0
asa(dp505
Vmagmom
p506
F0
sVindex
p507
I44
sVsymbol
p508
VCu
p509
sVcharge
p510
F0
sVtag
p511
I0
sVposition
p512
(lp513
F9.2210799193389974
aF0
aF12.742001885554345
asVmomentum
p514
(lp515
F0
aF0
aF0
asa(dp516
Vmagmom
p517
F0
sVindex
p518
I45
sVsymbol
p519
VCu
p520
sVcharge
p521
F0
sVtag
p522
I0
sVposition
p523
(lp524
F11.068043845005093
aF6.5906906304591395
aF14.060140011646173
asVmomentum
p525
(lp526
F0
aF0
aF0
asa(dp527
Vmagmom
p528
F0
sVindex
p529
I46
sVsymbol
p530
VCu
p531
sVcharge
p532
F0
sVtag
p533
I0
sVposition
p534
(lp535
F11.068043845005093
aF3.9544143782754846
aF16.696416263829832
asVmomentum
p536
(lp537
F0
aF0
aF0
asa(dp538
Vmagmom
p539
F0
sVindex
p540
I47
sVsymbol
p541
VCu
p542
sVcharge
p543
F0
sVtag
p544
I0
sVposition
p545
(lp546
F11.068043845005093
aF1.3181381260918279
aF14.060140011646173
asVmomentum
p547
(lp548
F0
aF0
aF0
asa(dp549
Vmagmom
p550
F0
sVindex
p551
I48
sVsymbol
p552
VCu
p553
sVcharge
p554
F0
sVtag
p555
I0
sVposition
p556
(lp557
F5.5348319256461949
aF5.2725525043673116
aF15.378278137738
asVmomentum
p558
(lp559
F0
aF0
aF0
asa(dp560
Vmagmom
p561
F0
sVindex
p562
I49
sVsymbol
p563
VCu
p564
sVcharge
p565
F0
sVtag
p566
I0
sVposition
p567
(lp568
F5.5348319256461949
aF2.6362762521836549
aF12.742001885554345
asVmomentum
p569
(lp570
F0
aF0
aF0
asa(dp571
Vmagmom
p572
F0
sVindex
p573
I50
sVsymbol
p574
VCu
p575
sVcharge
p576
F0
sVtag
p577
I0
sVposition
p578
(lp579
F5.5348319256461949
aF0
aF15.378278137738
asVmomentum
p580
(lp581
F0
aF0
aF0
asa(dp582
Vmagmom
p583
F0
sVindex
p584
I51
sVsymbol
p585
VCu
p586
sVcharge
p587
F0
sVtag
p588
I0
sVposition
p589
(lp590
F7.3787094978706183
aF3.9544143782754837
aF14.060140011646173
asVmomentum
p591
(lp592
F0
aF0
aF0
asa(dp593
Vmagmom
p594
F0
sVindex
p595
I52
sVsymbol
p596
VCu
p597
sVcharge
p598
F0
sVtag
p599
I0
sVposition
p600
(lp601
F7.3787094978706183
aF1.318138126091827
aF11.423863759462517
asVmomentum
p602
(lp603
F0
aF0
aF0
asa(dp604
Vmagmom
p605
F0
sVindex
p606
I53
sVsymbol
p607
VCu
p608
sVcharge
p609
F0
sVtag
p610
I0
sVposition
p611
(lp612
F7.3787094978706174
aF6.5906906304591422
aF16.696416263829832
asVmomentum
p613
(lp614
F0
aF0
aF0
asa(dp615
Vmagmom
p616
F0
sVindex
p617
I54
sVsymbol
p618
VCu
p619
sVcharge
p620
F0
sVtag
p621
I0
sVposition
p622
(lp623
F12.912532180001628
aF5.2725525043673116
aF12.742001885554345
asVmomentum
p624
(lp625
F0
aF0
aF0
asa(dp626
Vmagmom
p627
F0
sVindex
p628
I55
sVsymbol
p629
VCu
p630
sVcharge
p631
F0
sVtag
p632
I0
sVposition
p633
(lp634
F12.912532180001628
aF2.6362762521836549
aF15.378278137738002
asVmomentum
p635
(lp636
F0
aF0
aF0
asa(dp637
Vmagmom
p638
F0
sVindex
p639
I56
sVsymbol
p640
VCu
p641
sVcharge
p642
F0
sVtag
p643
I0
sVposition
p644
(lp645
F12.912532180001628
aF0
aF12.742001885554345
asVmomentum
p646
(lp647
F0
aF0
aF0
asa(dp648
Vmagmom
p649
F0
sVindex
p650
I57
sVsymbol
p651
VCu
p652
sVcharge
p653
F0
sVtag
p654
I0
sVposition
p655
(lp656
F0
aF3.9544143782754837
aF14.060140011646173
asVmomentum
p657
(lp658
F0
aF0
aF0
asa(dp659
Vmagmom
p660
F0
sVindex
p661
I58
sVsymbol
p662
VCu
p663
sVcharge
p664
F0
sVtag
p665
I0
sVposition
p666
(lp667
F1.9721522630525295e-31
aF1.318138126091827
aF11.423863759462517
asVmomentum
p668
(lp669
F0
aF0
aF0
asa(dp670
Vmagmom
p671
F0
sVindex
p672
I59
sVsymbol
p673
VCu
p674
sVcharge
p675
F0
sVtag
p676
I0
sVposition
p677
(lp678
F1.9721522630525295e-31
aF6.5906906304591422
aF16.696416263829832
asVmomentum
p679
(lp680
F0
aF0
aF0
asa(dp681
Vmagmom
p682
F0
sVindex
p683
I60
sVsymbol
p684
VCu
p685
sVcharge
p686
F0
sVtag
p687
I0
sVposition
p688
(lp689
F1.9721522630525295e-31
aF6.5906906304591395
aF14.060140011646173
asVmomentum
p690
(lp691
F0
aF0
aF0
asa(dp692
Vmagmom
p693
F0
sVindex
p694
I61
sVsymbol
p695
VCu
p696
sVcharge
p697
F0
sVtag
p698
I0
sVposition
p699
(lp700
F1.9721522630525295e-31
aF3.9544143782754846
aF16.696416263829832
asVmomentum
p701
(lp702
F0
aF0
aF0
asa(dp703
Vmagmom
p704
F0
sVindex
p705
I62
sVsymbol
p706
VCu
p707
sVcharge
p708
F0
sVtag
p709
I0
sVposition
p710
(lp711
F0
aF1.3181381260918279
aF14.060140011646173
asVmomentum
p712
(lp713
F0
aF0
aF0
asa(dp714
Vmagmom
p715
F0
sVindex
p716
I63
sVsymbol
p717
VPd
p718
sVcharge
p719
F0
sVtag
p720
I0
sVposition
p721
(lp722
F9.2210871503570164
aF5.2725525043673116
aF15.378278137738
asVmomentum
p723
(lp724
F0
aF0
aF0
asa(dp725
Vmagmom
p726
F0
sVindex
p727
I64
sVsymbol
p728
VPd
p729
sVcharge
p730
F0
sVtag
p731
I0
sVposition
p732
(lp733
F9.2210871503570164
aF2.6362762521836549
aF12.742001885554345
asVmomentum
p734
(lp735
F0
aF0
aF0
asa(dp736
Vmagmom
p737
F0
sVindex
p738
I65
sVsymbol
p739
VPd
p740
sVcharge
p741
F0
sVtag
p742
I0
sVposition
p743
(lp744
F9.2210871503570164
aF0
aF15.378278137738
asVmomentum
p745
(lp746
F0
aF0
aF0
asa(dp747
Vmagmom
p748
F0
sVindex
p749
I66
sVsymbol
p750
VPd
p751
sVcharge
p752
F0
sVtag
p753
I0
sVposition
p754
(lp755
F23.978686921548782
aF5.2725525043673116
aF12.742001885554345
asVmomentum
p756
(lp757
F0
aF0
aF0
asa(dp758
Vmagmom
p759
F0
sVindex
p760
I67
sVsymbol
p761
VPd
p762
sVcharge
p763
F0
sVtag
p764
I0
sVposition
p765
(lp766
F23.978686921548782
aF2.6362762521836549
aF15.378278137738002
asVmomentum
p767
(lp768
F0
aF0
aF0
asa(dp769
Vmagmom
p770
F0
sVindex
p771
I68
sVsymbol
p772
VPd
p773
sVcharge
p774
F0
sVtag
p775
I0
sVposition
p776
(lp777
F23.978686921548782
aF0
aF12.742001885554345
asVmomentum
p778
(lp779
F0
aF0
aF0
asa(dp780
Vmagmom
p781
F0
sVindex
p782
I69
sVsymbol
p783
VPd
p784
sVcharge
p785
F0
sVtag
p786
I0
sVposition
p787
(lp788
F16.603977209646239
aF5.2725525043673116
aF15.378278137738
asVmomentum
p789
(lp790
F0
aF0
aF0
asa(dp791
Vmagmom
p792
F0
sVindex
p793
I70
sVsymbol
p794
VPd
p795
sVcharge
p796
F0
sVtag
p797
I0
sVposition
p798
(lp799
F16.603977209646239
aF2.6362762521836549
aF12.742001885554345
asVmomentum
p800
(lp801
F0
aF0
aF0
asa(dp802
Vmagmom
p803
F0
sVindex
p804
I71
sVsymbol
p805
VPd
p806
sVcharge
p807
F0
sVtag
p808
I0
sVposition
p809
(lp810
F16.603977209646239
aF0
aF15.378278137738
asVmomentum
p811
(lp812
F0
aF0
aF0
asa(dp813
Vmagmom
p814
F0
sVindex
p815
I72
sVsymbol
p816
VPd
p817
sVcharge
p818
F0
sVtag
p819
I0
sVposition
p820
(lp821
F20.288523848099004
aF5.2725525043673116
aF12.742001885554345
asVmomentum
p822
(lp823
F0
aF0
aF0
asa(dp824
Vmagmom
p825
F0
sVindex
p826
I73
sVsymbol
p827
VPd
p828
sVcharge
p829
F0
sVtag
p830
I0
sVposition
p831
(lp832
F20.288523848099
aF2.6362762521836549
aF15.378278137738002
asVmomentum
p833
(lp834
F0
aF0
aF0
asa(dp835
Vmagmom
p836
F0
sVindex
p837
I74
sVsymbol
p838
VPd
p839
sVcharge
p840
F0
sVtag
p841
I0
sVposition
p842
(lp843
F20.288523848099
aF0
aF12.742001885554345
asVmomentum
p844
(lp845
F0
aF0
aF0
asa(dp846
Vmagmom
p847
F0
sVindex
p848
I75
sVsymbol
p849
VPd
p850
sVcharge
p851
F0
sVtag
p852
I0
sVposition
p853
(lp854
F12.912532180001628
aF5.2725525043673116
aF15.378278137738
asVmomentum
p855
(lp856
F0
aF0
aF0
asa(dp857
Vmagmom
p858
F0
sVindex
p859
I76
sVsymbol
p860
VPd
p861
sVcharge
p862
F0
sVtag
p863
I0
sVposition
p864
(lp865
F12.912532180001628
aF2.6362762521836549
aF12.742001885554345
asVmomentum
p866
(lp867
F0
aF0
aF0
asa(dp868
Vmagmom
p869
F0
sVindex
p870
I77
sVsymbol
p871
VPd
p872
sVcharge
p873
F0
sVtag
p874
I0
sVposition
p875
(lp876
F12.912532180001628
aF0
aF15.378278137738
asVmomentum
p877
(lp878
F0
aF0
aF0
asa(dp879
Vmagmom
p880
F0
sVindex
p881
I78
sVsymbol
p882
VPd
p883
sVcharge
p884
F0
sVtag
p885
I0
sVposition
p886
(lp887
F1.8463774384544749
aF5.2725525043673116
aF12.742001885554345
asVmomentum
p888
(lp889
F0
aF0
aF0
asa(dp890
Vmagmom
p891
F0
sVindex
p892
I79
sVsymbol
p893
VPd
p894
sVcharge
p895
F0
sVtag
p896
I0
sVposition
p897
(lp898
F1.8463774384544749
aF2.6362762521836549
aF15.378278137738002
asVmomentum
p899
(lp900
F0
aF0
aF0
asa(dp901
Vmagmom
p902
F0
sVindex
p903
I80
sVsymbol
p904
VPd
p905
sVcharge
p906
F0
sVtag
p907
I0
sVposition
p908
(lp909
F1.8463774384544749
aF0
aF12.742001885554345
asVmomentum
p910
(lp911
F0
aF0
aF0
asa(dp912
Vmagmom
p913
F0
sVindex
p914
I81
sVsymbol
p915
VPd
p916
sVcharge
p917
F0
sVtag
p918
I0
sVposition
p919
(lp920
F5.5365405119042563
aF5.2725525043673116
aF12.742001885554345
asVmomentum
p921
(lp922
F0
aF0
aF0
asa(dp923
Vmagmom
p924
F0
sVindex
p925
I82
sVsymbol
p926
VPd
p927
sVcharge
p928
F0
sVtag
p929
I0
sVposition
p930
(lp931
F5.5365405119042563
aF2.6362762521836549
aF15.378278137738002
asVmomentum
p932
(lp933
F0
aF0
aF0
asa(dp934
Vmagmom
p935
F0
sVindex
p936
I83
sVsymbol
p937
VPd
p938
sVcharge
p939
F0
sVtag
p940
I0
sVposition
p941
(lp942
F5.5365405119042563
aF0
aF12.742001885554345
asVmomentum
p943
(lp944
F0
aF0
aF0
asa(dp945
Vmagmom
p946
F0
sVindex
p947
I84
sVsymbol
p948
VCu
p949
sVcharge
p950
F0
sVtag
p951
I0
sVposition
p952
(lp953
F3.690382069995545
aF6.5906906304591431
aF19.332692516013488
asVmomentum
p954
(lp955
F0
aF0
aF0
asa(dp956
Vmagmom
p957
F0
sVindex
p958
I85
sVsymbol
p959
VCu
p960
sVcharge
p961
F0
sVtag
p962
I0
sVposition
p963
(lp964
F3.6903820699955454
aF3.9544143782754837
aF21.968968768197144
asVmomentum
p965
(lp966
F0
aF0
aF0
asa(dp967
Vmagmom
p968
F0
sVindex
p969
I86
sVsymbol
p970
VCu
p971
sVcharge
p972
F0
sVtag
p973
I0
sVposition
p974
(lp975
F3.6903820699955454
aF1.3181381260918261
aF19.332692516013488
asVmomentum
p976
(lp977
F0
aF0
aF0
asa(dp978
Vmagmom
p979
F0
sVindex
p980
I87
sVsymbol
p981
VCu
p982
sVcharge
p983
F0
sVtag
p984
I0
sVposition
p985
(lp986
F23.981957407699337
aF5.2725525043673125
aF20.650830642105312
asVmomentum
p987
(lp988
F0
aF0
aF0
asa(dp989
Vmagmom
p990
F0
sVindex
p991
I88
sVsymbol
p992
VCu
p993
sVcharge
p994
F0
sVtag
p995
I0
sVposition
p996
(lp997
F23.98195740769934
aF2.6362762521836558
aF18.01455438992166
asVmomentum
p998
(lp999
F0
aF0
aF0
asa(dp1000
Vmagmom
p1001
F0
sVindex
p1002
I89
sVsymbol
p1003
VCu
p1004
sVcharge
p1005
F0
sVtag
p1006
I0
sVposition
p1007
(lp1008
F23.98195740769934
aF0
aF20.650830642105316
asVmomentum
p1009
(lp1010
F0
aF0
aF0
asa(dp1011
Vmagmom
p1012
F0
sVindex
p1013
I90
sVsymbol
p1014
VCu
p1015
sVcharge
p1016
F0
sVtag
p1017
I0
sVposition
p1018
(lp1019
F16.603984440664259
aF5.2725525043673107
aF18.014554389921656
asVmomentum
p1020
(lp1021
F0
aF0
aF0
asa(dp1022
Vmagmom
p1023
F0
sVindex
p1024
I91
sVsymbol
p1025
VCu
p1026
sVcharge
p1027
F0
sVtag
p1028
I0
sVposition
p1029
(lp1030
F16.603984440664256
aF2.636276252183654
aF20.650830642105312
asVmomentum
p1031
(lp1032
F0
aF0
aF0
asa(dp1033
Vmagmom
p1034
F0
sVindex
p1035
I92
sVsymbol
p1036
VCu
p1037
sVcharge
p1038
F0
sVtag
p1039
I0
sVposition
p1040
(lp1041
F16.603984440664259
aF0
aF18.014554389921656
asVmomentum
p1042
(lp1043
F0
aF0
aF0
asa(dp1044
Vmagmom
p1045
F0
sVindex
p1046
I93
sVsymbol
p1047
VCu
p1048
sVcharge
p1049
F0
sVtag
p1050
I0
sVposition
p1051
(lp1052
F20.290232434357058
aF5.2725525043673125
aF20.650830642105312
asVmomentum
p1053
(lp1054
F0
aF0
aF0
asa(dp1055
Vmagmom
p1056
F0
sVindex
p1057
I94
sVsymbol
p1058
VCu
p1059
sVcharge
p1060
F0
sVtag
p1061
I0
sVposition
p1062
(lp1063
F20.290232434357062
aF2.6362762521836558
aF18.01455438992166
asVmomentum
p1064
(lp1065
F0
aF0
aF0
asa(dp1066
Vmagmom
p1067
F0
sVindex
p1068
I95
sVsymbol
p1069
VCu
p1070
sVcharge
p1071
F0
sVtag
p1072
I0
sVposition
p1073
(lp1074
F20.290232434357062
aF0
aF20.650830642105316
asVmomentum
p1075
(lp1076
F0
aF0
aF0
asa(dp1077
Vmagmom
p1078
F0
sVindex
p1079
I96
sVsymbol
p1080
VCu
p1081
sVcharge
p1082
F0
sVtag
p1083
I0
sVposition
p1084
(lp1085
F7.3787094978706183
aF6.5906906304591431
aF19.332692516013488
asVmomentum
p1086
(lp1087
F0
aF0
aF0
asa(dp1088
Vmagmom
p1089
F0
sVindex
p1090
I97
sVsymbol
p1091
VCu
p1092
sVcharge
p1093
F0
sVtag
p1094
I0
sVposition
p1095
(lp1096
F7.3787094978706183
aF3.9544143782754837
aF21.968968768197144
asVmomentum
p1097
(lp1098
F0
aF0
aF0
asa(dp1099
Vmagmom
p1100
F0
sVindex
p1101
I98
sVsymbol
p1102
VCu
p1103
sVcharge
p1104
F0
sVtag
p1105
I0
sVposition
p1106
(lp1107
F7.3787094978706183
aF1.3181381260918261
aF19.332692516013488
asVmomentum
p1108
(lp1109
F0
aF0
aF0
asa(dp1110
Vmagmom
p1111
F0
sVindex
p1112
I99
sVsymbol
p1113
VCu
p1114
sVcharge
p1115
F0
sVtag
p1116
I0
sVposition
p1117
(lp1118
F18.446354862132637
aF3.9544143782754828
aF19.332692516013484
asVmomentum
p1119
(lp1120
F0
aF0
aF0
asa(dp1121
Vmagmom
p1122
F0
sVindex
p1123
I100
sVsymbol
p1124
VCu
p1125
sVcharge
p1126
F0
sVtag
p1127
I0
sVposition
p1128
(lp1129
F18.446354862132637
aF1.318138126091827
aF16.696416263829832
asVmomentum
p1130
(lp1131
F0
aF0
aF0
asa(dp1132
Vmagmom
p1133
F0
sVindex
p1134
I101
sVsymbol
p1135
VCu
p1136
sVcharge
p1137
F0
sVtag
p1138
I0
sVposition
p1139
(lp1140
F18.446354862132633
aF6.5906906304591413
aF21.968968768197144
asVmomentum
p1141
(lp1142
F0
aF0
aF0
asa(dp1143
Vmagmom
p1144
F0
sVindex
p1145
I102
sVsymbol
p1146
VCu
p1147
sVcharge
p1148
F0
sVtag
p1149
I0
sVposition
p1150
(lp1151
F22.13468229000771
aF6.5906906304591431
aF19.332692516013488
asVmomentum
p1152
(lp1153
F0
aF0
aF0
asa(dp1154
Vmagmom
p1155
F0
sVindex
p1156
I103
sVsymbol
p1157
VCu
p1158
sVcharge
p1159
F0
sVtag
p1160
I0
sVposition
p1161
(lp1162
F22.13468229000771
aF3.9544143782754837
aF21.968968768197144
asVmomentum
p1163
(lp1164
F0
aF0
aF0
asa(dp1165
Vmagmom
p1166
F0
sVindex
p1167
I104
sVsymbol
p1168
VCu
p1169
sVcharge
p1170
F0
sVtag
p1171
I0
sVposition
p1172
(lp1173
F22.13468229000771
aF1.3181381260918261
aF19.332692516013488
asVmomentum
p1174
(lp1175
F0
aF0
aF0
asa(dp1176
Vmagmom
p1177
F0
sVindex
p1178
I105
sVsymbol
p1179
VCu
p1180
sVcharge
p1181
F0
sVtag
p1182
I0
sVposition
p1183
(lp1184
F1.8431069523039165
aF5.2725525043673125
aF20.650830642105312
asVmomentum
p1185
(lp1186
F0
aF0
aF0
asa(dp1187
Vmagmom
p1188
F0
sVindex
p1189
I106
sVsymbol
p1190
VCu
p1191
sVcharge
p1192
F0
sVtag
p1193
I0
sVposition
p1194
(lp1195
F1.8431069523039165
aF2.6362762521836558
aF18.01455438992166
asVmomentum
p1196
(lp1197
F0
aF0
aF0
asa(dp1198
Vmagmom
p1199
F0
sVindex
p1200
I107
sVsymbol
p1201
VCu
p1202
sVcharge
p1203
F0
sVtag
p1204
I0
sVposition
p1205
(lp1206
F1.8431069523039165
aF0
aF20.650830642105316
asVmomentum
p1207
(lp1208
F0
aF0
aF0
asa(dp1209
Vmagmom
p1210
F0
sVindex
p1211
I108
sVsymbol
p1212
VCu
p1213
sVcharge
p1214
F0
sVtag
p1215
I0
sVposition
p1216
(lp1217
F14.757020514998164
aF6.5906906304591431
aF19.332692516013488
asVmomentum
p1218
(lp1219
F0
aF0
aF0
asa(dp1220
Vmagmom
p1221
F0
sVindex
p1222
I109
sVsymbol
p1223
VCu
p1224
sVcharge
p1225
F0
sVtag
p1226
I0
sVposition
p1227
(lp1228
F14.757020514998164
aF3.9544143782754837
aF21.968968768197144
asVmomentum
p1229
(lp1230
F0
aF0
aF0
asa(dp1231
Vmagmom
p1232
F0
sVindex
p1233
I110
sVsymbol
p1234
VCu
p1235
sVcharge
p1236
F0
sVtag
p1237
I0
sVposition
p1238
(lp1239
F14.757020514998164
aF1.3181381260918261
aF19.332692516013488
asVmomentum
p1240
(lp1241
F0
aF0
aF0
asa(dp1242
Vmagmom
p1243
F0
sVindex
p1244
I111
sVsymbol
p1245
VCu
p1246
sVcharge
p1247
F0
sVtag
p1248
I0
sVposition
p1249
(lp1250
F3.6903820699955454
aF3.9544143782754828
aF19.332692516013484
asVmomentum
p1251
(lp1252
F0
aF0
aF0
asa(dp1253
Vmagmom
p1254
F0
sVindex
p1255
I112
sVsymbol
p1256
VCu
p1257
sVcharge
p1258
F0
sVtag
p1259
I0
sVposition
p1260
(lp1261
F3.6903820699955454
aF1.318138126091827
aF16.696416263829832
asVmomentum
p1262
(lp1263
F0
aF0
aF0
asa(dp1264
Vmagmom
p1265
F0
sVindex
p1266
I113
sVsymbol
p1267
VCu
p1268
sVcharge
p1269
F0
sVtag
p1270
I0
sVposition
p1271
(lp1272
F3.6903820699955454
aF6.5906906304591413
aF21.968968768197144
asVmomentum
p1273
(lp1274
F0
aF0
aF0
asa(dp1275
Vmagmom
p1276
F0
sVindex
p1277
I114
sVsymbol
p1278
VCu
p1279
sVcharge
p1280
F0
sVtag
p1281
I0
sVposition
p1282
(lp1283
F11.068043845005093
aF3.9544143782754828
aF19.332692516013484
asVmomentum
p1284
(lp1285
F0
aF0
aF0
asa(dp1286
Vmagmom
p1287
F0
sVindex
p1288
I115
sVsymbol
p1289
VCu
p1290
sVcharge
p1291
F0
sVtag
p1292
I0
sVposition
p1293
(lp1294
F11.068043845005093
aF1.318138126091827
aF16.696416263829832
asVmomentum
p1295
(lp1296
F0
aF0
aF0
asa(dp1297
Vmagmom
p1298
F0
sVindex
p1299
I116
sVsymbol
p1300
VCu
p1301
sVcharge
p1302
F0
sVtag
p1303
I0
sVposition
p1304
(lp1305
F11.068043845005093
aF6.5906906304591413
aF21.968968768197144
asVmomentum
p1306
(lp1307
F0
aF0
aF0
asa(dp1308
Vmagmom
p1309
F0
sVindex
p1310
I117
sVsymbol
p1311
VCu
p1312
sVcharge
p1313
F0
sVtag
p1314
I0
sVposition
p1315
(lp1316
F18.446354862132637
aF6.5906906304591431
aF19.332692516013488
asVmomentum
p1317
(lp1318
F0
aF0
aF0
asa(dp1319
Vmagmom
p1320
F0
sVindex
p1321
I118
sVsymbol
p1322
VCu
p1323
sVcharge
p1324
F0
sVtag
p1325
I0
sVposition
p1326
(lp1327
F18.446354862132637
aF3.9544143782754837
aF21.968968768197144
asVmomentum
p1328
(lp1329
F0
aF0
aF0
asa(dp1330
Vmagmom
p1331
F0
sVindex
p1332
I119
sVsymbol
p1333
VCu
p1334
sVcharge
p1335
F0
sVtag
p1336
I0
sVposition
p1337
(lp1338
F18.446354862132637
aF1.3181381260918261
aF19.332692516013488
asVmomentum
p1339
(lp1340
F0
aF0
aF0
asa(dp1341
Vmagmom
p1342
F0
sVindex
p1343
I120
sVsymbol
p1344
VCu
p1345
sVcharge
p1346
F0
sVtag
p1347
I0
sVposition
p1348
(lp1349
F22.13468229000771
aF3.9544143782754828
aF19.332692516013484
asVmomentum
p1350
(lp1351
F0
aF0
aF0
asa(dp1352
Vmagmom
p1353
F0
sVindex
p1354
I121
sVsymbol
p1355
VCu
p1356
sVcharge
p1357
F0
sVtag
p1358
I0
sVposition
p1359
(lp1360
F22.13468229000771
aF1.318138126091827
aF16.696416263829832
asVmomentum
p1361
(lp1362
F0
aF0
aF0
asa(dp1363
Vmagmom
p1364
F0
sVindex
p1365
I122
sVsymbol
p1366
VCu
p1367
sVcharge
p1368
F0
sVtag
p1369
I0
sVposition
p1370
(lp1371
F22.134682290007706
aF6.5906906304591413
aF21.968968768197144
asVmomentum
p1372
(lp1373
F0
aF0
aF0
asa(dp1374
Vmagmom
p1375
F0
sVindex
p1376
I123
sVsymbol
p1377
VCu
p1378
sVcharge
p1379
F0
sVtag
p1380
I0
sVposition
p1381
(lp1382
F14.757020514998164
aF3.9544143782754828
aF19.332692516013484
asVmomentum
p1383
(lp1384
F0
aF0
aF0
asa(dp1385
Vmagmom
p1386
F0
sVindex
p1387
I124
sVsymbol
p1388
VCu
p1389
sVcharge
p1390
F0
sVtag
p1391
I0
sVposition
p1392
(lp1393
F14.757020514998164
aF1.318138126091827
aF16.696416263829832
asVmomentum
p1394
(lp1395
F0
aF0
aF0
asa(dp1396
Vmagmom
p1397
F0
sVindex
p1398
I125
sVsymbol
p1399
VCu
p1400
sVcharge
p1401
F0
sVtag
p1402
I0
sVposition
p1403
(lp1404
F14.757020514998164
aF6.5906906304591413
aF21.968968768197144
asVmomentum
p1405
(lp1406
F0
aF0
aF0
asa(dp1407
Vmagmom
p1408
F0
sVindex
p1409
I126
sVsymbol
p1410
VCu
p1411
sVcharge
p1412
F0
sVtag
p1413
I0
sVposition
p1414
(lp1415
F9.2210799193389974
aF5.2725525043673107
aF18.014554389921656
asVmomentum
p1416
(lp1417
F0
aF0
aF0
asa(dp1418
Vmagmom
p1419
F0
sVindex
p1420
I127
sVsymbol
p1421
VCu
p1422
sVcharge
p1423
F0
sVtag
p1424
I0
sVposition
p1425
(lp1426
F9.2210799193389974
aF2.636276252183654
aF20.650830642105312
asVmomentum
p1427
(lp1428
F0
aF0
aF0
asa(dp1429
Vmagmom
p1430
F0
sVindex
p1431
I128
sVsymbol
p1432
VCu
p1433
sVcharge
p1434
F0
sVtag
p1435
I0
sVposition
p1436
(lp1437
F9.2210799193389974
aF0
aF18.014554389921656
asVmomentum
p1438
(lp1439
F0
aF0
aF0
asa(dp1440
Vmagmom
p1441
F0
sVindex
p1442
I129
sVsymbol
p1443
VCu
p1444
sVcharge
p1445
F0
sVtag
p1446
I0
sVposition
p1447
(lp1448
F11.068043845005093
aF6.5906906304591431
aF19.332692516013488
asVmomentum
p1449
(lp1450
F0
aF0
aF0
asa(dp1451
Vmagmom
p1452
F0
sVindex
p1453
I130
sVsymbol
p1454
VCu
p1455
sVcharge
p1456
F0
sVtag
p1457
I0
sVposition
p1458
(lp1459
F11.068043845005093
aF3.9544143782754837
aF21.968968768197144
asVmomentum
p1460
(lp1461
F0
aF0
aF0
asa(dp1462
Vmagmom
p1463
F0
sVindex
p1464
I131
sVsymbol
p1465
VCu
p1466
sVcharge
p1467
F0
sVtag
p1468
I0
sVposition
p1469
(lp1470
F11.068043845005093
aF1.3181381260918261
aF19.332692516013488
asVmomentum
p1471
(lp1472
F0
aF0
aF0
asa(dp1473
Vmagmom
p1474
F0
sVindex
p1475
I132
sVsymbol
p1476
VCu
p1477
sVcharge
p1478
F0
sVtag
p1479
I0
sVposition
p1480
(lp1481
F5.5348319256461949
aF5.2725525043673125
aF20.650830642105312
asVmomentum
p1482
(lp1483
F0
aF0
aF0
asa(dp1484
Vmagmom
p1485
F0
sVindex
p1486
I133
sVsymbol
p1487
VCu
p1488
sVcharge
p1489
F0
sVtag
p1490
I0
sVposition
p1491
(lp1492
F5.5348319256461949
aF2.6362762521836558
aF18.01455438992166
asVmomentum
p1493
(lp1494
F0
aF0
aF0
asa(dp1495
Vmagmom
p1496
F0
sVindex
p1497
I134
sVsymbol
p1498
VCu
p1499
sVcharge
p1500
F0
sVtag
p1501
I0
sVposition
p1502
(lp1503
F5.5348319256461949
aF0
aF20.650830642105316
asVmomentum
p1504
(lp1505
F0
aF0
aF0
asa(dp1506
Vmagmom
p1507
F0
sVindex
p1508
I135
sVsymbol
p1509
VCu
p1510
sVcharge
p1511
F0
sVtag
p1512
I0
sVposition
p1513
(lp1514
F7.3787094978706183
aF3.9544143782754828
aF19.332692516013484
asVmomentum
p1515
(lp1516
F0
aF0
aF0
asa(dp1517
Vmagmom
p1518
F0
sVindex
p1519
I136
sVsymbol
p1520
VCu
p1521
sVcharge
p1522
F0
sVtag
p1523
I0
sVposition
p1524
(lp1525
F7.3787094978706183
aF1.318138126091827
aF16.696416263829832
asVmomentum
p1526
(lp1527
F0
aF0
aF0
asa(dp1528
Vmagmom
p1529
F0
sVindex
p1530
I137
sVsymbol
p1531
VCu
p1532
sVcharge
p1533
F0
sVtag
p1534
I0
sVposition
p1535
(lp1536
F7.3787094978706183
aF6.5906906304591413
aF21.968968768197144
asVmomentum
p1537
(lp1538
F0
aF0
aF0
asa(dp1539
Vmagmom
p1540
F0
sVindex
p1541
I138
sVsymbol
p1542
VCu
p1543
sVcharge
p1544
F0
sVtag
p1545
I0
sVposition
p1546
(lp1547
F12.912532180001628
aF5.2725525043673107
aF18.014554389921656
asVmomentum
p1548
(lp1549
F0
aF0
aF0
asa(dp1550
Vmagmom
p1551
F0
sVindex
p1552
I139
sVsymbol
p1553
VCu
p1554
sVcharge
p1555
F0
sVtag
p1556
I0
sVposition
p1557
(lp1558
F12.912532180001628
aF2.636276252183654
aF20.650830642105312
asVmomentum
p1559
(lp1560
F0
aF0
aF0
asa(dp1561
Vmagmom
p1562
F0
sVindex
p1563
I140
sVsymbol
p1564
VCu
p1565
sVcharge
p1566
F0
sVtag
p1567
I0
sVposition
p1568
(lp1569
F12.912532180001628
aF0
aF18.014554389921656
asVmomentum
p1570
(lp1571
F0
aF0
aF0
asa(dp1572
Vmagmom
p1573
F0
sVindex
p1574
I141
sVsymbol
p1575
VCu
p1576
sVcharge
p1577
F0
sVtag
p1578
I0
sVposition
p1579
(lp1580
F1.9721522630525295e-31
aF3.9544143782754828
aF19.332692516013484
asVmomentum
p1581
(lp1582
F0
aF0
aF0
asa(dp1583
Vmagmom
p1584
F0
sVindex
p1585
I142
sVsymbol
p1586
VCu
p1587
sVcharge
p1588
F0
sVtag
p1589
I0
sVposition
p1590
(lp1591
F1.9721522630525295e-31
aF1.318138126091827
aF16.696416263829832
asVmomentum
p1592
(lp1593
F0
aF0
aF0
asa(dp1594
Vmagmom
p1595
F0
sVindex
p1596
I143
sVsymbol
p1597
VCu
p1598
sVcharge
p1599
F0
sVtag
p1600
I0
sVposition
p1601
(lp1602
F0
aF6.5906906304591413
aF21.968968768197144
asVmomentum
p1603
(lp1604
F0
aF0
aF0
asa(dp1605
Vmagmom
p1606
F0
sVindex
p1607
I144
sVsymbol
p1608
VCu
p1609
sVcharge
p1610
F0
sVtag
p1611
I0
sVposition
p1612
(lp1613
F1.9721522630525295e-31
aF6.5906906304591431
aF19.332692516013488
asVmomentum
p1614
(lp1615
F0
aF0
aF0
asa(dp1616
Vmagmom
p1617
F0
sVindex
p1618
I145
sVsymbol
p1619
VCu
p1620
sVcharge
p1621
F0
sVtag
p1622
I0
sVposition
p1623
(lp1624
F0
aF3.9544143782754837
aF21.968968768197144
asVmomentum
p1625
(lp1626
F0
aF0
aF0
asa(dp1627
Vmagmom
p1628
F0
sVindex
p1629
I146
sVsymbol
p1630
VCu
p1631
sVcharge
p1632
F0
sVtag
p1633
I0
sVposition
p1634
(lp1635
F1.9721522630525295e-31
aF1.3181381260918261
aF19.332692516013488
asVmomentum
p1636
(lp1637
F0
aF0
aF0
asa(dp1638
Vmagmom
p1639
F0
sVindex
p1640
I147
sVsymbol
p1641
VPd
p1642
sVcharge
p1643
F0
sVtag
p1644
I0
sVposition
p1645
(lp1646
F9.2210871503570164
aF5.2725525043673125
aF20.650830642105312
asVmomentum
p1647
(lp1648
F0
aF0
aF0
asa(dp1649
Vmagmom
p1650
F0
sVindex
p1651
I148
sVsymbol
p1652
VPd
p1653
sVcharge
p1654
F0
sVtag
p1655
I0
sVposition
p1656
(lp1657
F9.2210871503570164
aF2.6362762521836558
aF18.01455438992166
asVmomentum
p1658
(lp1659
F0
aF0
aF0
asa(dp1660
Vmagmom
p1661
F0
sVindex
p1662
I149
sVsymbol
p1663
VPd
p1664
sVcharge
p1665
F0
sVtag
p1666
I0
sVposition
p1667
(lp1668
F9.2210871503570164
aF0
aF20.650830642105316
asVmomentum
p1669
(lp1670
F0
aF0
aF0
asa(dp1671
Vmagmom
p1672
F0
sVindex
p1673
I150
sVsymbol
p1674
VPd
p1675
sVcharge
p1676
F0
sVtag
p1677
I0
sVposition
p1678
(lp1679
F23.978686921548782
aF5.2725525043673107
aF18.014554389921656
asVmomentum
p1680
(lp1681
F0
aF0
aF0
asa(dp1682
Vmagmom
p1683
F0
sVindex
p1684
I151
sVsymbol
p1685
VPd
p1686
sVcharge
p1687
F0
sVtag
p1688
I0
sVposition
p1689
(lp1690
F23.978686921548778
aF2.636276252183654
aF20.650830642105312
asVmomentum
p1691
(lp1692
F0
aF0
aF0
asa(dp1693
Vmagmom
p1694
F0
sVindex
p1695
I152
sVsymbol
p1696
VPd
p1697
sVcharge
p1698
F0
sVtag
p1699
I0
sVposition
p1700
(lp1701
F23.978686921548782
aF0
aF18.014554389921656
asVmomentum
p1702
(lp1703
F0
aF0
aF0
asa(dp1704
Vmagmom
p1705
F0
sVindex
p1706
I153
sVsymbol
p1707
VPd
p1708
sVcharge
p1709
F0
sVtag
p1710
I0
sVposition
p1711
(lp1712
F16.603977209646235
aF5.2725525043673125
aF20.650830642105312
asVmomentum
p1713
(lp1714
F0
aF0
aF0
asa(dp1715
Vmagmom
p1716
F0
sVindex
p1717
I154
sVsymbol
p1718
VPd
p1719
sVcharge
p1720
F0
sVtag
p1721
I0
sVposition
p1722
(lp1723
F16.603977209646239
aF2.6362762521836558
aF18.01455438992166
asVmomentum
p1724
(lp1725
F0
aF0
aF0
asa(dp1726
Vmagmom
p1727
F0
sVindex
p1728
I155
sVsymbol
p1729
VPd
p1730
sVcharge
p1731
F0
sVtag
p1732
I0
sVposition
p1733
(lp1734
F16.603977209646239
aF0
aF20.650830642105316
asVmomentum
p1735
(lp1736
F0
aF0
aF0
asa(dp1737
Vmagmom
p1738
F0
sVindex
p1739
I156
sVsymbol
p1740
VPd
p1741
sVcharge
p1742
F0
sVtag
p1743
I0
sVposition
p1744
(lp1745
F20.288523848099004
aF5.2725525043673107
aF18.014554389921656
asVmomentum
p1746
(lp1747
F0
aF0
aF0
asa(dp1748
Vmagmom
p1749
F0
sVindex
p1750
I157
sVsymbol
p1751
VPd
p1752
sVcharge
p1753
F0
sVtag
p1754
I0
sVposition
p1755
(lp1756
F20.288523848098997
aF2.636276252183654
aF20.650830642105312
asVmomentum
p1757
(lp1758
F0
aF0
aF0
asa(dp1759
Vmagmom
p1760
F0
sVindex
p1761
I158
sVsymbol
p1762
VPd
p1763
sVcharge
p1764
F0
sVtag
p1765
I0
sVposition
p1766
(lp1767
F20.288523848099
aF0
aF18.014554389921656
asVmomentum
p1768
(lp1769
F0
aF0
aF0
asa(dp1770
Vmagmom
p1771
F0
sVindex
p1772
I159
sVsymbol
p1773
VPd
p1774
sVcharge
p1775
F0
sVtag
p1776
I0
sVposition
p1777
(lp1778
F12.912532180001628
aF5.2725525043673125
aF20.650830642105312
asVmomentum
p1779
(lp1780
F0
aF0
aF0
asa(dp1781
Vmagmom
p1782
F0
sVindex
p1783
I160
sVsymbol
p1784
VPd
p1785
sVcharge
p1786
F0
sVtag
p1787
I0
sVposition
p1788
(lp1789
F12.912532180001628
aF2.6362762521836558
aF18.01455438992166
asVmomentum
p1790
(lp1791
F0
aF0
aF0
asa(dp1792
Vmagmom
p1793
F0
sVindex
p1794
I161
sVsymbol
p1795
VPd
p1796
sVcharge
p1797
F0
sVtag
p1798
I0
sVposition
p1799
(lp1800
F12.912532180001628
aF0
aF20.650830642105316
asVmomentum
p1801
(lp1802
F0
aF0
aF0
asa(dp1803
Vmagmom
p1804
F0
sVindex
p1805
I162
sVsymbol
p1806
VPd
p1807
sVcharge
p1808
F0
sVtag
p1809
I0
sVposition
p1810
(lp1811
F1.8463774384544749
aF5.2725525043673107
aF18.014554389921656
asVmomentum
p1812
(lp1813
F0
aF0
aF0
asa(dp1814
Vmagmom
p1815
F0
sVindex
p1816
I163
sVsymbol
p1817
VPd
p1818
sVcharge
p1819
F0
sVtag
p1820
I0
sVposition
p1821
(lp1822
F1.8463774384544749
aF2.636276252183654
aF20.650830642105312
asVmomentum
p1823
(lp1824
F0
aF0
aF0
asa(dp1825
Vmagmom
p1826
F0
sVindex
p1827
I164
sVsymbol
p1828
VPd
p1829
sVcharge
p1830
F0
sVtag
p1831
I0
sVposition
p1832
(lp1833
F1.8463774384544749
aF0
aF18.014554389921656
asVmomentum
p1834
(lp1835
F0
aF0
aF0
asa(dp1836
Vmagmom
p1837
F0
sVindex
p1838
I165
sVsymbol
p1839
VPd
p1840
sVcharge
p1841
F0
sVtag
p1842
I0
sVposition
p1843
(lp1844
F5.5365405119042563
aF5.2725525043673107
aF18.014554389921656
asVmomentum
p1845
(lp1846
F0
aF0
aF0
asa(dp1847
Vmagmom
p1848
F0
sVindex
p1849
I166
sVsymbol
p1850
VPd
p1851
sVcharge
p1852
F0
sVtag
p1853
I0
sVposition
p1854
(lp1855
F5.5365405119042563
aF2.636276252183654
aF20.650830642105312
asVmomentum
p1856
(lp1857
F0
aF0
aF0
asa(dp1858
Vmagmom
p1859
F0
sVindex
p1860
I167
sVsymbol
p1861
VPd
p1862
sVcharge
p1863
F0
sVtag
p1864
I0
sVposition
p1865
(lp1866
F5.5365405119042563
aF0
aF18.014554389921656
asVmomentum
p1867
(lp1868
F0
aF0
aF0
asasVcell
p1869
(lp1870
(lp1871
F25.825064360003257
aF0
aF0
aa(lp1872
F4.9303806576313238e-32
aF7.9088287565509701
aF2.6362762521836571
aa(lp1873
F0
aF0
aF31.635315026203884
aasVmass
p1874
F12476.436000000016
sVpbc
p1875
(lp1876
I01
aI01
aI01
asVspacegroup
p1877
VPm (6)
p1878
sVconstraints
p1879
(lp1880
(dp1881
Vname
p1882
VFixAtoms
p1883
sVkwargs
p1884
(dp1885
Vindices
p1886
(lp1887
I0
aI1
aI2
aI3
aI4
aI5
aI6
aI7
aI8
aI9
aI10
aI11
aI12
aI13
aI14
aI15
aI16
aI17
aI18
aI19
aI20
aI21
aI22
aI23
aI24
aI25
aI26
aI27
aI28
aI29
aI30
aI31
aI32
aI33
aI34
aI35
aI36
aI37
aI38
aI39
aI40
aI41
aI42
aI43
aI44
aI45
aI46
aI47
aI48
aI49
aI50
aI51
aI52
aI53
aI54
aI55
aI56
aI57
aI58
aI59
aI60
aI61
aI62
aI63
aI64
aI65
aI66
aI67
aI68
aI69
aI70
aI71
aI72
aI73
aI74
aI75
aI76
aI77
aI78
aI79
aI80
aI81
aI82
aI83
aI84
aI88
aI90
aI94
aI96
aI100
aI102
aI106
aI108
aI112
aI115
aI117
aI121
aI124
aI126
aI129
aI133
aI136
aI138
aI142
aI144
aI148
aI150
aI154
aI156
aI160
aI162
aI165
assasaa(lp1888
S'results'
p1889
ag2
((ltRp1890
aa(lp1891
S'user'
p1892
aS'ktran'
p1893
aa(lp1894
S'inserted-hash'
p1895
aS'32da1437afa4002d7b2caacaabfcae8fbd2f64e4'
p1896
aa(lp1897
S'ctime'
p1898
acdatetime
datetime
p1899
(S'\x07\xe1\x03\x1f\x13+#\x0b\x9aG'
tRp1900
aa(lp1901
S'mtime'
p1902
ag1899
(S'\x07\xe1\x03\x1f\x13+#\x0b\x9ak'
tRp1903
aa(lp1904
S'tags'
p1905
a(dp1906
S'get_slab_settings'
p1907
g2
((lp1908
(lp1909
S'max_broken_bonds'
p1910
aI0
aa(lp1911
S'bonds'
p1912
aNaa(lp1913
S'tol'
p1914
aF0.29999999999999999
aa(lp1915
S'symmetrize'
p1916
aI00
aatRp1917
sS'relaxed'
p1918
I00
sS'mpid'
p1919
Vmp-672265
p1920
sS'shift'
p1921
I0
sS'slab_generate_settings'
p1922
g2
((lp1923
(lp1924
S'primitive'
p1925
aI01
aa(lp1926
S'min_vacuum_size'
p1927
aF20
aa(lp1928
S'lll_reduce'
p1929
aI00
aa(lp1930
S'max_normal_search'
p1931
aI1
aa(lp1932
S'min_slab_size'
p1933
aF7
aa(lp1934
S'center_slab'
p1935
aI01
aatRp1936
sS'miller'
p1937
(I2
I1
I0
tp1938
sS'top'
p1939
I01
sS'type'
p1940
S'slab'
p1941
sS'num_slab_atoms'
p1942
I168
saatRp1943
ag2
((lp1944
(lp1945
g5
a(dp1946
Vinfo
p1947
(dp1948
sVvolume
p1949
F6461.386921398941
sVnatoms
p1950
I168
sVsymbol_counts
p1951
(dp1952
VCu
p1953
I126
sVPd
p1954
I42
ssVchemical_symbols
p1955
(lp1956
VPd
p1957
aVCu
p1958
asVatoms
p1959
(lp1960
(dp1961
Vmagmom
p1962
F0
sVindex
p1963
I0
sVsymbol
p1964
VCu
p1965
sVcharge
p1966
F0
sVtag
p1967
I0
sVposition
p1968
(lp1969
F3.690382069995545
aF-6.5906906304591413
aF-14.060140011646173
asVmomentum
p1970
(lp1971
F0
aF0
aF0
asa(dp1972
Vmagmom
p1973
F0
sVindex
p1974
I1
sVsymbol
p1975
VCu
p1976
sVcharge
p1977
F0
sVtag
p1978
I0
sVposition
p1979
(lp1980
F3.6903820699955454
aF-3.9544143782754868
aF-16.696416263829832
asVmomentum
p1981
(lp1982
F0
aF0
aF0
asa(dp1983
Vmagmom
p1984
F0
sVindex
p1985
I2
sVsymbol
p1986
VCu
p1987
sVcharge
p1988
F0
sVtag
p1989
I0
sVposition
p1990
(lp1991
F3.6903820699955454
aF-1.3181381260918297
aF-14.060140011646173
asVmomentum
p1992
(lp1993
F0
aF0
aF0
asa(dp1994
Vmagmom
p1995
F0
sVindex
p1996
I3
sVsymbol
p1997
VCu
p1998
sVcharge
p1999
F0
sVtag
p2000
I0
sVposition
p2001
(lp2002
F23.98195740769934
aF-5.2725525043673134
aF-15.378278137738
asVmomentum
p2003
(lp2004
F0
aF0
aF0
asa(dp2005
Vmagmom
p2006
F0
sVindex
p2007
I4
sVsymbol
p2008
VCu
p2009
sVcharge
p2010
F0
sVtag
p2011
I0
sVposition
p2012
(lp2013
F23.98195740769934
aF-2.6362762521836567
aF-12.742001885554345
asVmomentum
p2014
(lp2015
F0
aF0
aF0
asa(dp2016
Vmagmom
p2017
F0
sVindex
p2018
I5
sVsymbol
p2019
VCu
p2020
sVcharge
p2021
F0
sVtag
p2022
I0
sVposition
p2023
(lp2024
F23.98195740769934
aF-1.8832959097778564e-15
aF-15.378278137738
asVmomentum
p2025
(lp2026
F0
aF0
aF0
asa(dp2027
Vmagmom
p2028
F0
sVindex
p2029
I6
sVsymbol
p2030
VCu
p2031
sVcharge
p2032
F0
sVtag
p2033
I0
sVposition
p2034
(lp2035
F16.603984440664259
aF-5.2725525043673134
aF-12.742001885554345
asVmomentum
p2036
(lp2037
F0
aF0
aF0
asa(dp2038
Vmagmom
p2039
F0
sVindex
p2040
I7
sVsymbol
p2041
VCu
p2042
sVcharge
p2043
F0
sVtag
p2044
I0
sVposition
p2045
(lp2046
F16.603984440664259
aF-2.6362762521836567
aF-15.378278137738002
asVmomentum
p2047
(lp2048
F0
aF0
aF0
asa(dp2049
Vmagmom
p2050
F0
sVindex
p2051
I8
sVsymbol
p2052
VCu
p2053
sVcharge
p2054
F0
sVtag
p2055
I0
sVposition
p2056
(lp2057
F16.603984440664259
aF-1.5604451823873667e-15
aF-12.742001885554345
asVmomentum
p2058
(lp2059
F0
aF0
aF0
asa(dp2060
Vmagmom
p2061
F0
sVindex
p2062
I9
sVsymbol
p2063
VCu
p2064
sVcharge
p2065
F0
sVtag
p2066
I0
sVposition
p2067
(lp2068
F20.290232434357062
aF-5.2725525043673134
aF-15.378278137738
asVmomentum
p2069
(lp2070
F0
aF0
aF0
asa(dp2071
Vmagmom
p2072
F0
sVindex
p2073
I10
sVsymbol
p2074
VCu
p2075
sVcharge
p2076
F0
sVtag
p2077
I0
sVposition
p2078
(lp2079
F20.290232434357062
aF-2.6362762521836567
aF-12.742001885554345
asVmomentum
p2080
(lp2081
F0
aF0
aF0
asa(dp2082
Vmagmom
p2083
F0
sVindex
p2084
I11
sVsymbol
p2085
VCu
p2086
sVcharge
p2087
F0
sVtag
p2088
I0
sVposition
p2089
(lp2090
F20.290232434357062
aF-1.8832959097778564e-15
aF-15.378278137738
asVmomentum
p2091
(lp2092
F0
aF0
aF0
asa(dp2093
Vmagmom
p2094
F0
sVindex
p2095
I12
sVsymbol
p2096
VCu
p2097
sVcharge
p2098
F0
sVtag
p2099
I0
sVposition
p2100
(lp2101
F7.3787094978706183
aF-6.5906906304591413
aF-14.060140011646173
asVmomentum
p2102
(lp2103
F0
aF0
aF0
asa(dp2104
Vmagmom
p2105
F0
sVindex
p2106
I13
sVsymbol
p2107
VCu
p2108
sVcharge
p2109
F0
sVtag
p2110
I0
sVposition
p2111
(lp2112
F7.3787094978706174
aF-3.9544143782754868
aF-16.696416263829832
asVmomentum
p2113
(lp2114
F0
aF0
aF0
asa(dp2115
Vmagmom
p2116
F0
sVindex
p2117
I14
sVsymbol
p2118
VCu
p2119
sVcharge
p2120
F0
sVtag
p2121
I0
sVposition
p2122
(lp2123
F7.3787094978706183
aF-1.3181381260918297
aF-14.060140011646173
asVmomentum
p2124
(lp2125
F0
aF0
aF0
asa(dp2126
Vmagmom
p2127
F0
sVindex
p2128
I15
sVsymbol
p2129
VCu
p2130
sVcharge
p2131
F0
sVtag
p2132
I0
sVposition
p2133
(lp2134
F18.446354862132637
aF-3.9544143782754855
aF-14.060140011646173
asVmomentum
p2135
(lp2136
F0
aF0
aF0
asa(dp2137
Vmagmom
p2138
F0
sVindex
p2139
I16
sVsymbol
p2140
VCu
p2141
sVcharge
p2142
F0
sVtag
p2143
I0
sVposition
p2144
(lp2145
F18.446354862132637
aF-1.3181381260918283
aF-11.423863759462517
asVmomentum
p2146
(lp2147
F0
aF0
aF0
asa(dp2148
Vmagmom
p2149
F0
sVindex
p2150
I17
sVsymbol
p2151
VCu
p2152
sVcharge
p2153
F0
sVtag
p2154
I0
sVposition
p2155
(lp2156
F18.446354862132637
aF-6.5906906304591439
aF-16.696416263829832
asVmomentum
p2157
(lp2158
F0
aF0
aF0
asa(dp2159
Vmagmom
p2160
F0
sVindex
p2161
I18
sVsymbol
p2162
VCu
p2163
sVcharge
p2164
F0
sVtag
p2165
I0
sVposition
p2166
(lp2167
F22.13468229000771
aF-6.5906906304591413
aF-14.060140011646173
asVmomentum
p2168
(lp2169
F0
aF0
aF0
asa(dp2170
Vmagmom
p2171
F0
sVindex
p2172
I19
sVsymbol
p2173
VCu
p2174
sVcharge
p2175
F0
sVtag
p2176
I0
sVposition
p2177
(lp2178
F22.13468229000771
aF-3.9544143782754868
aF-16.696416263829832
asVmomentum
p2179
(lp2180
F0
aF0
aF0
asa(dp2181
Vmagmom
p2182
F0
sVindex
p2183
I20
sVsymbol
p2184
VCu
p2185
sVcharge
p2186
F0
sVtag
p2187
I0
sVposition
p2188
(lp2189
F22.13468229000771
aF-1.3181381260918297
aF-14.060140011646173
asVmomentum
p2190
(lp2191
F0
aF0
aF0
asa(dp2192
Vmagmom
p2193
F0
sVindex
p2194
I21
sVsymbol
p2195
VCu
p2196
sVcharge
p2197
F0
sVtag
p2198
I0
sVposition
p2199
(lp2200
F1.8431069523039165
aF-5.2725525043673134
aF-15.378278137738
asVmomentum
p2201
(lp2202
F0
aF0
aF0
asa(dp2203
Vmagmom
p2204
F0
sVindex
p2205
I22
sVsymbol
p2206
VCu
p2207
sVcharge
p2208
F0
sVtag
p2209
I0
sVposition
p2210
(lp2211
F1.8431069523039165
aF-2.6362762521836567
aF-12.742001885554345
asVmomentum
p2212
(lp2213
F0
aF0
aF0
asa(dp2214
Vmagmom
p2215
F0
sVindex
p2216
I23
sVsymbol
p2217
VCu
p2218
sVcharge
p2219
F0
sVtag
p2220
I0
sVposition
p2221
(lp2222
F1.8431069523039165
aF-1.8832959097778564e-15
aF-15.378278137738
asVmomentum
p2223
(lp2224
F0
aF0
aF0
asa(dp2225
Vmagmom
p2226
F0
sVindex
p2227
I24
sVsymbol
p2228
VCu
p2229
sVcharge
p2230
F0
sVtag
p2231
I0
sVposition
p2232
(lp2233
F14.757020514998164
aF-6.5906906304591413
aF-14.060140011646173
asVmomentum
p2234
(lp2235
F0
aF0
aF0
asa(dp2236
Vmagmom
p2237
F0
sVindex
p2238
I25
sVsymbol
p2239
VCu
p2240
sVcharge
p2241
F0
sVtag
p2242
I0
sVposition
p2243
(lp2244
F14.757020514998164
aF-3.9544143782754868
aF-16.696416263829832
asVmomentum
p2245
(lp2246
F0
aF0
aF0
asa(dp2247
Vmagmom
p2248
F0
sVindex
p2249
I26
sVsymbol
p2250
VCu
p2251
sVcharge
p2252
F0
sVtag
p2253
I0
sVposition
p2254
(lp2255
F14.757020514998164
aF-1.3181381260918297
aF-14.060140011646173
asVmomentum
p2256
(lp2257
F0
aF0
aF0
asa(dp2258
Vmagmom
p2259
F0
sVindex
p2260
I27
sVsymbol
p2261
VCu
p2262
sVcharge
p2263
F0
sVtag
p2264
I0
sVposition
p2265
(lp2266
F3.690382069995545
aF-3.9544143782754855
aF-14.060140011646173
asVmomentum
p2267
(lp2268
F0
aF0
aF0
asa(dp2269
Vmagmom
p2270
F0
sVindex
p2271
I28
sVsymbol
p2272
VCu
p2273
sVcharge
p2274
F0
sVtag
p2275
I0
sVposition
p2276
(lp2277
F3.6903820699955454
aF-1.3181381260918283
aF-11.423863759462517
asVmomentum
p2278
(lp2279
F0
aF0
aF0
asa(dp2280
Vmagmom
p2281
F0
sVindex
p2282
I29
sVsymbol
p2283
VCu
p2284
sVcharge
p2285
F0
sVtag
p2286
I0
sVposition
p2287
(lp2288
F3.6903820699955454
aF-6.5906906304591439
aF-16.696416263829832
asVmomentum
p2289
(lp2290
F0
aF0
aF0
asa(dp2291
Vmagmom
p2292
F0
sVindex
p2293
I30
sVsymbol
p2294
VCu
p2295
sVcharge
p2296
F0
sVtag
p2297
I0
sVposition
p2298
(lp2299
F11.068043845005093
aF-3.9544143782754855
aF-14.060140011646173
asVmomentum
p2300
(lp2301
F0
aF0
aF0
asa(dp2302
Vmagmom
p2303
F0
sVindex
p2304
I31
sVsymbol
p2305
VCu
p2306
sVcharge
p2307
F0
sVtag
p2308
I0
sVposition
p2309
(lp2310
F11.068043845005093
aF-1.3181381260918283
aF-11.423863759462517
asVmomentum
p2311
(lp2312
F0
aF0
aF0
asa(dp2313
Vmagmom
p2314
F0
sVindex
p2315
I32
sVsymbol
p2316
VCu
p2317
sVcharge
p2318
F0
sVtag
p2319
I0
sVposition
p2320
(lp2321
F11.068043845005093
aF-6.5906906304591439
aF-16.696416263829832
asVmomentum
p2322
(lp2323
F0
aF0
aF0
asa(dp2324
Vmagmom
p2325
F0
sVindex
p2326
I33
sVsymbol
p2327
VCu
p2328
sVcharge
p2329
F0
sVtag
p2330
I0
sVposition
p2331
(lp2332
F18.446354862132637
aF-6.5906906304591413
aF-14.060140011646173
asVmomentum
p2333
(lp2334
F0
aF0
aF0
asa(dp2335
Vmagmom
p2336
F0
sVindex
p2337
I34
sVsymbol
p2338
VCu
p2339
sVcharge
p2340
F0
sVtag
p2341
I0
sVposition
p2342
(lp2343
F18.446354862132637
aF-3.9544143782754868
aF-16.696416263829832
asVmomentum
p2344
(lp2345
F0
aF0
aF0
asa(dp2346
Vmagmom
p2347
F0
sVindex
p2348
I35
sVsymbol
p2349
VCu
p2350
sVcharge
p2351
F0
sVtag
p2352
I0
sVposition
p2353
(lp2354
F18.446354862132637
aF-1.3181381260918297
aF-14.060140011646173
asVmomentum
p2355
(lp2356
F0
aF0
aF0
asa(dp2357
Vmagmom
p2358
F0
sVindex
p2359
I36
sVsymbol
p2360
VCu
p2361
sVcharge
p2362
F0
sVtag
p2363
I0
sVposition
p2364
(lp2365
F22.13468229000771
aF-3.9544143782754855
aF-14.060140011646173
asVmomentum
p2366
(lp2367
F0
aF0
aF0
asa(dp2368
Vmagmom
p2369
F0
sVindex
p2370
I37
sVsymbol
p2371
VCu
p2372
sVcharge
p2373
F0
sVtag
p2374
I0
sVposition
p2375
(lp2376
F22.13468229000771
aF-1.3181381260918283
aF-11.423863759462517
asVmomentum
p2377
(lp2378
F0
aF0
aF0
asa(dp2379
Vmagmom
p2380
F0
sVindex
p2381
I38
sVsymbol
p2382
VCu
p2383
sVcharge
p2384
F0
sVtag
p2385
I0
sVposition
p2386
(lp2387
F22.13468229000771
aF-6.5906906304591439
aF-16.696416263829832
asVmomentum
p2388
(lp2389
F0
aF0
aF0
asa(dp2390
Vmagmom
p2391
F0
sVindex
p2392
I39
sVsymbol
p2393
VCu
p2394
sVcharge
p2395
F0
sVtag
p2396
I0
sVposition
p2397
(lp2398
F14.757020514998164
aF-3.9544143782754855
aF-14.060140011646173
asVmomentum
p2399
(lp2400
F0
aF0
aF0
asa(dp2401
Vmagmom
p2402
F0
sVindex
p2403
I40
sVsymbol
p2404
VCu
p2405
sVcharge
p2406
F0
sVtag
p2407
I0
sVposition
p2408
(lp2409
F14.757020514998164
aF-1.3181381260918283
aF-11.423863759462517
asVmomentum
p2410
(lp2411
F0
aF0
aF0
asa(dp2412
Vmagmom
p2413
F0
sVindex
p2414
I41
sVsymbol
p2415
VCu
p2416
sVcharge
p2417
F0
sVtag
p2418
I0
sVposition
p2419
(lp2420
F14.757020514998164
aF-6.5906906304591439
aF-16.696416263829832
asVmomentum
p2421
(lp2422
F0
aF0
aF0
asa(dp2423
Vmagmom
p2424
F0
sVindex
p2425
I42
sVsymbol
p2426
VCu
p2427
sVcharge
p2428
F0
sVtag
p2429
I0
sVposition
p2430
(lp2431
F9.2210799193389974
aF-5.2725525043673134
aF-12.742001885554345
asVmomentum
p2432
(lp2433
F0
aF0
aF0
asa(dp2434
Vmagmom
p2435
F0
sVindex
p2436
I43
sVsymbol
p2437
VCu
p2438
sVcharge
p2439
F0
sVtag
p2440
I0
sVposition
p2441
(lp2442
F9.2210799193389974
aF-2.6362762521836567
aF-15.378278137738002
asVmomentum
p2443
(lp2444
F0
aF0
aF0
asa(dp2445
Vmagmom
p2446
F0
sVindex
p2447
I44
sVsymbol
p2448
VCu
p2449
sVcharge
p2450
F0
sVtag
p2451
I0
sVposition
p2452
(lp2453
F9.2210799193389974
aF-1.5604451823873667e-15
aF-12.742001885554345
asVmomentum
p2454
(lp2455
F0
aF0
aF0
asa(dp2456
Vmagmom
p2457
F0
sVindex
p2458
I45
sVsymbol
p2459
VCu
p2460
sVcharge
p2461
F0
sVtag
p2462
I0
sVposition
p2463
(lp2464
F11.068043845005093
aF-6.5906906304591413
aF-14.060140011646173
asVmomentum
p2465
(lp2466
F0
aF0
aF0
asa(dp2467
Vmagmom
p2468
F0
sVindex
p2469
I46
sVsymbol
p2470
VCu
p2471
sVcharge
p2472
F0
sVtag
p2473
I0
sVposition
p2474
(lp2475
F11.068043845005093
aF-3.9544143782754868
aF-16.696416263829832
asVmomentum
p2476
(lp2477
F0
aF0
aF0
asa(dp2478
Vmagmom
p2479
F0
sVindex
p2480
I47
sVsymbol
p2481
VCu
p2482
sVcharge
p2483
F0
sVtag
p2484
I0
sVposition
p2485
(lp2486
F11.068043845005093
aF-1.3181381260918297
aF-14.060140011646173
asVmomentum
p2487
(lp2488
F0
aF0
aF0
asa(dp2489
Vmagmom
p2490
F0
sVindex
p2491
I48
sVsymbol
p2492
VCu
p2493
sVcharge
p2494
F0
sVtag
p2495
I0
sVposition
p2496
(lp2497
F5.5348319256461949
aF-5.2725525043673134
aF-15.378278137738
asVmomentum
p2498
(lp2499
F0
aF0
aF0
asa(dp2500
Vmagmom
p2501
F0
sVindex
p2502
I49
sVsymbol
p2503
VCu
p2504
sVcharge
p2505
F0
sVtag
p2506
I0
sVposition
p2507
(lp2508
F5.5348319256461949
aF-2.6362762521836567
aF-12.742001885554345
asVmomentum
p2509
(lp2510
F0
aF0
aF0
asa(dp2511
Vmagmom
p2512
F0
sVindex
p2513
I50
sVsymbol
p2514
VCu
p2515
sVcharge
p2516
F0
sVtag
p2517
I0
sVposition
p2518
(lp2519
F5.5348319256461949
aF-1.8832959097778564e-15
aF-15.378278137738
asVmomentum
p2520
(lp2521
F0
aF0
aF0
asa(dp2522
Vmagmom
p2523
F0
sVindex
p2524
I51
sVsymbol
p2525
VCu
p2526
sVcharge
p2527
F0
sVtag
p2528
I0
sVposition
p2529
(lp2530
F7.3787094978706183
aF-3.9544143782754855
aF-14.060140011646173
asVmomentum
p2531
(lp2532
F0
aF0
aF0
asa(dp2533
Vmagmom
p2534
F0
sVindex
p2535
I52
sVsymbol
p2536
VCu
p2537
sVcharge
p2538
F0
sVtag
p2539
I0
sVposition
p2540
(lp2541
F7.3787094978706183
aF-1.3181381260918283
aF-11.423863759462517
asVmomentum
p2542
(lp2543
F0
aF0
aF0
asa(dp2544
Vmagmom
p2545
F0
sVindex
p2546
I53
sVsymbol
p2547
VCu
p2548
sVcharge
p2549
F0
sVtag
p2550
I0
sVposition
p2551
(lp2552
F7.3787094978706174
aF-6.5906906304591439
aF-16.696416263829832
asVmomentum
p2553
(lp2554
F0
aF0
aF0
asa(dp2555
Vmagmom
p2556
F0
sVindex
p2557
I54
sVsymbol
p2558
VCu
p2559
sVcharge
p2560
F0
sVtag
p2561
I0
sVposition
p2562
(lp2563
F12.912532180001628
aF-5.2725525043673134
aF-12.742001885554345
asVmomentum
p2564
(lp2565
F0
aF0
aF0
asa(dp2566
Vmagmom
p2567
F0
sVindex
p2568
I55
sVsymbol
p2569
VCu
p2570
sVcharge
p2571
F0
sVtag
p2572
I0
sVposition
p2573
(lp2574
F12.912532180001628
aF-2.6362762521836567
aF-15.378278137738002
asVmomentum
p2575
(lp2576
F0
aF0
aF0
asa(dp2577
Vmagmom
p2578
F0
sVindex
p2579
I56
sVsymbol
p2580
VCu
p2581
sVcharge
p2582
F0
sVtag
p2583
I0
sVposition
p2584
(lp2585
F12.912532180001628
aF-1.5604451823873667e-15
aF-12.742001885554345
asVmomentum
p2586
(lp2587
F0
aF0
aF0
asa(dp2588
Vmagmom
p2589
F0
sVindex
p2590
I57
sVsymbol
p2591
VCu
p2592
sVcharge
p2593
F0
sVtag
p2594
I0
sVposition
p2595
(lp2596
F0
aF-3.9544143782754855
aF-14.060140011646173
asVmomentum
p2597
(lp2598
F0
aF0
aF0
asa(dp2599
Vmagmom
p2600
F0
sVindex
p2601
I58
sVsymbol
p2602
VCu
p2603
sVcharge
p2604
F0
sVtag
p2605
I0
sVposition
p2606
(lp2607
F1.9721522630525295e-31
aF-1.3181381260918283
aF-11.423863759462517
asVmomentum
p2608
(lp2609
F0
aF0
aF0
asa(dp2610
Vmagmom
p2611
F0
sVindex
p2612
I59
sVsymbol
p2613
VCu
p2614
sVcharge
p2615
F0
sVtag
p2616
I0
sVposition
p2617
(lp2618
F1.9721522630525295e-31
aF-6.5906906304591439
aF-16.696416263829832
asVmomentum
p2619
(lp2620
F0
aF0
aF0
asa(dp2621
Vmagmom
p2622
F0
sVindex
p2623
I60
sVsymbol
p2624
VCu
p2625
sVcharge
p2626
F0
sVtag
p2627
I0
sVposition
p2628
(lp2629
F1.9721522630525295e-31
aF-6.5906906304591413
aF-14.060140011646173
asVmomentum
p2630
(lp2631
F0
aF0
aF0
asa(dp2632
Vmagmom
p2633
F0
sVindex
p2634
I61
sVsymbol
p2635
VCu
p2636
sVcharge
p2637
F0
sVtag
p2638
I0
sVposition
p2639
(lp2640
F1.9721522630525295e-31
aF-3.9544143782754868
aF-16.696416263829832
asVmomentum
p2641
(lp2642
F0
aF0
aF0
asa(dp2643
Vmagmom
p2644
F0
sVindex
p2645
I62
sVsymbol
p2646
VCu
p2647
sVcharge
p2648
F0
sVtag
p2649
I0
sVposition
p2650
(lp2651
F0
aF-1.3181381260918297
aF-14.060140011646173
asVmomentum
p2652
(lp2653
F0
aF0
aF0
asa(dp2654
Vmagmom
p2655
F0
sVindex
p2656
I63
sVsymbol
p2657
VPd
p2658
sVcharge
p2659
F0
sVtag
p2660
I0
sVposition
p2661
(lp2662
F9.2210871503570164
aF-5.2725525043673134
aF-15.378278137738
asVmomentum
p2663
(lp2664
F0
aF0
aF0
asa(dp2665
Vmagmom
p2666
F0
sVindex
p2667
I64
sVsymbol
p2668
VPd
p2669
sVcharge
p2670
F0
sVtag
p2671
I0
sVposition
p2672
(lp2673
F9.2210871503570164
aF-2.6362762521836567
aF-12.742001885554345
asVmomentum
p2674
(lp2675
F0
aF0
aF0
asa(dp2676
Vmagmom
p2677
F0
sVindex
p2678
I65
sVsymbol
p2679
VPd
p2680
sVcharge
p2681
F0
sVtag
p2682
I0
sVposition
p2683
(lp2684
F9.2210871503570164
aF-1.8832959097778564e-15
aF-15.378278137738
asVmomentum
p2685
(lp2686
F0
aF0
aF0
asa(dp2687
Vmagmom
p2688
F0
sVindex
p2689
I66
sVsymbol
p2690
VPd
p2691
sVcharge
p2692
F0
sVtag
p2693
I0
sVposition
p2694
(lp2695
F23.978686921548782
aF-5.2725525043673134
aF-12.742001885554345
asVmomentum
p2696
(lp2697
F0
aF0
aF0
asa(dp2698
Vmagmom
p2699
F0
sVindex
p2700
I67
sVsymbol
p2701
VPd
p2702
sVcharge
p2703
F0
sVtag
p2704
I0
sVposition
p2705
(lp2706
F23.978686921548782
aF-2.6362762521836567
aF-15.378278137738002
asVmomentum
p2707
(lp2708
F0
aF0
aF0
asa(dp2709
Vmagmom
p2710
F0
sVindex
p2711
I68
sVsymbol
p2712
VPd
p2713
sVcharge
p2714
F0
sVtag
p2715
I0
sVposition
p2716
(lp2717
F23.978686921548782
aF-1.5604451823873667e-15
aF-12.742001885554345
asVmomentum
p2718
(lp2719
F0
aF0
aF0
asa(dp2720
Vmagmom
p2721
F0
sVindex
p2722
I69
sVsymbol
p2723
VPd
p2724
sVcharge
p2725
F0
sVtag
p2726
I0
sVposition
p2727
(lp2728
F16.603977209646239
aF-5.2725525043673134
aF-15.378278137738
asVmomentum
p2729
(lp2730
F0
aF0
aF0
asa(dp2731
Vmagmom
p2732
F0
sVindex
p2733
I70
sVsymbol
p2734
VPd
p2735
sVcharge
p2736
F0
sVtag
p2737
I0
sVposition
p2738
(lp2739
F16.603977209646239
aF-2.6362762521836567
aF-12.742001885554345
asVmomentum
p2740
(lp2741
F0
aF0
aF0
asa(dp2742
Vmagmom
p2743
F0
sVindex
p2744
I71
sVsymbol
p2745
VPd
p2746
sVcharge
p2747
F0
sVtag
p2748
I0
sVposition
p2749
(lp2750
F16.603977209646239
aF-1.8832959097778564e-15
aF-15.378278137738
asVmomentum
p2751
(lp2752
F0
aF0
aF0
asa(dp2753
Vmagmom
p2754
F0
sVindex
p2755
I72
sVsymbol
p2756
VPd
p2757
sVcharge
p2758
F0
sVtag
p2759
I0
sVposition
p2760
(lp2761
F20.288523848099004
aF-5.2725525043673134
aF-12.742001885554345
asVmomentum
p2762
(lp2763
F0
aF0
aF0
asa(dp2764
Vmagmom
p2765
F0
sVindex
p2766
I73
sVsymbol
p2767
VPd
p2768
sVcharge
p2769
F0
sVtag
p2770
I0
sVposition
p2771
(lp2772
F20.288523848099
aF-2.6362762521836567
aF-15.378278137738002
asVmomentum
p2773
(lp2774
F0
aF0
aF0
asa(dp2775
Vmagmom
p2776
F0
sVindex
p2777
I74
sVsymbol
p2778
VPd
p2779
sVcharge
p2780
F0
sVtag
p2781
I0
sVposition
p2782
(lp2783
F20.288523848099
aF-1.5604451823873667e-15
aF-12.742001885554345
asVmomentum
p2784
(lp2785
F0
aF0
aF0
asa(dp2786
Vmagmom
p2787
F0
sVindex
p2788
I75
sVsymbol
p2789
VPd
p2790
sVcharge
p2791
F0
sVtag
p2792
I0
sVposition
p2793
(lp2794
F12.912532180001628
aF-5.2725525043673134
aF-15.378278137738
asVmomentum
p2795
(lp2796
F0
aF0
aF0
asa(dp2797
Vmagmom
p2798
F0
sVindex
p2799
I76
sVsymbol
p2800
VPd
p2801
sVcharge
p2802
F0
sVtag
p2803
I0
sVposition
p2804
(lp2805
F12.912532180001628
aF-2.6362762521836567
aF-12.742001885554345
asVmomentum
p2806
(lp2807
F0
aF0
aF0
asa(dp2808
Vmagmom
p2809
F0
sVindex
p2810
I77
sVsymbol
p2811
VPd
p2812
sVcharge
p2813
F0
sVtag
p2814
I0
sVposition
p2815
(lp2816
F12.912532180001628
aF-1.8832959097778564e-15
aF-15.378278137738
asVmomentum
p2817
(lp2818
F0
aF0
aF0
asa(dp2819
Vmagmom
p2820
F0
sVindex
p2821
I78
sVsymbol
p2822
VPd
p2823
sVcharge
p2824
F0
sVtag
p2825
I0
sVposition
p2826
(lp2827
F1.8463774384544749
aF-5.2725525043673134
aF-12.742001885554345
asVmomentum
p2828
(lp2829
F0
aF0
aF0
asa(dp2830
Vmagmom
p2831
F0
sVindex
p2832
I79
sVsymbol
p2833
VPd
p2834
sVcharge
p2835
F0
sVtag
p2836
I0
sVposition
p2837
(lp2838
F1.8463774384544749
aF-2.6362762521836567
aF-15.378278137738002
asVmomentum
p2839
(lp2840
F0
aF0
aF0
asa(dp2841
Vmagmom
p2842
F0
sVindex
p2843
I80
sVsymbol
p2844
VPd
p2845
sVcharge
p2846
F0
sVtag
p2847
I0
sVposition
p2848
(lp2849
F1.8463774384544749
aF-1.5604451823873667e-15
aF-12.742001885554345
asVmomentum
p2850
(lp2851
F0
aF0
aF0
asa(dp2852
Vmagmom
p2853
F0
sVindex
p2854
I81
sVsymbol
p2855
VPd
p2856
sVcharge
p2857
F0
sVtag
p2858
I0
sVposition
p2859
(lp2860
F5.5365405119042563
aF-5.2725525043673134
aF-12.742001885554345
asVmomentum
p2861
(lp2862
F0
aF0
aF0
asa(dp2863
Vmagmom
p2864
F0
sVindex
p2865
I82
sVsymbol
p2866
VPd
p2867
sVcharge
p2868
F0
sVtag
p2869
I0
sVposition
p2870
(lp2871
F5.5365405119042563
aF-2.6362762521836567
aF-15.378278137738002
asVmomentum
p2872
(lp2873
F0
aF0
aF0
asa(dp2874
Vmagmom
p2875
F0
sVindex
p2876
I83
sVsymbol
p2877
VPd
p2878
sVcharge
p2879
F0
sVtag
p2880
I0
sVposition
p2881
(lp2882
F5.5365405119042563
aF-1.5604451823873667e-15
aF-12.742001885554345
asVmomentum
p2883
(lp2884
F0
aF0
aF0
asa(dp2885
Vmagmom
p2886
F0
sVindex
p2887
I84
sVsymbol
p2888
VCu
p2889
sVcharge
p2890
F0
sVtag
p2891
I0
sVposition
p2892
(lp2893
F3.690382069995545
aF-6.5906906304591457
aF-19.332692516013488
asVmomentum
p2894
(lp2895
F0
aF0
aF0
asa(dp2896
Vmagmom
p2897
F0
sVindex
p2898
I85
sVsymbol
p2899
VCu
p2900
sVcharge
p2901
F0
sVtag
p2902
I0
sVposition
p2903
(lp2904
F3.6903820699955454
aF-3.9544143782754864
aF-21.968968768197144
asVmomentum
p2905
(lp2906
F0
aF0
aF0
asa(dp2907
Vmagmom
p2908
F0
sVindex
p2909
I86
sVsymbol
p2910
VCu
p2911
sVcharge
p2912
F0
sVtag
p2913
I0
sVposition
p2914
(lp2915
F3.6903820699955454
aF-1.3181381260918286
aF-19.332692516013488
asVmomentum
p2916
(lp2917
F0
aF0
aF0
asa(dp2918
Vmagmom
p2919
F0
sVindex
p2920
I87
sVsymbol
p2921
VCu
p2922
sVcharge
p2923
F0
sVtag
p2924
I0
sVposition
p2925
(lp2926
F23.981957407699337
aF-5.2725525043673152
aF-20.650830642105312
asVmomentum
p2927
(lp2928
F0
aF0
aF0
asa(dp2929
Vmagmom
p2930
F0
sVindex
p2931
I88
sVsymbol
p2932
VCu
p2933
sVcharge
p2934
F0
sVtag
p2935
I0
sVposition
p2936
(lp2937
F23.98195740769934
aF-2.636276252183658
aF-18.01455438992166
asVmomentum
p2938
(lp2939
F0
aF0
aF0
asa(dp2940
Vmagmom
p2941
F0
sVindex
p2942
I89
sVsymbol
p2943
VCu
p2944
sVcharge
p2945
F0
sVtag
p2946
I0
sVposition
p2947
(lp2948
F23.98195740769934
aF-2.5289973645588354e-15
aF-20.650830642105316
asVmomentum
p2949
(lp2950
F0
aF0
aF0
asa(dp2951
Vmagmom
p2952
F0
sVindex
p2953
I90
sVsymbol
p2954
VCu
p2955
sVcharge
p2956
F0
sVtag
p2957
I0
sVposition
p2958
(lp2959
F16.603984440664259
aF-5.2725525043673125
aF-18.014554389921656
asVmomentum
p2960
(lp2961
F0
aF0
aF0
asa(dp2962
Vmagmom
p2963
F0
sVindex
p2964
I91
sVsymbol
p2965
VCu
p2966
sVcharge
p2967
F0
sVtag
p2968
I0
sVposition
p2969
(lp2970
F16.603984440664256
aF-2.6362762521836567
aF-20.650830642105312
asVmomentum
p2971
(lp2972
F0
aF0
aF0
asa(dp2973
Vmagmom
p2974
F0
sVindex
p2975
I92
sVsymbol
p2976
VCu
p2977
sVcharge
p2978
F0
sVtag
p2979
I0
sVposition
p2980
(lp2981
F16.603984440664259
aF-2.2061466371683455e-15
aF-18.014554389921656
asVmomentum
p2982
(lp2983
F0
aF0
aF0
asa(dp2984
Vmagmom
p2985
F0
sVindex
p2986
I93
sVsymbol
p2987
VCu
p2988
sVcharge
p2989
F0
sVtag
p2990
I0
sVposition
p2991
(lp2992
F20.290232434357058
aF-5.2725525043673152
aF-20.650830642105312
asVmomentum
p2993
(lp2994
F0
aF0
aF0
asa(dp2995
Vmagmom
p2996
F0
sVindex
p2997
I94
sVsymbol
p2998
VCu
p2999
sVcharge
p3000
F0
sVtag
p3001
I0
sVposition
p3002
(lp3003
F20.290232434357062
aF-2.636276252183658
aF-18.01455438992166
asVmomentum
p3004
(lp3005
F0
aF0
aF0
asa(dp3006
Vmagmom
p3007
F0
sVindex
p3008
I95
sVsymbol
p3009
VCu
p3010
sVcharge
p3011
F0
sVtag
p3012
I0
sVposition
p3013
(lp3014
F20.290232434357062
aF-2.5289973645588354e-15
aF-20.650830642105316
asVmomentum
p3015
(lp3016
F0
aF0
aF0
asa(dp3017
Vmagmom
p3018
F0
sVindex
p3019
I96
sVsymbol
p3020
VCu
p3021
sVcharge
p3022
F0
sVtag
p3023
I0
sVposition
p3024
(lp3025
F7.3787094978706183
aF-6.5906906304591457
aF-19.332692516013488
asVmomentum
p3026
(lp3027
F0
aF0
aF0
asa(dp3028
Vmagmom
p3029
F0
sVindex
p3030
I97
sVsymbol
p3031
VCu
p3032
sVcharge
p3033
F0
sVtag
p3034
I0
sVposition
p3035
(lp3036
F7.3787094978706183
aF-3.9544143782754864
aF-21.968968768197144
asVmomentum
p3037
(lp3038
F0
aF0
aF0
asa(dp3039
Vmagmom
p3040
F0
sVindex
p3041
I98
sVsymbol
p3042
VCu
p3043
sVcharge
p3044
F0
sVtag
p3045
I0
sVposition
p3046
(lp3047
F7.3787094978706183
aF-1.3181381260918286
aF-19.332692516013488
asVmomentum
p3048
(lp3049
F0
aF0
aF0
asa(dp3050
Vmagmom
p3051
F0
sVindex
p3052
I99
sVsymbol
p3053
VCu
p3054
sVcharge
p3055
F0
sVtag
p3056
I0
sVposition
p3057
(lp3058
F18.446354862132637
aF-3.954414378275485
aF-19.332692516013484
asVmomentum
p3059
(lp3060
F0
aF0
aF0
asa(dp3061
Vmagmom
p3062
F0
sVindex
p3063
I100
sVsymbol
p3064
VCu
p3065
sVcharge
p3066
F0
sVtag
p3067
I0
sVposition
p3068
(lp3069
F18.446354862132637
aF-1.318138126091829
aF-16.696416263829832
asVmomentum
p3070
(lp3071
F0
aF0
aF0
asa(dp3072
Vmagmom
p3073
F0
sVindex
p3074
I101
sVsymbol
p3075
VCu
p3076
sVcharge
p3077
F0
sVtag
p3078
I0
sVposition
p3079
(lp3080
F18.446354862132633
aF-6.5906906304591439
aF-21.968968768197144
asVmomentum
p3081
(lp3082
F0
aF0
aF0
asa(dp3083
Vmagmom
p3084
F0
sVindex
p3085
I102
sVsymbol
p3086
VCu
p3087
sVcharge
p3088
F0
sVtag
p3089
I0
sVposition
p3090
(lp3091
F22.13468229000771
aF-6.5906906304591457
aF-19.332692516013488
asVmomentum
p3092
(lp3093
F0
aF0
aF0
asa(dp3094
Vmagmom
p3095
F0
sVindex
p3096
I103
sVsymbol
p3097
VCu
p3098
sVcharge
p3099
F0
sVtag
p3100
I0
sVposition
p3101
(lp3102
F22.13468229000771
aF-3.9544143782754864
aF-21.968968768197144
asVmomentum
p3103
(lp3104
F0
aF0
aF0
asa(dp3105
Vmagmom
p3106
F0
sVindex
p3107
I104
sVsymbol
p3108
VCu
p3109
sVcharge
p3110
F0
sVtag
p3111
I0
sVposition
p3112
(lp3113
F22.13468229000771
aF-1.3181381260918286
aF-19.332692516013488
asVmomentum
p3114
(lp3115
F0
aF0
aF0
asa(dp3116
Vmagmom
p3117
F0
sVindex
p3118
I105
sVsymbol
p3119
VCu
p3120
sVcharge
p3121
F0
sVtag
p3122
I0
sVposition
p3123
(lp3124
F1.8431069523039165
aF-5.2725525043673152
aF-20.650830642105312
asVmomentum
p3125
(lp3126
F0
aF0
aF0
asa(dp3127
Vmagmom
p3128
F0
sVindex
p3129
I106
sVsymbol
p3130
VCu
p3131
sVcharge
p3132
F0
sVtag
p3133
I0
sVposition
p3134
(lp3135
F1.8431069523039165
aF-2.636276252183658
aF-18.01455438992166
asVmomentum
p3136
(lp3137
F0
aF0
aF0
asa(dp3138
Vmagmom
p3139
F0
sVindex
p3140
I107
sVsymbol
p3141
VCu
p3142
sVcharge
p3143
F0
sVtag
p3144
I0
sVposition
p3145
(lp3146
F1.8431069523039165
aF-2.5289973645588354e-15
aF-20.650830642105316
asVmomentum
p3147
(lp3148
F0
aF0
aF0
asa(dp3149
Vmagmom
p3150
F0
sVindex
p3151
I108
sVsymbol
p3152
VCu
p3153
sVcharge
p3154
F0
sVtag
p3155
I0
sVposition
p3156
(lp3157
F14.757020514998164
aF-6.5906906304591457
aF-19.332692516013488
asVmomentum
p3158
(lp3159
F0
aF0
aF0
asa(dp3160
Vmagmom
p3161
F0
sVindex
p3162
I109
sVsymbol
p3163
VCu
p3164
sVcharge
p3165
F0
sVtag
p3166
I0
sVposition
p3167
(lp3168
F14.757020514998164
aF-3.9544143782754864
aF-21.968968768197144
asVmomentum
p3169
(lp3170
F0
aF0
aF0
asa(dp3171
Vmagmom
p3172
F0
sVindex
p3173
I110
sVsymbol
p3174
VCu
p3175
sVcharge
p3176
F0
sVtag
p3177
I0
sVposition
p3178
(lp3179
F14.757020514998164
aF-1.3181381260918286
aF-19.332692516013488
asVmomentum
p3180
(lp3181
F0
aF0
aF0
asa(dp3182
Vmagmom
p3183
F0
sVindex
p3184
I111
sVsymbol
p3185
VCu
p3186
sVcharge
p3187
F0
sVtag
p3188
I0
sVposition
p3189
(lp3190
F3.6903820699955454
aF-3.954414378275485
aF-19.332692516013484
asVmomentum
p3191
(lp3192
F0
aF0
aF0
asa(dp3193
Vmagmom
p3194
F0
sVindex
p3195
I112
sVsymbol
p3196
VCu
p3197
sVcharge
p3198
F0
sVtag
p3199
I0
sVposition
p3200
(lp3201
F3.6903820699955454
aF-1.318138126091829
aF-16.696416263829832
asVmomentum
p3202
(lp3203
F0
aF0
aF0
asa(dp3204
Vmagmom
p3205
F0
sVindex
p3206
I113
sVsymbol
p3207
VCu
p3208
sVcharge
p3209
F0
sVtag
p3210
I0
sVposition
p3211
(lp3212
F3.6903820699955454
aF-6.5906906304591439
aF-21.968968768197144
asVmomentum
p3213
(lp3214
F0
aF0
aF0
asa(dp3215
Vmagmom
p3216
F0
sVindex
p3217
I114
sVsymbol
p3218
VCu
p3219
sVcharge
p3220
F0
sVtag
p3221
I0
sVposition
p3222
(lp3223
F11.068043845005093
aF-3.954414378275485
aF-19.332692516013484
asVmomentum
p3224
(lp3225
F0
aF0
aF0
asa(dp3226
Vmagmom
p3227
F0
sVindex
p3228
I115
sVsymbol
p3229
VCu
p3230
sVcharge
p3231
F0
sVtag
p3232
I0
sVposition
p3233
(lp3234
F11.068043845005093
aF-1.318138126091829
aF-16.696416263829832
asVmomentum
p3235
(lp3236
F0
aF0
aF0
asa(dp3237
Vmagmom
p3238
F0
sVindex
p3239
I116
sVsymbol
p3240
VCu
p3241
sVcharge
p3242
F0
sVtag
p3243
I0
sVposition
p3244
(lp3245
F11.068043845005093
aF-6.5906906304591439
aF-21.968968768197144
asVmomentum
p3246
(lp3247
F0
aF0
aF0
asa(dp3248
Vmagmom
p3249
F0
sVindex
p3250
I117
sVsymbol
p3251
VCu
p3252
sVcharge
p3253
F0
sVtag
p3254
I0
sVposition
p3255
(lp3256
F18.446354862132637
aF-6.5906906304591457
aF-19.332692516013488
asVmomentum
p3257
(lp3258
F0
aF0
aF0
asa(dp3259
Vmagmom
p3260
F0
sVindex
p3261
I118
sVsymbol
p3262
VCu
p3263
sVcharge
p3264
F0
sVtag
p3265
I0
sVposition
p3266
(lp3267
F18.446354862132637
aF-3.9544143782754864
aF-21.968968768197144
asVmomentum
p3268
(lp3269
F0
aF0
aF0
asa(dp3270
Vmagmom
p3271
F0
sVindex
p3272
I119
sVsymbol
p3273
VCu
p3274
sVcharge
p3275
F0
sVtag
p3276
I0
sVposition
p3277
(lp3278
F18.446354862132637
aF-1.3181381260918286
aF-19.332692516013488
asVmomentum
p3279
(lp3280
F0
aF0
aF0
asa(dp3281
Vmagmom
p3282
F0
sVindex
p3283
I120
sVsymbol
p3284
VCu
p3285
sVcharge
p3286
F0
sVtag
p3287
I0
sVposition
p3288
(lp3289
F22.13468229000771
aF-3.954414378275485
aF-19.332692516013484
asVmomentum
p3290
(lp3291
F0
aF0
aF0
asa(dp3292
Vmagmom
p3293
F0
sVindex
p3294
I121
sVsymbol
p3295
VCu
p3296
sVcharge
p3297
F0
sVtag
p3298
I0
sVposition
p3299
(lp3300
F22.13468229000771
aF-1.318138126091829
aF-16.696416263829832
asVmomentum
p3301
(lp3302
F0
aF0
aF0
asa(dp3303
Vmagmom
p3304
F0
sVindex
p3305
I122
sVsymbol
p3306
VCu
p3307
sVcharge
p3308
F0
sVtag
p3309
I0
sVposition
p3310
(lp3311
F22.134682290007706
aF-6.5906906304591439
aF-21.968968768197144
asVmomentum
p3312
(lp3313
F0
aF0
aF0
asa(dp3314
Vmagmom
p3315
F0
sVindex
p3316
I123
sVsymbol
p3317
VCu
p3318
sVcharge
p3319
F0
sVtag
p3320
I0
sVposition
p3321
(lp3322
F14.757020514998164
aF-3.954414378275485
aF-19.332692516013484
asVmomentum
p3323
(lp3324
F0
aF0
aF0
asa(dp3325
Vmagmom
p3326
F0
sVindex
p3327
I124
sVsymbol
p3328
VCu
p3329
sVcharge
p3330
F0
sVtag
p3331
I0
sVposition
p3332
(lp3333
F14.757020514998164
aF-1.318138126091829
aF-16.696416263829832
asVmomentum
p3334
(lp3335
F0
aF0
aF0
asa(dp3336
Vmagmom
p3337
F0
sVindex
p3338
I125
sVsymbol
p3339
VCu
p3340
sVcharge
p3341
F0
sVtag
p3342
I0
sVposition
p3343
(lp3344
F14.757020514998164
aF-6.5906906304591439
aF-21.968968768197144
asVmomentum
p3345
(lp3346
F0
aF0
aF0
asa(dp3347
Vmagmom
p3348
F0
sVindex
p3349
I126
sVsymbol
p3350
VCu
p3351
sVcharge
p3352
F0
sVtag
p3353
I0
sVposition
p3354
(lp3355
F9.2210799193389974
aF-5.2725525043673125
aF-18.014554389921656
asVmomentum
p3356
(lp3357
F0
aF0
aF0
asa(dp3358
Vmagmom
p3359
F0
sVindex
p3360
I127
sVsymbol
p3361
VCu
p3362
sVcharge
p3363
F0
sVtag
p3364
I0
sVposition
p3365
(lp3366
F9.2210799193389974
aF-2.6362762521836567
aF-20.650830642105312
asVmomentum
p3367
(lp3368
F0
aF0
aF0
asa(dp3369
Vmagmom
p3370
F0
sVindex
p3371
I128
sVsymbol
p3372
VCu
p3373
sVcharge
p3374
F0
sVtag
p3375
I0
sVposition
p3376
(lp3377
F9.2210799193389974
aF-2.2061466371683455e-15
aF-18.014554389921656
asVmomentum
p3378
(lp3379
F0
aF0
aF0
asa(dp3380
Vmagmom
p3381
F0
sVindex
p3382
I129
sVsymbol
p3383
VCu
p3384
sVcharge
p3385
F0
sVtag
p3386
I0
sVposition
p3387
(lp3388
F11.068043845005093
aF-6.5906906304591457
aF-19.332692516013488
asVmomentum
p3389
(lp3390
F0
aF0
aF0
asa(dp3391
Vmagmom
p3392
F0
sVindex
p3393
I130
sVsymbol
p3394
VCu
p3395
sVcharge
p3396
F0
sVtag
p3397
I0
sVposition
p3398
(lp3399
F11.068043845005093
aF-3.9544143782754864
aF-21.968968768197144
asVmomentum
p3400
(lp3401
F0
aF0
aF0
asa(dp3402
Vmagmom
p3403
F0
sVindex
p3404
I131
sVsymbol
p3405
VCu
p3406
sVcharge
p3407
F0
sVtag
p3408
I0
sVposition
p3409
(lp3410
F11.068043845005093
aF-1.3181381260918286
aF-19.332692516013488
asVmomentum
p3411
(lp3412
F0
aF0
aF0
asa(dp3413
Vmagmom
p3414
F0
sVindex
p3415
I132
sVsymbol
p3416
VCu
p3417
sVcharge
p3418
F0
sVtag
p3419
I0
sVposition
p3420
(lp3421
F5.5348319256461949
aF-5.2725525043673152
aF-20.650830642105312
asVmomentum
p3422
(lp3423
F0
aF0
aF0
asa(dp3424
Vmagmom
p3425
F0
sVindex
p3426
I133
sVsymbol
p3427
VCu
p3428
sVcharge
p3429
F0
sVtag
p3430
I0
sVposition
p3431
(lp3432
F5.5348319256461949
aF-2.636276252183658
aF-18.01455438992166
asVmomentum
p3433
(lp3434
F0
aF0
aF0
asa(dp3435
Vmagmom
p3436
F0
sVindex
p3437
I134
sVsymbol
p3438
VCu
p3439
sVcharge
p3440
F0
sVtag
p3441
I0
sVposition
p3442
(lp3443
F5.5348319256461949
aF-2.5289973645588354e-15
aF-20.650830642105316
asVmomentum
p3444
(lp3445
F0
aF0
aF0
asa(dp3446
Vmagmom
p3447
F0
sVindex
p3448
I135
sVsymbol
p3449
VCu
p3450
sVcharge
p3451
F0
sVtag
p3452
I0
sVposition
p3453
(lp3454
F7.3787094978706183
aF-3.954414378275485
aF-19.332692516013484
asVmomentum
p3455
(lp3456
F0
aF0
aF0
asa(dp3457
Vmagmom
p3458
F0
sVindex
p3459
I136
sVsymbol
p3460
VCu
p3461
sVcharge
p3462
F0
sVtag
p3463
I0
sVposition
p3464
(lp3465
F7.3787094978706183
aF-1.318138126091829
aF-16.696416263829832
asVmomentum
p3466
(lp3467
F0
aF0
aF0
asa(dp3468
Vmagmom
p3469
F0
sVindex
p3470
I137
sVsymbol
p3471
VCu
p3472
sVcharge
p3473
F0
sVtag
p3474
I0
sVposition
p3475
(lp3476
F7.3787094978706183
aF-6.5906906304591439
aF-21.968968768197144
asVmomentum
p3477
(lp3478
F0
aF0
aF0
asa(dp3479
Vmagmom
p3480
F0
sVindex
p3481
I138
sVsymbol
p3482
VCu
p3483
sVcharge
p3484
F0
sVtag
p3485
I0
sVposition
p3486
(lp3487
F12.912532180001628
aF-5.2725525043673125
aF-18.014554389921656
asVmomentum
p3488
(lp3489
F0
aF0
aF0
asa(dp3490
Vmagmom
p3491
F0
sVindex
p3492
I139
sVsymbol
p3493
VCu
p3494
sVcharge
p3495
F0
sVtag
p3496
I0
sVposition
p3497
(lp3498
F12.912532180001628
aF-2.6362762521836567
aF-20.650830642105312
asVmomentum
p3499
(lp3500
F0
aF0
aF0
asa(dp3501
Vmagmom
p3502
F0
sVindex
p3503
I140
sVsymbol
p3504
VCu
p3505
sVcharge
p3506
F0
sVtag
p3507
I0
sVposition
p3508
(lp3509
F12.912532180001628
aF-2.2061466371683455e-15
aF-18.014554389921656
asVmomentum
p3510
(lp3511
F0
aF0
aF0
asa(dp3512
Vmagmom
p3513
F0
sVindex
p3514
I141
sVsymbol
p3515
VCu
p3516
sVcharge
p3517
F0
sVtag
p3518
I0
sVposition
p3519
(lp3520
F1.9721522630525295e-31
aF-3.954414378275485
aF-19.332692516013484
asVmomentum
p3521
(lp3522
F0
aF0
aF0
asa(dp3523
Vmagmom
p3524
F0
sVindex
p3525
I142
sVsymbol
p3526
VCu
p3527
sVcharge
p3528
F0
sVtag
p3529
I0
sVposition
p3530
(lp3531
F1.9721522630525295e-31
aF-1.318138126091829
aF-16.696416263829832
asVmomentum
p3532
(lp3533
F0
aF0
aF0
asa(dp3534
Vmagmom
p3535
F0
sVindex
p3536
I143
sVsymbol
p3537
VCu
p3538
sVcharge
p3539
F0
sVtag
p3540
I0
sVposition
p3541
(lp3542
F0
aF-6.5906906304591439
aF-21.968968768197144
asVmomentum
p3543
(lp3544
F0
aF0
aF0
asa(dp3545
Vmagmom
p3546
F0
sVindex
p3547
I144
sVsymbol
p3548
VCu
p3549
sVcharge
p3550
F0
sVtag
p3551
I0
sVposition
p3552
(lp3553
F1.9721522630525295e-31
aF-6.5906906304591457
aF-19.332692516013488
asVmomentum
p3554
(lp3555
F0
aF0
aF0
asa(dp3556
Vmagmom
p3557
F0
sVindex
p3558
I145
sVsymbol
p3559
VCu
p3560
sVcharge
p3561
F0
sVtag
p3562
I0
sVposition
p3563
(lp3564
F0
aF-3.9544143782754864
aF-21.968968768197144
asVmomentum
p3565
(lp3566
F0
aF0
aF0
asa(dp3567
Vmagmom
p3568
F0
sVindex
p3569
I146
sVsymbol
p3570
VCu
p3571
sVcharge
p3572
F0
sVtag
p3573
I0
sVposition
p3574
(lp3575
F1.9721522630525295e-31
aF-1.3181381260918286
aF-19.332692516013488
asVmomentum
p3576
(lp3577
F0
aF0
aF0
asa(dp3578
Vmagmom
p3579
F0
sVindex
p3580
I147
sVsymbol
p3581
VPd
p3582
sVcharge
p3583
F0
sVtag
p3584
I0
sVposition
p3585
(lp3586
F9.2210871503570164
aF-5.2725525043673152
aF-20.650830642105312
asVmomentum
p3587
(lp3588
F0
aF0
aF0
asa(dp3589
Vmagmom
p3590
F0
sVindex
p3591
I148
sVsymbol
p3592
VPd
p3593
sVcharge
p3594
F0
sVtag
p3595
I0
sVposition
p3596
(lp3597
F9.2210871503570164
aF-2.636276252183658
aF-18.01455438992166
asVmomentum
p3598
(lp3599
F0
aF0
aF0
asa(dp3600
Vmagmom
p3601
F0
sVindex
p3602
I149
sVsymbol
p3603
VPd
p3604
sVcharge
p3605
F0
sVtag
p3606
I0
sVposition
p3607
(lp3608
F9.2210871503570164
aF-2.5289973645588354e-15
aF-20.650830642105316
asVmomentum
p3609
(lp3610
F0
aF0
aF0
asa(dp3611
Vmagmom
p3612
F0
sVindex
p3613
I150
sVsymbol
p3614
VPd
p3615
sVcharge
p3616
F0
sVtag
p3617
I0
sVposition
p3618
(lp3619
F23.978686921548782
aF-5.2725525043673125
aF-18.014554389921656
asVmomentum
p3620
(lp3621
F0
aF0
aF0
asa(dp3622
Vmagmom
p3623
F0
sVindex
p3624
I151
sVsymbol
p3625
VPd
p3626
sVcharge
p3627
F0
sVtag
p3628
I0
sVposition
p3629
(lp3630
F23.978686921548778
aF-2.6362762521836567
aF-20.650830642105312
asVmomentum
p3631
(lp3632
F0
aF0
aF0
asa(dp3633
Vmagmom
p3634
F0
sVindex
p3635
I152
sVsymbol
p3636
VPd
p3637
sVcharge
p3638
F0
sVtag
p3639
I0
sVposition
p3640
(lp3641
F23.978686921548782
aF-2.2061466371683455e-15
aF-18.014554389921656
asVmomentum
p3642
(lp3643
F0
aF0
aF0
asa(dp3644
Vmagmom
p3645
F0
sVindex
p3646
I153
sVsymbol
p3647
VPd
p3648
sVcharge
p3649
F0
sVtag
p3650
I0
sVposition
p3651
(lp3652
F16.603977209646235
aF-5.2725525043673152
aF-20.650830642105312
asVmomentum
p3653
(lp3654
F0
aF0
aF0
asa(dp3655
Vmagmom
p3656
F0
sVindex
p3657
I154
sVsymbol
p3658
VPd
p3659
sVcharge
p3660
F0
sVtag
p3661
I0
sVposition
p3662
(lp3663
F16.603977209646239
aF-2.636276252183658
aF-18.01455438992166
asVmomentum
p3664
(lp3665
F0
aF0
aF0
asa(dp3666
Vmagmom
p3667
F0
sVindex
p3668
I155
sVsymbol
p3669
VPd
p3670
sVcharge
p3671
F0
sVtag
p3672
I0
sVposition
p3673
(lp3674
F16.603977209646239
aF-2.5289973645588354e-15
aF-20.650830642105316
asVmomentum
p3675
(lp3676
F0
aF0
aF0
asa(dp3677
Vmagmom
p3678
F0
sVindex
p3679
I156
sVsymbol
p3680
VPd
p3681
sVcharge
p3682
F0
sVtag
p3683
I0
sVposition
p3684
(lp3685
F20.288523848099004
aF-5.2725525043673125
aF-18.014554389921656
asVmomentum
p3686
(lp3687
F0
aF0
aF0
asa(dp3688
Vmagmom
p3689
F0
sVindex
p3690
I157
sVsymbol
p3691
VPd
p3692
sVcharge
p3693
F0
sVtag
p3694
I0
sVposition
p3695
(lp3696
F20.288523848098997
aF-2.6362762521836567
aF-20.650830642105312
asVmomentum
p3697
(lp3698
F0
aF0
aF0
asa(dp3699
Vmagmom
p3700
F0
sVindex
p3701
I158
sVsymbol
p3702
VPd
p3703
sVcharge
p3704
F0
sVtag
p3705
I0
sVposition
p3706
(lp3707
F20.288523848099
aF-2.2061466371683455e-15
aF-18.014554389921656
asVmomentum
p3708
(lp3709
F0
aF0
aF0
asa(dp3710
Vmagmom
p3711
F0
sVindex
p3712
I159
sVsymbol
p3713
VPd
p3714
sVcharge
p3715
F0
sVtag
p3716
I0
sVposition
p3717
(lp3718
F12.912532180001628
aF-5.2725525043673152
aF-20.650830642105312
asVmomentum
p3719
(lp3720
F0
aF0
aF0
asa(dp3721
Vmagmom
p3722
F0
sVindex
p3723
I160
sVsymbol
p3724
VPd
p3725
sVcharge
p3726
F0
sVtag
p3727
I0
sVposition
p3728
(lp3729
F12.912532180001628
aF-2.636276252183658
aF-18.01455438992166
asVmomentum
p3730
(lp3731
F0
aF0
aF0
asa(dp3732
Vmagmom
p3733
F0
sVindex
p3734
I161
sVsymbol
p3735
VPd
p3736
sVcharge
p3737
F0
sVtag
p3738
I0
sVposition
p3739
(lp3740
F12.912532180001628
aF-2.5289973645588354e-15
aF-20.650830642105316
asVmomentum
p3741
(lp3742
F0
aF0
aF0
asa(dp3743
Vmagmom
p3744
F0
sVindex
p3745
I162
sVsymbol
p3746
VPd
p3747
sVcharge
p3748
F0
sVtag
p3749
I0
sVposition
p3750
(lp3751
F1.8463774384544749
aF-5.2725525043673125
aF-18.014554389921656
asVmomentum
p3752
(lp3753
F0
aF0
aF0
asa(dp3754
Vmagmom
p3755
F0
sVindex
p3756
I163
sVsymbol
p3757
VPd
p3758
sVcharge
p3759
F0
sVtag
p3760
I0
sVposition
p3761
(lp3762
F1.8463774384544749
aF-2.6362762521836567
aF-20.650830642105312
asVmomentum
p3763
(lp3764
F0
aF0
aF0
asa(dp3765
Vmagmom
p3766
F0
sVindex
p3767
I164
sVsymbol
p3768
VPd
p3769
sVcharge
p3770
F0
sVtag
p3771
I0
sVposition
p3772
(lp3773
F1.8463774384544749
aF-2.2061466371683455e-15
aF-18.014554389921656
asVmomentum
p3774
(lp3775
F0
aF0
aF0
asa(dp3776
Vmagmom
p3777
F0
sVindex
p3778
I165
sVsymbol
p3779
VPd
p3780
sVcharge
p3781
F0
sVtag
p3782
I0
sVposition
p3783
(lp3784
F5.5365405119042563
aF-5.2725525043673125
aF-18.014554389921656
asVmomentum
p3785
(lp3786
F0
aF0
aF0
asa(dp3787
Vmagmom
p3788
F0
sVindex
p3789
I166
sVsymbol
p3790
VPd
p3791
sVcharge
p3792
F0
sVtag
p3793
I0
sVposition
p3794
(lp3795
F5.5365405119042563
aF-2.6362762521836567
aF-20.650830642105312
asVmomentum
p3796
(lp3797
F0
aF0
aF0
asa(dp3798
Vmagmom
p3799
F0
sVindex
p3800
I167
sVsymbol
p3801
VPd
p3802
sVcharge
p3803
F0
sVtag
p3804
I0
sVposition
p3805
(lp3806
F5.5365405119042563
aF-2.2061466371683455e-15
aF-18.014554389921656
asVmomentum
p3807
(lp3808
F0
aF0
aF0
asasVcell
p3809
(lp3810
(lp3811
F25.825064360003257
aF0
aF0
aa(lp3812
F4.9303806576313238e-32
aF-7.9088287565509701
aF-2.6362762521836562
aa(lp3813
F0
aF-3.874208728685875e-15
aF-31.635315026203884
aasVmass
p3814
F12476.436000000016
sVpbc
p3815
(lp3816
I01
aI01
aI01
asVspacegroup
p3817
VPm (6)
p3818
sVconstraints
p3819
(lp3820
(dp3821
Vname
p3822
VFixAtoms
p3823
sVkwargs
p3824
(dp3825
Vindices
p3826
(lp3827
I1
aI5
aI7
aI11
aI13
aI17
aI19
aI23
aI25
aI29
aI32
aI34
aI38
aI41
aI43
aI46
aI50
aI53
aI55
aI59
aI61
aI65
aI67
aI71
aI73
aI77
aI79
aI82
aI84
aI85
aI86
aI87
aI88
aI89
aI90
aI91
aI92
aI93
aI94
aI95
aI96
aI97
aI98
aI99
aI100
aI101
aI102
aI103
aI104
aI105
aI106
aI107
aI108
aI109
aI110
aI111
aI112
aI113
aI114
aI115
aI116
aI117
aI118
aI119
aI120
aI121
aI122
aI123
aI124
aI125
aI126
aI127
aI128
aI129
aI130
aI131
aI132
aI133
aI134
aI135
aI136
aI137
aI138
aI139
aI140
aI141
aI142
aI143
aI144
aI145
aI146
aI147
aI148
aI149
aI150
aI151
aI152
aI153
aI154
aI155
aI156
aI157
aI158
aI159
aI160
aI161
aI162
aI163
aI164
aI165
aI166
aI167
assasaa(lp3828
g1889
ag2
((ltRp3829
aa(lp3830
g1892
ag1893
aa(lp3831
g1895
aS'a55f23554b35ee0761f8155b7fabb18b35b5af0a'
p3832
aa(lp3833
g1898
ag1899
(S'\x07\xe1\x03\x1f\x13+#\x0c\xca\xa8'
tRp3834
aa(lp3835
g1902
ag1899
(S'\x07\xe1\x03\x1f\x13+#\x0c\xca\xb3'
tRp3836
aa(lp3837
g1905
a(dp3838
g1907
g1917
sg1918
I00
sg1919
g1920
sg1921
I0
sg1922
g1936
sg1937
g1938
sg1939
I00
sg1940
g1941
sg1942
I168
saatRp3839
a.