(lp1
ccollections
OrderedDict
p2
((lp3
(lp4
S'atoms'
p5
a(dp6
Vinfo
p7
(dp8
sVvolume
p9
F2272.0309297138938
sVnatoms
p10
I60
sVsymbol_counts
p11
(dp12
VCu
p13
I48
sVPd
p14
I12
ssVchemical_symbols
p15
(lp16
VPd
p17
aVCu
p18
asVatoms
p19
(lp20
(dp21
Vmagmom
p22
F0
sVindex
p23
I0
sVsymbol
p24
VCu
p25
sVcharge
p26
F0
sVtag
p27
I0
sVposition
p28
(lp29
F8.3544983971071805
aF2.7343275112075949
aF15.72077441940543
asVmomentum
p30
(lp31
F0
aF0
aF0
asa(dp32
Vmagmom
p33
F0
sVindex
p34
I1
sVsymbol
p35
VCu
p36
sVcharge
p37
F0
sVtag
p38
I0
sVposition
p39
(lp40
F4.1772491985535902
aF5.4686550224151951
aF12.562790263607642
asVmomentum
p41
(lp42
F0
aF0
aF0
asa(dp43
Vmagmom
p44
F0
sVindex
p45
I2
sVsymbol
p46
VCu
p47
sVcharge
p48
F0
sVtag
p49
I0
sVposition
p50
(lp51
F4.1772491985535902
aF0
aF18.878758575203221
asVmomentum
p52
(lp53
F0
aF0
aF0
asa(dp54
Vmagmom
p55
F0
sVindex
p56
I3
sVsymbol
p57
VCu
p58
sVcharge
p59
F0
sVtag
p60
I0
sVposition
p61
(lp62
F8.3544983971071787
aF5.4686550224151924
aF18.088280578301266
asVmomentum
p63
(lp64
F0
aF0
aF0
asa(dp65
Vmagmom
p66
F0
sVindex
p67
I4
sVsymbol
p68
VCu
p69
sVcharge
p70
F0
sVtag
p71
I0
sVposition
p72
(lp73
F7.3363072862042981e-16
aF8.8817841970012523e-16
aF13.353268260509596
asVmomentum
p74
(lp75
F0
aF0
aF0
asa(dp76
Vmagmom
p77
F0
sVindex
p78
I5
sVsymbol
p79
VCu
p80
sVcharge
p81
F0
sVtag
p82
I0
sVposition
p83
(lp84
F4.1772491985535902
aF2.734327511207594
aF21.246264734099057
asVmomentum
p85
(lp86
F0
aF0
aF0
asa(dp87
Vmagmom
p88
F0
sVindex
p89
I6
sVsymbol
p90
VCu
p91
sVcharge
p92
F0
sVtag
p93
I0
sVposition
p94
(lp95
F8.3544983971071805
aF6.8358187780189921
aF13.74654334305556
asVmomentum
p96
(lp97
F0
aF0
aF0
asa(dp98
Vmagmom
p99
F0
sVindex
p100
I7
sVsymbol
p101
VCu
p102
sVcharge
p103
F0
sVtag
p104
I0
sVposition
p105
(lp106
F8.3544983971071822
aF1.3671637556037979
aF20.062511654651139
asVmomentum
p107
(lp108
F0
aF0
aF0
asa(dp109
Vmagmom
p110
F0
sVindex
p111
I8
sVsymbol
p112
VCu
p113
sVcharge
p114
F0
sVtag
p115
I0
sVposition
p116
(lp117
F4.1772491985535884
aF4.1014912668113954
aF16.904527498853351
asVmomentum
p118
(lp119
F0
aF0
aF0
asa(dp120
Vmagmom
p121
F0
sVindex
p122
I9
sVsymbol
p123
VCu
p124
sVcharge
p125
F0
sVtag
p126
I0
sVposition
p127
(lp128
F4.1772491985535902
aF1.3671637556037979
aF14.537021339957512
asVmomentum
p129
(lp130
F0
aF0
aF0
asa(dp131
Vmagmom
p132
F0
sVindex
p133
I10
sVsymbol
p134
VCu
p135
sVcharge
p136
F0
sVtag
p137
I0
sVposition
p138
(lp139
F8.3544983971071822
aF4.1014912668113972
aF22.430017813546975
asVmomentum
p140
(lp141
F0
aF0
aF0
asa(dp142
Vmagmom
p143
F0
sVindex
p144
I11
sVsymbol
p145
VCu
p146
sVcharge
p147
F0
sVtag
p148
I0
sVposition
p149
(lp150
F4.1772491985535911
aF6.8358187780189947
aF19.272033657749184
asVmomentum
p151
(lp152
F0
aF0
aF0
asa(dp153
Vmagmom
p154
F0
sVindex
p155
I12
sVsymbol
p156
VCu
p157
sVcharge
p158
F0
sVtag
p159
I0
sVposition
p160
(lp161
F5.8969386473442302
aF3.2916112934457686
aF15.077145100175136
asVmomentum
p162
(lp163
F0
aF0
aF0
asa(dp164
Vmagmom
p165
F0
sVindex
p166
I13
sVsymbol
p167
VCu
p168
sVcharge
p169
F0
sVtag
p170
I0
sVposition
p171
(lp172
F10.074187845897821
aF6.025938804653368
aF22.9701415737646
asVmomentum
p173
(lp174
F0
aF0
aF0
asa(dp175
Vmagmom
p176
F0
sVindex
p177
I14
sVsymbol
p178
VCu
p179
sVcharge
p180
F0
sVtag
p181
I0
sVposition
p182
(lp183
F1.7196894487906393
aF0.55728378223817288
aF18.235129255972929
asVmomentum
p184
(lp185
F0
aF0
aF0
asa(dp186
Vmagmom
p187
F0
sVindex
p188
I15
sVsymbol
p189
VCu
p190
sVcharge
p191
F0
sVtag
p192
I0
sVposition
p193
(lp194
F7.5031324860451196
aF3.8599951329022417
aF19.946186195798326
asVmomentum
p195
(lp196
F0
aF0
aF0
asa(dp197
Vmagmom
p198
F0
sVindex
p199
I16
sVsymbol
p200
VCu
p201
sVcharge
p202
F0
sVtag
p203
I0
sVposition
p204
(lp205
F11.680381684598711
aF6.5943226441098366
aF16.788202040000527
asVmomentum
p206
(lp207
F0
aF0
aF0
asa(dp208
Vmagmom
p209
F0
sVindex
p210
I17
sVsymbol
p211
VCu
p212
sVcharge
p213
F0
sVtag
p214
I0
sVposition
p215
(lp216
F3.3258832874915267
aF1.1256676216946415
aF12.053189722208861
asVmomentum
p217
(lp218
F0
aF0
aF0
asa(dp219
Vmagmom
p220
F0
sVindex
p221
I18
sVsymbol
p222
VCu
p223
sVcharge
p224
F0
sVtag
p225
I0
sVposition
p226
(lp227
F9.2058643081692466
aF7.0773149119281475
aF16.230374960804212
asVmomentum
p228
(lp229
F0
aF0
aF0
asa(dp230
Vmagmom
p231
F0
sVindex
p232
I19
sVsymbol
p233
VCu
p234
sVcharge
p235
F0
sVtag
p236
I0
sVposition
p237
(lp238
F0.85136591106206205
aF1.6086598895129542
aF11.495362643012541
asVmomentum
p239
(lp240
F0
aF0
aF0
asa(dp241
Vmagmom
p242
F0
sVindex
p243
I20
sVsymbol
p244
VCu
p245
sVcharge
p246
F0
sVtag
p247
I0
sVposition
p248
(lp249
F5.0286151096156537
aF4.3429874007205491
aF19.388359116602008
asVmomentum
p250
(lp251
F0
aF0
aF0
asa(dp252
Vmagmom
p253
F0
sVindex
p254
I21
sVsymbol
p255
VCu
p256
sVcharge
p257
F0
sVtag
p258
I0
sVposition
p259
(lp260
F2.4575597497629502
aF2.1770437289694247
aF16.36440373863573
asVmomentum
p261
(lp262
F0
aF0
aF0
asa(dp263
Vmagmom
p264
F0
sVindex
p265
I22
sVsymbol
p266
VCu
p267
sVcharge
p268
F0
sVtag
p269
I0
sVposition
p270
(lp271
F6.6348089483165422
aF4.9113712401770231
aF13.206419582837938
asVmomentum
p272
(lp273
F0
aF0
aF0
asa(dp274
Vmagmom
p275
F0
sVindex
p276
I23
sVsymbol
p277
VCu
p278
sVcharge
p279
F0
sVtag
p280
I0
sVposition
p281
(lp282
F10.812058146870132
aF7.6456987513846189
aF21.099416056427401
asVmomentum
p283
(lp284
F0
aF0
aF0
asa(dp285
Vmagmom
p286
F0
sVindex
p287
I24
sVsymbol
p288
VCu
p289
sVcharge
p290
F0
sVtag
p291
I0
sVposition
p292
(lp293
F9.1917137929641619
aF3.0202309285549216
aF18.145001211662905
asVmomentum
p294
(lp295
F0
aF0
aF0
asa(dp296
Vmagmom
p297
F0
sVindex
p298
I25
sVsymbol
p299
VCu
p300
sVcharge
p301
F0
sVtag
p302
I0
sVposition
p303
(lp304
F5.0144645944105699
aF5.7545584397625182
aF14.987017055865115
asVmomentum
p305
(lp306
F0
aF0
aF0
asa(dp307
Vmagmom
p308
F0
sVindex
p309
I26
sVsymbol
p310
VCu
p311
sVcharge
p312
F0
sVtag
p313
I0
sVposition
p314
(lp315
F5.014464594410569
aF0.28590341734732583
aF21.302985367460696
asVmomentum
p316
(lp317
F0
aF0
aF0
asa(dp318
Vmagmom
p319
F0
sVindex
p320
I27
sVsymbol
p321
VCu
p322
sVcharge
p323
F0
sVtag
p324
I0
sVposition
p325
(lp326
F10.000058882890192
aF7.3797242066699793
aF18.635538455385841
asVmomentum
p327
(lp328
F0
aF0
aF0
asa(dp329
Vmagmom
p330
F0
sVindex
p331
I28
sVsymbol
p332
VCu
p333
sVcharge
p334
F0
sVtag
p335
I0
sVposition
p336
(lp337
F1.6455604857830117
aF1.911069184254786
aF13.900526137594174
asVmomentum
p338
(lp339
F0
aF0
aF0
asa(dp340
Vmagmom
p341
F0
sVindex
p342
I29
sVsymbol
p343
VCu
p344
sVcharge
p345
F0
sVtag
p346
I0
sVposition
p347
(lp348
F5.8228096843366028
aF4.6453966954623844
aF21.793522611183633
asVmomentum
p349
(lp350
F0
aF0
aF0
asa(dp351
Vmagmom
p352
F0
sVindex
p353
I30
sVsymbol
p354
VCu
p355
sVcharge
p356
F0
sVtag
p357
I0
sVposition
p358
(lp359
F6.7089379113241705
aF6.2836818204551648
aF19.901401624871539
asVmomentum
p360
(lp361
F0
aF0
aF0
asa(dp362
Vmagmom
p363
F0
sVindex
p364
I31
sVsymbol
p365
VCu
p366
sVcharge
p367
F0
sVtag
p368
I0
sVposition
p369
(lp370
F6.7089379113241696
aF0.81502679803997236
aF15.16638930707987
asVmomentum
p371
(lp372
F0
aF0
aF0
asa(dp373
Vmagmom
p374
F0
sVindex
p375
I32
sVsymbol
p376
VCu
p377
sVcharge
p378
F0
sVtag
p379
I0
sVposition
p380
(lp381
F2.5316887127705798
aF3.5493543092475681
aF12.008405151282078
asVmomentum
p382
(lp383
F0
aF0
aF0
asa(dp384
Vmagmom
p385
F0
sVindex
p386
I33
sVsymbol
p387
VCu
p388
sVcharge
p389
F0
sVtag
p390
I0
sVposition
p391
(lp392
F7.5172830012502017
aF5.1745200761550301
aF15.656926550802812
asVmomentum
p393
(lp394
F0
aF0
aF0
asa(dp395
Vmagmom
p396
F0
sVindex
p397
I34
sVsymbol
p398
VCu
p399
sVcharge
p400
F0
sVtag
p401
I0
sVposition
p402
(lp403
F11.694532199803794
aF7.9088475873626258
aF23.549923024392271
asVmomentum
p404
(lp405
F0
aF0
aF0
asa(dp406
Vmagmom
p407
F0
sVindex
p408
I35
sVsymbol
p409
VCu
p410
sVcharge
p411
F0
sVtag
p412
I0
sVposition
p413
(lp414
F3.3400338026966119
aF2.4401925649474325
aF18.8149107066006
asVmomentum
p415
(lp416
F0
aF0
aF0
asa(dp417
Vmagmom
p418
F0
sVindex
p419
I36
sVsymbol
p420
VCu
p421
sVcharge
p422
F0
sVtag
p423
I0
sVposition
p424
(lp425
F7.5172830012502017
aF7.9170791162754641
aF18.03155994493963
asVmomentum
p426
(lp427
F0
aF0
aF0
asa(dp428
Vmagmom
p429
F0
sVindex
p430
I37
sVsymbol
p431
VCu
p432
sVcharge
p433
F0
sVtag
p434
I0
sVposition
p435
(lp436
F7.5172830012502017
aF2.4484240938602726
aF13.296547627147962
asVmomentum
p437
(lp438
F0
aF0
aF0
asa(dp439
Vmagmom
p440
F0
sVindex
p441
I38
sVsymbol
p442
VCu
p443
sVcharge
p444
F0
sVtag
p445
I0
sVposition
p446
(lp447
F3.3400338026966128
aF5.1827516050678692
aF21.189544100737422
asVmomentum
p448
(lp449
F0
aF0
aF0
asa(dp450
Vmagmom
p451
F0
sVindex
p452
I39
sVsymbol
p453
VCu
p454
sVcharge
p455
F0
sVtag
p456
I0
sVposition
p457
(lp458
F6.7089379113241696
aF3.5575858381604064
aF17.54102270121669
asVmomentum
p459
(lp460
F0
aF0
aF0
asa(dp461
Vmagmom
p462
F0
sVindex
p463
I40
sVsymbol
p464
VCu
p465
sVcharge
p466
F0
sVtag
p467
I0
sVposition
p468
(lp469
F10.886187109877762
aF6.2919133493680057
aF14.3830385454189
asVmomentum
p470
(lp471
F0
aF0
aF0
asa(dp472
Vmagmom
p473
F0
sVindex
p474
I41
sVsymbol
p475
VCu
p476
sVcharge
p477
F0
sVtag
p478
I0
sVposition
p479
(lp480
F2.5316887127705798
aF0.82325832695281242
aF20.699006857014481
asVmomentum
p481
(lp482
F0
aF0
aF0
asa(dp483
Vmagmom
p484
F0
sVindex
p485
I42
sVsymbol
p486
VCu
p487
sVcharge
p488
F0
sVtag
p489
I0
sVposition
p490
(lp491
F10.000058882890192
aF4.6536282243752192
aF16.275159531730992
asVmomentum
p492
(lp493
F0
aF0
aF0
asa(dp494
Vmagmom
p495
F0
sVindex
p496
I43
sVsymbol
p497
VCu
p498
sVcharge
p499
F0
sVtag
p500
I0
sVposition
p501
(lp502
F5.8228096843366011
aF7.3879557355828194
aF13.117175375933204
asVmomentum
p503
(lp504
F0
aF0
aF0
asa(dp505
Vmagmom
p506
F0
sVindex
p507
I44
sVsymbol
p508
VCu
p509
sVcharge
p510
F0
sVtag
p511
I0
sVposition
p512
(lp513
F5.8228096843366028
aF1.9193007131676261
aF19.433143687528784
asVmomentum
p514
(lp515
F0
aF0
aF0
asa(dp516
Vmagmom
p517
F0
sVindex
p518
I45
sVsymbol
p519
VCu
p520
sVcharge
p521
F0
sVtag
p522
I0
sVposition
p523
(lp524
F9.1917137929641619
aF5.7627899686753583
aF20.519634605799727
asVmomentum
p525
(lp526
F0
aF0
aF0
asa(dp527
Vmagmom
p528
F0
sVindex
p529
I46
sVsymbol
p530
VCu
p531
sVcharge
p532
F0
sVtag
p533
I0
sVposition
p534
(lp535
F0.83721539585697968
aF0.29413494626016412
aF15.784622288008055
asVmomentum
p536
(lp537
F0
aF0
aF0
asa(dp538
Vmagmom
p539
F0
sVindex
p540
I47
sVsymbol
p541
VCu
p542
sVcharge
p543
F0
sVtag
p544
I0
sVposition
p545
(lp546
F5.0144645944105699
aF3.0284624574677617
aF12.626638132210267
asVmomentum
p547
(lp548
F0
aF0
aF0
asa(dp549
Vmagmom
p550
F0
sVindex
p551
I48
sVsymbol
p552
VPd
p553
sVcharge
p554
F0
sVtag
p555
I0
sVposition
p556
(lp557
F7.560292961538317
aF1.0792472169696232
aF17.632292818117051
asVmomentum
p558
(lp559
F0
aF0
aF0
asa(dp560
Vmagmom
p561
F0
sVindex
p562
I49
sVsymbol
p563
VPd
p564
sVcharge
p565
F0
sVtag
p566
I0
sVposition
p567
(lp568
F3.3830437629847276
aF3.8135747281772181
aF14.47430866231926
asVmomentum
p569
(lp570
F0
aF0
aF0
asa(dp571
Vmagmom
p572
F0
sVindex
p573
I50
sVsymbol
p574
VPd
p575
sVcharge
p576
F0
sVtag
p577
I0
sVposition
p578
(lp579
F7.5602929615383196
aF6.5479022393848183
aF22.367305135908722
asVmomentum
p580
(lp581
F0
aF0
aF0
asa(dp582
Vmagmom
p583
F0
sVindex
p584
I51
sVsymbol
p585
VPd
p586
sVcharge
p587
F0
sVtag
p588
I0
sVposition
p589
(lp590
F2.5284764916818756
aF4.9487871216017822
aF18.688696800259823
asVmomentum
p591
(lp592
F0
aF0
aF0
asa(dp593
Vmagmom
p594
F0
sVindex
p595
I52
sVsymbol
p596
VPd
p597
sVcharge
p598
F0
sVtag
p599
I0
sVposition
p600
(lp601
F6.7057256902354672
aF7.6831146328093816
aF15.530712644462033
asVmomentum
p602
(lp603
F0
aF0
aF0
asa(dp604
Vmagmom
p605
F0
sVindex
p606
I53
sVsymbol
p607
VPd
p608
sVcharge
p609
F0
sVtag
p610
I0
sVposition
p611
(lp612
F6.7057256902354672
aF2.2144596103941865
aF21.846680956057618
asVmomentum
p613
(lp614
F0
aF0
aF0
asa(dp615
Vmagmom
p616
F0
sVindex
p617
I54
sVsymbol
p618
VPd
p619
sVcharge
p620
F0
sVtag
p621
I0
sVposition
p622
(lp623
F5.8260219054253026
aF5.9885229232286035
aF17.487864356342712
asVmomentum
p624
(lp625
F0
aF0
aF0
asa(dp626
Vmagmom
p627
F0
sVindex
p628
I55
sVsymbol
p629
VPd
p630
sVcharge
p631
F0
sVtag
p632
I0
sVposition
p633
(lp634
F5.8260219054253044
aF0.51986790081341105
aF12.752852038551044
asVmomentum
p635
(lp636
F0
aF0
aF0
asa(dp637
Vmagmom
p638
F0
sVindex
p639
I56
sVsymbol
p640
VPd
p641
sVcharge
p642
F0
sVtag
p643
I0
sVposition
p644
(lp645
F10.003271103978893
aF3.2541954120210068
aF20.6458485121405
asVmomentum
p646
(lp647
F0
aF0
aF0
asa(dp648
Vmagmom
p649
F0
sVindex
p650
I57
sVsymbol
p651
VPd
p652
sVcharge
p653
F0
sVtag
p654
I0
sVposition
p655
(lp656
F9.1487038326760466
aF4.3894078054455719
aF13.809256020693812
asVmomentum
p657
(lp658
F0
aF0
aF0
asa(dp659
Vmagmom
p660
F0
sVindex
p661
I58
sVsymbol
p662
VPd
p663
sVcharge
p664
F0
sVtag
p665
I0
sVposition
p666
(lp667
F4.9714546341224537
aF7.1237353166531712
aF21.702252494283279
asVmomentum
p668
(lp669
F0
aF0
aF0
asa(dp670
Vmagmom
p671
F0
sVindex
p672
I59
sVsymbol
p673
VPd
p674
sVcharge
p675
F0
sVtag
p676
I0
sVposition
p677
(lp678
F4.9714546341224537
aF1.6550802942379761
aF16.967240176491607
asVmomentum
p679
(lp680
F0
aF0
aF0
asasVcell
p681
(lp682
(lp683
F8.3544983971071805
aF0
aF4.4408920985006262e-16
aa(lp684
F4.1772491985535911
aF8.2029825336227908
aF1.5770281619938813
aa(lp685
F4.5071176484954476e-17
aF0
aF33.152941888161756
aasVmass
p686
F4327.2479999999987
sVpbc
p687
(lp688
I01
aI01
aI01
asVspacegroup
p689
VP1 (1)
p690
sVconstraints
p691
(lp692
(dp693
Vname
p694
VFixAtoms
p695
sVkwargs
p696
(dp697
Vindices
p698
(lp699
I0
aI1
aI2
aI3
aI4
aI6
aI8
aI9
aI11
aI12
aI14
aI16
aI17
aI18
aI19
aI20
aI21
aI22
aI24
aI25
aI27
aI28
aI30
aI31
aI32
aI33
aI35
aI36
aI37
aI39
aI40
aI42
aI43
aI46
aI47
aI48
aI49
aI51
aI52
aI54
aI55
aI57
aI59
assasaa(lp700
S'results'
p701
ag2
((ltRp702
aa(lp703
S'user'
p704
aS'ktran'
p705
aa(lp706
S'inserted-hash'
p707
aS'e459f86138ce7bdc9a9a51e807a1de196bf9354a'
p708
aa(lp709
S'ctime'
p710
acdatetime
datetime
p711
(S'\x07\xe1\x03\x1f\x13,;\x02\x9a:'
tRp712
aa(lp713
S'mtime'
p714
ag711
(S'\x07\xe1\x03\x1f\x13,;\x02\x9a_'
tRp715
aa(lp716
S'tags'
p717
a(dp718
S'get_slab_settings'
p719
g2
((lp720
(lp721
S'max_broken_bonds'
p722
aI0
aa(lp723
S'bonds'
p724
aNaa(lp725
S'tol'
p726
aF0.29999999999999999
aa(lp727
S'symmetrize'
p728
aI00
aatRp729
sS'relaxed'
p730
I00
sS'mpid'
p731
Vmp-30594
p732
sS'shift'
p733
I0
sS'slab_generate_settings'
p734
g2
((lp735
(lp736
S'primitive'
p737
aI01
aa(lp738
S'min_vacuum_size'
p739
aF20
aa(lp740
S'lll_reduce'
p741
aI00
aa(lp742
S'max_normal_search'
p743
aI1
aa(lp744
S'min_slab_size'
p745
aF7
aa(lp746
S'center_slab'
p747
aI01
aatRp748
sS'miller'
p749
(I1
I1
I1
tp750
sS'top'
p751
I01
sS'type'
p752
S'slab'
p753
sS'num_slab_atoms'
p754
I60
saatRp755
ag2
((lp756
(lp757
g5
a(dp758
Vinfo
p759
(dp760
sVvolume
p761
F2272.0309297138938
sVnatoms
p762
I60
sVsymbol_counts
p763
(dp764
VCu
p765
I48
sVPd
p766
I12
ssVchemical_symbols
p767
(lp768
VPd
p769
aVCu
p770
asVatoms
p771
(lp772
(dp773
Vmagmom
p774
F0
sVindex
p775
I0
sVsymbol
p776
VCu
p777
sVcharge
p778
F0
sVtag
p779
I0
sVposition
p780
(lp781
F8.3544983971071805
aF-2.7343275112075967
aF-15.72077441940543
asVmomentum
p782
(lp783
F0
aF0
aF0
asa(dp784
Vmagmom
p785
F0
sVindex
p786
I1
sVsymbol
p787
VCu
p788
sVcharge
p789
F0
sVtag
p790
I0
sVposition
p791
(lp792
F4.1772491985535902
aF-5.4686550224151969
aF-12.562790263607642
asVmomentum
p793
(lp794
F0
aF0
aF0
asa(dp795
Vmagmom
p796
F0
sVindex
p797
I2
sVsymbol
p798
VCu
p799
sVcharge
p800
F0
sVtag
p801
I0
sVposition
p802
(lp803
F4.1772491985535902
aF-2.3119811260998271e-15
aF-18.878758575203221
asVmomentum
p804
(lp805
F0
aF0
aF0
asa(dp806
Vmagmom
p807
F0
sVindex
p808
I3
sVsymbol
p809
VCu
p810
sVcharge
p811
F0
sVtag
p812
I0
sVposition
p813
(lp814
F8.3544983971071787
aF-5.4686550224151942
aF-18.088280578301266
asVmomentum
p815
(lp816
F0
aF0
aF0
asa(dp817
Vmagmom
p818
F0
sVindex
p819
I4
sVsymbol
p820
VCu
p821
sVcharge
p822
F0
sVtag
p823
I0
sVposition
p824
(lp825
F7.3363072862042981e-16
aF-2.5234821430390276e-15
aF-13.353268260509596
asVmomentum
p826
(lp827
F0
aF0
aF0
asa(dp828
Vmagmom
p829
F0
sVindex
p830
I5
sVsymbol
p831
VCu
p832
sVcharge
p833
F0
sVtag
p834
I0
sVposition
p835
(lp836
F4.1772491985535902
aF-2.7343275112075967
aF-21.246264734099057
asVmomentum
p837
(lp838
F0
aF0
aF0
asa(dp839
Vmagmom
p840
F0
sVindex
p841
I6
sVsymbol
p842
VCu
p843
sVcharge
p844
F0
sVtag
p845
I0
sVposition
p846
(lp847
F8.3544983971071805
aF-6.8358187780189938
aF-13.74654334305556
asVmomentum
p848
(lp849
F0
aF0
aF0
asa(dp850
Vmagmom
p851
F0
sVindex
p852
I7
sVsymbol
p853
VCu
p854
sVcharge
p855
F0
sVtag
p856
I0
sVposition
p857
(lp858
F8.3544983971071822
aF-1.3671637556038003
aF-20.062511654651139
asVmomentum
p859
(lp860
F0
aF0
aF0
asa(dp861
Vmagmom
p862
F0
sVindex
p863
I8
sVsymbol
p864
VCu
p865
sVcharge
p866
F0
sVtag
p867
I0
sVposition
p868
(lp869
F4.1772491985535884
aF-4.1014912668113972
aF-16.904527498853351
asVmomentum
p870
(lp871
F0
aF0
aF0
asa(dp872
Vmagmom
p873
F0
sVindex
p874
I9
sVsymbol
p875
VCu
p876
sVcharge
p877
F0
sVtag
p878
I0
sVposition
p879
(lp880
F4.1772491985535902
aF-1.3671637556037997
aF-14.537021339957512
asVmomentum
p881
(lp882
F0
aF0
aF0
asa(dp883
Vmagmom
p884
F0
sVindex
p885
I10
sVsymbol
p886
VCu
p887
sVcharge
p888
F0
sVtag
p889
I0
sVposition
p890
(lp891
F8.3544983971071822
aF-4.1014912668113999
aF-22.430017813546975
asVmomentum
p892
(lp893
F0
aF0
aF0
asa(dp894
Vmagmom
p895
F0
sVindex
p896
I11
sVsymbol
p897
VCu
p898
sVcharge
p899
F0
sVtag
p900
I0
sVposition
p901
(lp902
F4.1772491985535911
aF-6.8358187780189974
aF-19.272033657749184
asVmomentum
p903
(lp904
F0
aF0
aF0
asa(dp905
Vmagmom
p906
F0
sVindex
p907
I12
sVsymbol
p908
VCu
p909
sVcharge
p910
F0
sVtag
p911
I0
sVposition
p912
(lp913
F5.8969386473442302
aF-3.2916112934457704
aF-15.077145100175136
asVmomentum
p914
(lp915
F0
aF0
aF0
asa(dp916
Vmagmom
p917
F0
sVindex
p918
I13
sVsymbol
p919
VCu
p920
sVcharge
p921
F0
sVtag
p922
I0
sVposition
p923
(lp924
F10.074187845897821
aF-6.0259388046533706
aF-22.9701415737646
asVmomentum
p925
(lp926
F0
aF0
aF0
asa(dp927
Vmagmom
p928
F0
sVindex
p929
I14
sVsymbol
p930
VCu
p931
sVcharge
p932
F0
sVtag
p933
I0
sVposition
p934
(lp935
F1.7196894487906393
aF-0.5572837822381751
aF-18.235129255972929
asVmomentum
p936
(lp937
F0
aF0
aF0
asa(dp938
Vmagmom
p939
F0
sVindex
p940
I15
sVsymbol
p941
VCu
p942
sVcharge
p943
F0
sVtag
p944
I0
sVposition
p945
(lp946
F7.5031324860451196
aF-3.8599951329022444
aF-19.946186195798326
asVmomentum
p947
(lp948
F0
aF0
aF0
asa(dp949
Vmagmom
p950
F0
sVindex
p951
I16
sVsymbol
p952
VCu
p953
sVcharge
p954
F0
sVtag
p955
I0
sVposition
p956
(lp957
F11.680381684598711
aF-6.5943226441098384
aF-16.788202040000527
asVmomentum
p958
(lp959
F0
aF0
aF0
asa(dp960
Vmagmom
p961
F0
sVindex
p962
I17
sVsymbol
p963
VCu
p964
sVcharge
p965
F0
sVtag
p966
I0
sVposition
p967
(lp968
F3.3258832874915267
aF-1.1256676216946431
aF-12.053189722208861
asVmomentum
p969
(lp970
F0
aF0
aF0
asa(dp971
Vmagmom
p972
F0
sVindex
p973
I18
sVsymbol
p974
VCu
p975
sVcharge
p976
F0
sVtag
p977
I0
sVposition
p978
(lp979
F9.2058643081692466
aF-7.0773149119281493
aF-16.230374960804212
asVmomentum
p980
(lp981
F0
aF0
aF0
asa(dp982
Vmagmom
p983
F0
sVindex
p984
I19
sVsymbol
p985
VCu
p986
sVcharge
p987
F0
sVtag
p988
I0
sVposition
p989
(lp990
F0.85136591106206205
aF-1.6086598895129556
aF-11.495362643012541
asVmomentum
p991
(lp992
F0
aF0
aF0
asa(dp993
Vmagmom
p994
F0
sVindex
p995
I20
sVsymbol
p996
VCu
p997
sVcharge
p998
F0
sVtag
p999
I0
sVposition
p1000
(lp1001
F5.0286151096156537
aF-4.3429874007205518
aF-19.388359116602008
asVmomentum
p1002
(lp1003
F0
aF0
aF0
asa(dp1004
Vmagmom
p1005
F0
sVindex
p1006
I21
sVsymbol
p1007
VCu
p1008
sVcharge
p1009
F0
sVtag
p1010
I0
sVposition
p1011
(lp1012
F2.4575597497629502
aF-2.1770437289694269
aF-16.36440373863573
asVmomentum
p1013
(lp1014
F0
aF0
aF0
asa(dp1015
Vmagmom
p1016
F0
sVindex
p1017
I22
sVsymbol
p1018
VCu
p1019
sVcharge
p1020
F0
sVtag
p1021
I0
sVposition
p1022
(lp1023
F6.6348089483165422
aF-4.9113712401770249
aF-13.206419582837938
asVmomentum
p1024
(lp1025
F0
aF0
aF0
asa(dp1026
Vmagmom
p1027
F0
sVindex
p1028
I23
sVsymbol
p1029
VCu
p1030
sVcharge
p1031
F0
sVtag
p1032
I0
sVposition
p1033
(lp1034
F10.812058146870132
aF-7.6456987513846215
aF-21.099416056427401
asVmomentum
p1035
(lp1036
F0
aF0
aF0
asa(dp1037
Vmagmom
p1038
F0
sVindex
p1039
I24
sVsymbol
p1040
VCu
p1041
sVcharge
p1042
F0
sVtag
p1043
I0
sVposition
p1044
(lp1045
F9.1917137929641619
aF-3.0202309285549238
aF-18.145001211662905
asVmomentum
p1046
(lp1047
F0
aF0
aF0
asa(dp1048
Vmagmom
p1049
F0
sVindex
p1050
I25
sVsymbol
p1051
VCu
p1052
sVcharge
p1053
F0
sVtag
p1054
I0
sVposition
p1055
(lp1056
F5.0144645944105699
aF-5.75455843976252
aF-14.987017055865115
asVmomentum
p1057
(lp1058
F0
aF0
aF0
asa(dp1059
Vmagmom
p1060
F0
sVindex
p1061
I26
sVsymbol
p1062
VCu
p1063
sVcharge
p1064
F0
sVtag
p1065
I0
sVposition
p1066
(lp1067
F5.014464594410569
aF-0.28590341734732844
aF-21.302985367460696
asVmomentum
p1068
(lp1069
F0
aF0
aF0
asa(dp1070
Vmagmom
p1071
F0
sVindex
p1072
I27
sVsymbol
p1073
VCu
p1074
sVcharge
p1075
F0
sVtag
p1076
I0
sVposition
p1077
(lp1078
F10.000058882890192
aF-7.379724206669982
aF-18.635538455385841
asVmomentum
p1079
(lp1080
F0
aF0
aF0
asa(dp1081
Vmagmom
p1082
F0
sVindex
p1083
I28
sVsymbol
p1084
VCu
p1085
sVcharge
p1086
F0
sVtag
p1087
I0
sVposition
p1088
(lp1089
F1.6455604857830117
aF-1.9110691842547878
aF-13.900526137594174
asVmomentum
p1090
(lp1091
F0
aF0
aF0
asa(dp1092
Vmagmom
p1093
F0
sVindex
p1094
I29
sVsymbol
p1095
VCu
p1096
sVcharge
p1097
F0
sVtag
p1098
I0
sVposition
p1099
(lp1100
F5.8228096843366028
aF-4.6453966954623871
aF-21.793522611183633
asVmomentum
p1101
(lp1102
F0
aF0
aF0
asa(dp1103
Vmagmom
p1104
F0
sVindex
p1105
I30
sVsymbol
p1106
VCu
p1107
sVcharge
p1108
F0
sVtag
p1109
I0
sVposition
p1110
(lp1111
F6.7089379113241705
aF-6.2836818204551674
aF-19.901401624871539
asVmomentum
p1112
(lp1113
F0
aF0
aF0
asa(dp1114
Vmagmom
p1115
F0
sVindex
p1116
I31
sVsymbol
p1117
VCu
p1118
sVcharge
p1119
F0
sVtag
p1120
I0
sVposition
p1121
(lp1122
F6.7089379113241696
aF-0.81502679803997424
aF-15.16638930707987
asVmomentum
p1123
(lp1124
F0
aF0
aF0
asa(dp1125
Vmagmom
p1126
F0
sVindex
p1127
I32
sVsymbol
p1128
VCu
p1129
sVcharge
p1130
F0
sVtag
p1131
I0
sVposition
p1132
(lp1133
F2.5316887127705798
aF-3.5493543092475695
aF-12.008405151282078
asVmomentum
p1134
(lp1135
F0
aF0
aF0
asa(dp1136
Vmagmom
p1137
F0
sVindex
p1138
I33
sVsymbol
p1139
VCu
p1140
sVcharge
p1141
F0
sVtag
p1142
I0
sVposition
p1143
(lp1144
F7.5172830012502017
aF-5.1745200761550318
aF-15.656926550802812
asVmomentum
p1145
(lp1146
F0
aF0
aF0
asa(dp1147
Vmagmom
p1148
F0
sVindex
p1149
I34
sVsymbol
p1150
VCu
p1151
sVcharge
p1152
F0
sVtag
p1153
I0
sVposition
p1154
(lp1155
F11.694532199803794
aF-7.9088475873626285
aF-23.549923024392271
asVmomentum
p1156
(lp1157
F0
aF0
aF0
asa(dp1158
Vmagmom
p1159
F0
sVindex
p1160
I35
sVsymbol
p1161
VCu
p1162
sVcharge
p1163
F0
sVtag
p1164
I0
sVposition
p1165
(lp1166
F3.3400338026966119
aF-2.4401925649474348
aF-18.8149107066006
asVmomentum
p1167
(lp1168
F0
aF0
aF0
asa(dp1169
Vmagmom
p1170
F0
sVindex
p1171
I36
sVsymbol
p1172
VCu
p1173
sVcharge
p1174
F0
sVtag
p1175
I0
sVposition
p1176
(lp1177
F7.5172830012502017
aF-7.9170791162754659
aF-18.03155994493963
asVmomentum
p1178
(lp1179
F0
aF0
aF0
asa(dp1180
Vmagmom
p1181
F0
sVindex
p1182
I37
sVsymbol
p1183
VCu
p1184
sVcharge
p1185
F0
sVtag
p1186
I0
sVposition
p1187
(lp1188
F7.5172830012502017
aF-2.4484240938602744
aF-13.296547627147962
asVmomentum
p1189
(lp1190
F0
aF0
aF0
asa(dp1191
Vmagmom
p1192
F0
sVindex
p1193
I38
sVsymbol
p1194
VCu
p1195
sVcharge
p1196
F0
sVtag
p1197
I0
sVposition
p1198
(lp1199
F3.3400338026966128
aF-5.1827516050678719
aF-21.189544100737422
asVmomentum
p1200
(lp1201
F0
aF0
aF0
asa(dp1202
Vmagmom
p1203
F0
sVindex
p1204
I39
sVsymbol
p1205
VCu
p1206
sVcharge
p1207
F0
sVtag
p1208
I0
sVposition
p1209
(lp1210
F6.7089379113241696
aF-3.5575858381604086
aF-17.54102270121669
asVmomentum
p1211
(lp1212
F0
aF0
aF0
asa(dp1213
Vmagmom
p1214
F0
sVindex
p1215
I40
sVsymbol
p1216
VCu
p1217
sVcharge
p1218
F0
sVtag
p1219
I0
sVposition
p1220
(lp1221
F10.886187109877762
aF-6.2919133493680075
aF-14.3830385454189
asVmomentum
p1222
(lp1223
F0
aF0
aF0
asa(dp1224
Vmagmom
p1225
F0
sVindex
p1226
I41
sVsymbol
p1227
VCu
p1228
sVcharge
p1229
F0
sVtag
p1230
I0
sVposition
p1231
(lp1232
F2.5316887127705798
aF-0.82325832695281498
aF-20.699006857014481
asVmomentum
p1233
(lp1234
F0
aF0
aF0
asa(dp1235
Vmagmom
p1236
F0
sVindex
p1237
I42
sVsymbol
p1238
VCu
p1239
sVcharge
p1240
F0
sVtag
p1241
I0
sVposition
p1242
(lp1243
F10.000058882890192
aF-4.6536282243752209
aF-16.275159531730992
asVmomentum
p1244
(lp1245
F0
aF0
aF0
asa(dp1246
Vmagmom
p1247
F0
sVindex
p1248
I43
sVsymbol
p1249
VCu
p1250
sVcharge
p1251
F0
sVtag
p1252
I0
sVposition
p1253
(lp1254
F5.8228096843366011
aF-7.3879557355828211
aF-13.117175375933202
asVmomentum
p1255
(lp1256
F0
aF0
aF0
asa(dp1257
Vmagmom
p1258
F0
sVindex
p1259
I44
sVsymbol
p1260
VCu
p1261
sVcharge
p1262
F0
sVtag
p1263
I0
sVposition
p1264
(lp1265
F5.8228096843366028
aF-1.9193007131676285
aF-19.433143687528784
asVmomentum
p1266
(lp1267
F0
aF0
aF0
asa(dp1268
Vmagmom
p1269
F0
sVindex
p1270
I45
sVsymbol
p1271
VCu
p1272
sVcharge
p1273
F0
sVtag
p1274
I0
sVposition
p1275
(lp1276
F9.1917137929641619
aF-5.762789968675361
aF-20.519634605799727
asVmomentum
p1277
(lp1278
F0
aF0
aF0
asa(dp1279
Vmagmom
p1280
F0
sVindex
p1281
I46
sVsymbol
p1282
VCu
p1283
sVcharge
p1284
F0
sVtag
p1285
I0
sVposition
p1286
(lp1287
F0.83721539585697968
aF-0.29413494626016606
aF-15.784622288008055
asVmomentum
p1288
(lp1289
F0
aF0
aF0
asa(dp1290
Vmagmom
p1291
F0
sVindex
p1292
I47
sVsymbol
p1293
VCu
p1294
sVcharge
p1295
F0
sVtag
p1296
I0
sVposition
p1297
(lp1298
F5.0144645944105699
aF-3.028462457467763
aF-12.626638132210267
asVmomentum
p1299
(lp1300
F0
aF0
aF0
asa(dp1301
Vmagmom
p1302
F0
sVindex
p1303
I48
sVsymbol
p1304
VPd
p1305
sVcharge
p1306
F0
sVtag
p1307
I0
sVposition
p1308
(lp1309
F7.560292961538317
aF-1.0792472169696254
aF-17.632292818117051
asVmomentum
p1310
(lp1311
F0
aF0
aF0
asa(dp1312
Vmagmom
p1313
F0
sVindex
p1314
I49
sVsymbol
p1315
VPd
p1316
sVcharge
p1317
F0
sVtag
p1318
I0
sVposition
p1319
(lp1320
F3.3830437629847276
aF-3.8135747281772199
aF-14.47430866231926
asVmomentum
p1321
(lp1322
F0
aF0
aF0
asa(dp1323
Vmagmom
p1324
F0
sVindex
p1325
I50
sVsymbol
p1326
VPd
p1327
sVcharge
p1328
F0
sVtag
p1329
I0
sVposition
p1330
(lp1331
F7.5602929615383196
aF-6.547902239384821
aF-22.367305135908722
asVmomentum
p1332
(lp1333
F0
aF0
aF0
asa(dp1334
Vmagmom
p1335
F0
sVindex
p1336
I51
sVsymbol
p1337
VPd
p1338
sVcharge
p1339
F0
sVtag
p1340
I0
sVposition
p1341
(lp1342
F2.5284764916818756
aF-4.9487871216017849
aF-18.688696800259823
asVmomentum
p1343
(lp1344
F0
aF0
aF0
asa(dp1345
Vmagmom
p1346
F0
sVindex
p1347
I52
sVsymbol
p1348
VPd
p1349
sVcharge
p1350
F0
sVtag
p1351
I0
sVposition
p1352
(lp1353
F6.7057256902354672
aF-7.6831146328093833
aF-15.530712644462032
asVmomentum
p1354
(lp1355
F0
aF0
aF0
asa(dp1356
Vmagmom
p1357
F0
sVindex
p1358
I53
sVsymbol
p1359
VPd
p1360
sVcharge
p1361
F0
sVtag
p1362
I0
sVposition
p1363
(lp1364
F6.7057256902354672
aF-2.2144596103941891
aF-21.846680956057618
asVmomentum
p1365
(lp1366
F0
aF0
aF0
asa(dp1367
Vmagmom
p1368
F0
sVindex
p1369
I54
sVsymbol
p1370
VPd
p1371
sVcharge
p1372
F0
sVtag
p1373
I0
sVposition
p1374
(lp1375
F5.8260219054253026
aF-5.9885229232286052
aF-17.487864356342712
asVmomentum
p1376
(lp1377
F0
aF0
aF0
asa(dp1378
Vmagmom
p1379
F0
sVindex
p1380
I55
sVsymbol
p1381
VPd
p1382
sVcharge
p1383
F0
sVtag
p1384
I0
sVposition
p1385
(lp1386
F5.8260219054253044
aF-0.51986790081341261
aF-12.752852038551044
asVmomentum
p1387
(lp1388
F0
aF0
aF0
asa(dp1389
Vmagmom
p1390
F0
sVindex
p1391
I56
sVsymbol
p1392
VPd
p1393
sVcharge
p1394
F0
sVtag
p1395
I0
sVposition
p1396
(lp1397
F10.003271103978893
aF-3.2541954120210095
aF-20.6458485121405
asVmomentum
p1398
(lp1399
F0
aF0
aF0
asa(dp1400
Vmagmom
p1401
F0
sVindex
p1402
I57
sVsymbol
p1403
VPd
p1404
sVcharge
p1405
F0
sVtag
p1406
I0
sVposition
p1407
(lp1408
F9.1487038326760466
aF-4.3894078054455736
aF-13.809256020693812
asVmomentum
p1409
(lp1410
F0
aF0
aF0
asa(dp1411
Vmagmom
p1412
F0
sVindex
p1413
I58
sVsymbol
p1414
VPd
p1415
sVcharge
p1416
F0
sVtag
p1417
I0
sVposition
p1418
(lp1419
F4.9714546341224537
aF-7.1237353166531738
aF-21.702252494283279
asVmomentum
p1420
(lp1421
F0
aF0
aF0
asa(dp1422
Vmagmom
p1423
F0
sVindex
p1424
I59
sVsymbol
p1425
VPd
p1426
sVcharge
p1427
F0
sVtag
p1428
I0
sVposition
p1429
(lp1430
F4.9714546341224537
aF-1.6550802942379781
aF-16.967240176491607
asVmomentum
p1431
(lp1432
F0
aF0
aF0
asasVcell
p1433
(lp1434
(lp1435
F8.3544983971071805
aF-5.4385242937875642e-32
aF-4.4408920985006262e-16
aa(lp1436
F4.1772491985535911
aF-8.2029825336227908
aF-1.5770281619938802
aa(lp1437
F4.5071176484954476e-17
aF-4.0600644165655504e-15
aF-33.152941888161756
aasVmass
p1438
F4327.2479999999987
sVpbc
p1439
(lp1440
I01
aI01
aI01
asVspacegroup
p1441
VP1 (1)
p1442
sVconstraints
p1443
(lp1444
(dp1445
Vname
p1446
VFixAtoms
p1447
sVkwargs
p1448
(dp1449
Vindices
p1450
(lp1451
I0
aI2
aI3
aI5
aI7
aI8
aI9
aI10
aI11
aI12
aI13
aI14
aI15
aI16
aI18
aI20
aI21
aI23
aI24
aI26
aI27
aI29
aI30
aI31
aI33
aI34
aI35
aI36
aI38
aI39
aI41
aI42
aI44
aI45
aI46
aI48
aI50
aI51
aI53
aI54
aI56
aI58
aI59
assasaa(lp1452
g701
ag2
((ltRp1453
aa(lp1454
g704
ag705
aa(lp1455
g707
aS'fc20dd71df113edaef8fea47638e2ffe09be9cc8'
p1456
aa(lp1457
g710
ag711
(S'\x07\xe1\x03\x1f\x13,;\x02\xe5\x9f'
tRp1458
aa(lp1459
g714
ag711
(S'\x07\xe1\x03\x1f\x13,;\x02\xe5\xa8'
tRp1460
aa(lp1461
g717
a(dp1462
g719
g729
sg730
I00
sg731
g732
sg733
I0
sg734
g748
sg749
g750
sg751
I00
sg752
g753
sg754
I60
saatRp1463
a.