(lp1
ccollections
OrderedDict
p2
((lp3
(lp4
S'atoms'
p5
a(dp6
Vinfo
p7
(dp8
sVvolume
p9
F189.18730042716413
sVnatoms
p10
I4
sVsymbol_counts
p11
(dp12
VCu
p13
I4
ssVchemical_symbols
p14
(lp15
VCu
p16
asVatoms
p17
(lp18
(dp19
Vmagmom
p20
F0
sVindex
p21
I0
sVsymbol
p22
VCu
p23
sVcharge
p24
F0
sVtag
p25
I0
sVposition
p26
(lp27
F0
aF-9.8607613152626476e-32
aF15.369730755435032
asVmomentum
p28
(lp29
F0
aF0
aF0
asa(dp30
Vmagmom
p31
F0
sVindex
p32
I1
sVsymbol
p33
VCu
p34
sVcharge
p35
F0
sVtag
p36
I0
sVposition
p37
(lp38
F1.2785930402564176
aF1.2785930402564174
aF17.177934373721506
asVmomentum
p39
(lp40
F0
aF0
aF0
asa(dp41
Vmagmom
p42
F0
sVindex
p43
I2
sVsymbol
p44
VCu
p45
sVcharge
p46
F0
sVtag
p47
I0
sVposition
p48
(lp49
F2.5571860805128352
aF-2.2204460492503131e-16
aF11.753323518862084
asVmomentum
p50
(lp51
F0
aF0
aF0
asa(dp52
Vmagmom
p53
F0
sVindex
p54
I3
sVsymbol
p55
VCu
p56
sVcharge
p57
F0
sVtag
p58
I0
sVposition
p59
(lp60
F1.2785930402564176
aF1.2785930402564174
aF13.561527137148559
asVmomentum
p61
(lp62
F0
aF0
aF0
asasVcell
p63
(lp64
(lp65
F2.5571860805128352
aF0
aF-6.1629758220391547e-32
aa(lp66
F0
aF2.5571860805128348
aF1.8006078071231297e-16
aa(lp67
F0
aF-1.9721522630525295e-31
aF28.931257892583591
aasVmass
p68
F254.184
sVpbc
p69
(lp70
I01
aI01
aI01
asVspacegroup
p71
VP4/nmm (129)
p72
sVconstraints
p73
(lp74
(dp75
Vname
p76
VFixAtoms
p77
sVkwargs
p78
(dp79
Vindices
p80
(lp81
I2
aI3
assasaa(lp82
S'results'
p83
ag2
((ltRp84
aa(lp85
S'user'
p86
aS'ktran'
p87
aa(lp88
S'inserted-hash'
p89
aS'2d8c8681a2844f9e3fbd90e0ba65ac5881d55597'
p90
aa(lp91
S'ctime'
p92
acdatetime
datetime
p93
(S'\x07\xe1\x03\x1f\x13)-\x06\x8f\xfc'
tRp94
aa(lp95
S'mtime'
p96
ag93
(S'\x07\xe1\x03\x1f\x13)-\x06\x90-'
tRp97
aa(lp98
S'tags'
p99
a(dp100
S'get_slab_settings'
p101
g2
((lp102
(lp103
S'max_broken_bonds'
p104
aI0
aa(lp105
S'bonds'
p106
aNaa(lp107
S'tol'
p108
aF0.29999999999999999
aa(lp109
S'symmetrize'
p110
aI00
aatRp111
sS'relaxed'
p112
I00
sS'mpid'
p113
Vmp-30
p114
sS'shift'
p115
I0
sS'slab_generate_settings'
p116
g2
((lp117
(lp118
S'primitive'
p119
aI01
aa(lp120
S'min_vacuum_size'
p121
aF20
aa(lp122
S'lll_reduce'
p123
aI00
aa(lp124
S'max_normal_search'
p125
aI1
aa(lp126
S'min_slab_size'
p127
aF7
aa(lp128
S'center_slab'
p129
aI01
aatRp130
sS'miller'
p131
(I1
I0
I0
tp132
sS'top'
p133
I01
sS'type'
p134
S'slab'
p135
sS'num_slab_atoms'
p136
I4
saatRp137
a.