(lp1
ccollections
OrderedDict
p2
((lp3
(lp4
S'atoms'
p5
a(dp6
Vinfo
p7
(dp8
sVvolume
p9
F358.96594007741419
sVnatoms
p10
I28
sVsymbol_counts
p11
(dp12
VCu
p13
I21
sVPd
p14
I7
ssVchemical_symbols
p15
(lp16
VPd
p17
aVCu
p18
asVatoms
p19
(lp20
(dp21
Vmagmom
p22
F0
sVindex
p23
I0
sVsymbol
p24
VCu
p25
sVcharge
p26
F0
sVtag
p27
I0
sVposition
p28
(lp29
F1.8641285812177755
aF-1.1485996979e-06
aF3.690382144994663
asVmomentum
p30
(lp31
F0
aF0
aF0
asa(dp32
Vmagmom
p33
F0
sVindex
p34
I1
sVsymbol
p35
VCu
p36
sVcharge
p37
F0
sVtag
p38
I0
sVposition
p39
(lp40
F1.86412653341212
aF1.8641123326720466
aF23.981956537697858
asVmomentum
p41
(lp42
F0
aF0
aF0
asa(dp43
Vmagmom
p44
F0
sVindex
p45
I2
sVsymbol
p46
VCu
p47
sVcharge
p48
F0
sVtag
p49
I0
sVposition
p50
(lp51
F6.9936894427e-06
aF3.728245539785449
aF16.603982550663247
asVmomentum
p52
(lp53
F0
aF0
aF0
asa(dp54
Vmagmom
p55
F0
sVindex
p56
I3
sVsymbol
p57
VCu
p58
sVcharge
p59
F0
sVtag
p60
I0
sVposition
p61
(lp62
F1.8641379929575235
aF1.8641145381323321
aF20.290231564356333
asVmomentum
p63
(lp64
F0
aF0
aF0
asa(dp65
Vmagmom
p66
F0
sVindex
p67
I4
sVsymbol
p68
VCu
p69
sVcharge
p70
F0
sVtag
p71
I0
sVposition
p72
(lp73
F1.8641266284730635
aF-1.1527027901e-06
aF7.3787095728682512
asVmomentum
p74
(lp75
F0
aF0
aF0
asa(dp76
Vmagmom
p77
F0
sVindex
p78
I5
sVsymbol
p79
VCu
p80
sVcharge
p81
F0
sVtag
p82
I0
sVposition
p83
(lp84
F-5.9928160831000003e-06
aF1.8641176781252158
aF18.446374318931309
asVmomentum
p85
(lp86
F0
aF0
aF0
asa(dp87
Vmagmom
p88
F0
sVindex
p89
I6
sVsymbol
p90
VCu
p91
sVcharge
p92
F0
sVtag
p93
I0
sVposition
p94
(lp95
F1.8641367133409708
aF-9.2234339358999992e-06
aF22.134611346077222
asVmomentum
p96
(lp97
F0
aF0
aF0
asa(dp98
Vmagmom
p99
F0
sVindex
p100
I7
sVsymbol
p101
VCu
p102
sVcharge
p103
F0
sVtag
p104
I0
sVposition
p105
(lp106
F1.8641319111507961
aF1.8641301827839143
aF1.843063729196496
asVmomentum
p107
(lp108
F0
aF0
aF0
asa(dp109
Vmagmom
p110
F0
sVindex
p111
I8
sVsymbol
p112
VCu
p113
sVcharge
p114
F0
sVtag
p115
I0
sVposition
p116
(lp117
F1.8641337960428603
aF-2.8021636720000004e-06
aF14.757020589994113
asVmomentum
p118
(lp119
F0
aF0
aF0
asa(dp120
Vmagmom
p121
F0
sVindex
p122
I9
sVsymbol
p123
VCu
p124
sVcharge
p125
F0
sVtag
p126
I0
sVposition
p127
(lp128
F3.7193683669000002e-06
aF1.8641268673790143
aF3.6903793172402275
asVmomentum
p129
(lp130
F0
aF0
aF0
asa(dp131
Vmagmom
p132
F0
sVindex
p133
I10
sVsymbol
p134
VCu
p135
sVcharge
p136
F0
sVtag
p137
I0
sVposition
p138
(lp139
F3.7286376779e-06
aF1.8641182090662864
aF11.0681498157723
asVmomentum
p140
(lp141
F0
aF0
aF0
asa(dp142
Vmagmom
p143
F0
sVindex
p144
I11
sVsymbol
p145
VCu
p146
sVcharge
p147
F0
sVtag
p148
I0
sVposition
p149
(lp150
F1.8641259627268005
aF3.7282430343242488
aF18.446373448932579
asVmomentum
p151
(lp152
F0
aF0
aF0
asa(dp153
Vmagmom
p154
F0
sVindex
p155
I12
sVsymbol
p156
VCu
p157
sVcharge
p158
F0
sVtag
p159
I0
sVposition
p160
(lp161
F2.7172552050000003e-06
aF1.8641164437429334
aF22.134610584328758
asVmomentum
p162
(lp163
F0
aF0
aF0
asa(dp164
Vmagmom
p165
F0
sVindex
p166
I13
sVsymbol
p167
VCu
p168
sVcharge
p169
F0
sVtag
p170
I0
sVposition
p171
(lp172
F-2.3732571399999993e-07
aF1.8641260340317489
aF14.757016987486962
asVmomentum
p173
(lp174
F0
aF0
aF0
asa(dp175
Vmagmom
p176
F0
sVindex
p177
I14
sVsymbol
p178
VCu
p179
sVcharge
p180
F0
sVtag
p181
I0
sVposition
p182
(lp183
F3.7282523456626735
aF-9.4742556750999993e-06
aF9.221126812706455
asVmomentum
p184
(lp185
F0
aF0
aF0
asa(dp186
Vmagmom
p187
F0
sVindex
p188
I15
sVsymbol
p189
VCu
p190
sVcharge
p191
F0
sVtag
p192
I0
sVposition
p193
(lp194
F1.8641306410297258
aF-6.8243064188999998e-06
aF11.068149286266937
asVmomentum
p195
(lp196
F0
aF0
aF0
asa(dp197
Vmagmom
p198
F0
sVindex
p199
I16
sVsymbol
p200
VCu
p201
sVcharge
p202
F0
sVtag
p203
I0
sVposition
p204
(lp205
F1.8641334259529196
aF1.8641280518665135
aF5.5348331216492017
asVmomentum
p206
(lp207
F0
aF0
aF0
asa(dp208
Vmagmom
p209
F0
sVindex
p210
I17
sVsymbol
p211
VCu
p212
sVcharge
p213
F0
sVtag
p214
I0
sVposition
p215
(lp216
F3.7282566453206361
aF1.8641254338219808
aF7.378705862111743
asVmomentum
p217
(lp218
F0
aF0
aF0
asa(dp219
Vmagmom
p220
F0
sVindex
p221
I18
sVsymbol
p222
VCu
p223
sVcharge
p224
F0
sVtag
p225
I0
sVposition
p226
(lp227
F5.5434826138999995e-06
aF-4.0612355299999993e-06
aF12.912605523181773
asVmomentum
p228
(lp229
F0
aF0
aF0
asa(dp230
Vmagmom
p231
F0
sVindex
p232
I19
sVsymbol
p233
VCu
p234
sVcharge
p235
F0
sVtag
p236
I0
sVposition
p237
(lp238
F3.0016239377999998e-06
aF1.8641151337353123
aF25.82498284079912
asVmomentum
p239
(lp240
F0
aF0
aF0
asa(dp241
Vmagmom
p242
F0
sVindex
p243
I20
sVsymbol
p244
VCu
p245
sVcharge
p246
F0
sVtag
p247
I0
sVposition
p248
(lp249
F1.8641251891264101
aF3.728235307657592
aF25.824985586311641
asVmomentum
p250
(lp251
F0
aF0
aF0
asa(dp252
Vmagmom
p253
F0
sVindex
p254
I21
sVsymbol
p255
VPd
p256
sVcharge
p257
F0
sVtag
p258
I0
sVposition
p259
(lp260
F1.8641281176145486
aF1.8641271167293039
aF9.221086280353731
asVmomentum
p261
(lp262
F0
aF0
aF0
asa(dp263
Vmagmom
p264
F0
sVindex
p265
I22
sVsymbol
p266
VPd
p267
sVcharge
p268
F0
sVtag
p269
I0
sVposition
p270
(lp271
F3.7282567637035195
aF-3.8258299525000003e-06
aF23.97868707154144
asVmomentum
p272
(lp273
F0
aF0
aF0
asa(dp274
Vmagmom
p275
F0
sVindex
p276
I23
sVsymbol
p277
VPd
p278
sVcharge
p279
F0
sVtag
p280
I0
sVposition
p281
(lp282
F1.8641332722778321
aF1.8641167781539594
aF16.603988735676481
asVmomentum
p283
(lp284
F0
aF0
aF0
asa(dp285
Vmagmom
p286
F0
sVindex
p287
I24
sVsymbol
p288
VPd
p289
sVcharge
p290
F0
sVtag
p291
I0
sVposition
p292
(lp293
F5.9354351720999999e-06
aF3.7282390131157275
aF20.288521958099849
asVmomentum
p294
(lp295
F0
aF0
aF0
asa(dp296
Vmagmom
p297
F0
sVindex
p298
I25
sVsymbol
p299
VPd
p300
sVcharge
p301
F0
sVtag
p302
I0
sVposition
p303
(lp304
F1.864131645656087
aF1.8641242030127116
aF12.91258476788178
asVmomentum
p305
(lp306
F0
aF0
aF0
asa(dp307
Vmagmom
p308
F0
sVindex
p309
I26
sVsymbol
p310
VPd
p311
sVcharge
p312
F0
sVtag
p313
I0
sVposition
p314
(lp315
F2.1655302989000003e-06
aF3.7282514117319212
aF1.8462957490070377
asVmomentum
p316
(lp317
F0
aF0
aF0
asa(dp318
Vmagmom
p319
F0
sVindex
p320
I27
sVsymbol
p321
VPd
p322
sVcharge
p323
F0
sVtag
p324
I0
sVposition
p325
(lp326
F4.1548876232999999e-06
aF-2.1146230905999998e-06
aF5.5365281158724908
asVmomentum
p327
(lp328
F0
aF0
aF0
asasVcell
p329
(lp330
(lp331
F3.7282598
aF-4.9999999999999998e-08
aF1.4999999999999999e-07
aa(lp332
F1e-08
aF3.7282554600000002
aF-1.8899999999999999e-06
aa(lp333
F1.99e-06
aF-1.2819999999999999e-05
aF25.825064359999999
aasVmass
p334
F2079.4060000000009
sVpbc
p335
(lp336
I01
aI01
aI01
asVspacegroup
p337
VP1 (1)
p338
sVconstraints
p339
(lp340
saa(lp341
S'results'
p342
ag2
((ltRp343
aa(lp344
S'user'
p345
aS'ktran'
p346
aa(lp347
S'inserted-hash'
p348
aS'd93ab83fc8f197922a505c7d93e5bd128db9a69c'
p349
aa(lp350
S'ctime'
p351
acdatetime
datetime
p352
(S'\x07\xe1\x03\x1f\x13*\x03\t\xb3L'
tRp353
aa(lp354
S'mtime'
p355
ag352
(S'\x07\xe1\x03\x1f\x13*\x03\t\xb3f'
tRp356
aatRp357
a.