(lp1
ccollections
OrderedDict
p2
((lp3
(lp4
S'atoms'
p5
a(dp6
Vinfo
p7
(dp8
sVvolume
p9
F1514.6872864759289
sVnatoms
p10
I40
sVsymbol_counts
p11
(dp12
VCu
p13
I32
sVPd
p14
I8
ssVchemical_symbols
p15
(lp16
VPd
p17
aVCu
p18
asVatoms
p19
(lp20
(dp21
Vmagmom
p22
F0
sVindex
p23
I0
sVsymbol
p24
VCu
p25
sVcharge
p26
F0
sVtag
p27
I0
sVposition
p28
(lp29
F2.9537612350033147
aF0
aF14.473430051516242
asVmomentum
p30
(lp31
F0
aF0
aF0
asa(dp32
Vmagmom
p33
F0
sVindex
p34
I1
sVsymbol
p35
VCu
p36
sVcharge
p37
F0
sVtag
p38
I0
sVposition
p39
(lp40
F2.9537612350033147
aF3.6168539299999996
aF14.473430051516242
asVmomentum
p41
(lp42
F0
aF0
aF0
asa(dp43
Vmagmom
p44
F0
sVindex
p45
I2
sVsymbol
p46
VCu
p47
sVcharge
p48
F0
sVtag
p49
I0
sVposition
p50
(lp51
F1.1073421470895061e-16
aF1.808426965
aF17.427191286519555
asVmomentum
p52
(lp53
F0
aF0
aF0
asa(dp54
Vmagmom
p55
F0
sVindex
p56
I3
sVsymbol
p57
VCu
p58
sVcharge
p59
F0
sVtag
p60
I0
sVposition
p61
(lp62
F3.3220264412685184e-16
aF5.4252808950000002
aF17.427191286519555
asVmomentum
p63
(lp64
F0
aF0
aF0
asa(dp65
Vmagmom
p66
F0
sVindex
p67
I4
sVsymbol
p68
VCu
p69
sVcharge
p70
F0
sVtag
p71
I0
sVposition
p72
(lp73
F0.61399746179176928
aF0
aF15.60918060676169
asVmomentum
p74
(lp75
F0
aF0
aF0
asa(dp76
Vmagmom
p77
F0
sVindex
p78
I5
sVsymbol
p79
VCu
p80
sVcharge
p81
F0
sVtag
p82
I0
sVposition
p83
(lp84
F4.089511790248765
aF3.6168539299999996
aF16.813193824727787
asVmomentum
p85
(lp86
F0
aF0
aF0
asa(dp87
Vmagmom
p88
F0
sVindex
p89
I6
sVsymbol
p90
VCu
p91
sVcharge
p92
F0
sVtag
p93
I0
sVposition
p94
(lp95
F1.8180106797578643
aF3.61685393
aF12.133666278304696
asVmomentum
p96
(lp97
F0
aF0
aF0
asa(dp98
Vmagmom
p99
F0
sVindex
p100
I7
sVsymbol
p101
VCu
p102
sVcharge
p103
F0
sVtag
p104
I0
sVposition
p105
(lp106
F5.2935250082148597
aF0
aF13.337679496270791
asVmomentum
p107
(lp108
F0
aF0
aF0
asa(dp109
Vmagmom
p110
F0
sVindex
p111
I8
sVsymbol
p112
VCu
p113
sVcharge
p114
F0
sVtag
p115
I0
sVposition
p116
(lp117
F4.7093488970773612
aF1.8029828041274858
aF15.045016346141788
asVmomentum
p118
(lp119
F0
aF0
aF0
asa(dp120
Vmagmom
p121
F0
sVindex
p122
I9
sVsymbol
p123
VCu
p124
sVcharge
p125
F0
sVtag
p126
I0
sVposition
p127
(lp128
F3.5253475296288612
aF5.419836734127486
aF12.717842389442195
asVmomentum
p129
(lp130
F0
aF0
aF0
asa(dp131
Vmagmom
p132
F0
sVindex
p133
I10
sVsymbol
p134
VCu
p135
sVcharge
p136
F0
sVtag
p137
I0
sVposition
p138
(lp139
F2.3821749403777686
aF5.4198367341274851
aF16.229017713590284
asVmomentum
p140
(lp141
F0
aF0
aF0
asa(dp142
Vmagmom
p143
F0
sVindex
p144
I11
sVsymbol
p145
VCu
p146
sVcharge
p147
F0
sVtag
p148
I0
sVposition
p149
(lp150
F1.1981735729292686
aF1.802982804127486
aF13.901843756890694
asVmomentum
p151
(lp152
F0
aF0
aF0
asa(dp153
Vmagmom
p154
F0
sVindex
p155
I12
sVsymbol
p156
VCu
p157
sVcharge
p158
F0
sVtag
p159
I0
sVposition
p160
(lp161
F1.1981735729292688
aF5.4307250558725144
aF13.901843756890694
asVmomentum
p162
(lp163
F0
aF0
aF0
asa(dp164
Vmagmom
p165
F0
sVindex
p166
I13
sVsymbol
p167
VCu
p168
sVcharge
p169
F0
sVtag
p170
I0
sVposition
p171
(lp172
F2.3821749403777681
aF1.8138711258725138
aF16.229017713590284
asVmomentum
p173
(lp174
F0
aF0
aF0
asa(dp175
Vmagmom
p176
F0
sVindex
p177
I14
sVsymbol
p178
VCu
p179
sVcharge
p180
F0
sVtag
p181
I0
sVposition
p182
(lp183
F3.5253475296288608
aF1.8138711258725135
aF12.717842389442195
asVmomentum
p184
(lp185
F0
aF0
aF0
asa(dp186
Vmagmom
p187
F0
sVindex
p188
I15
sVsymbol
p189
VCu
p190
sVcharge
p191
F0
sVtag
p192
I0
sVposition
p193
(lp194
F4.7093488970773612
aF5.4307250558725144
aF15.045016346141788
asVmomentum
p195
(lp196
F0
aF0
aF0
asa(dp197
Vmagmom
p198
F0
sVindex
p199
I16
sVsymbol
p200
VPd
p201
sVcharge
p202
F0
sVtag
p203
I0
sVposition
p204
(lp205
F4.1800760591963826
aF0
aF16.822920974001228
asVmomentum
p206
(lp207
F0
aF0
aF0
asa(dp208
Vmagmom
p209
F0
sVindex
p210
I17
sVsymbol
p211
VPd
p212
sVcharge
p213
F0
sVtag
p214
I0
sVposition
p215
(lp216
F5.3032521574882985
aF3.6168539299999996
aF13.247115227323173
asVmomentum
p217
(lp218
F0
aF0
aF0
asa(dp219
Vmagmom
p220
F0
sVindex
p221
I18
sVsymbol
p222
VPd
p223
sVcharge
p224
F0
sVtag
p225
I0
sVposition
p226
(lp227
F0.60427031251832986
aF3.6168539299999996
aF15.699744875709309
asVmomentum
p228
(lp229
F0
aF0
aF0
asa(dp230
Vmagmom
p231
F0
sVindex
p232
I19
sVsymbol
p233
VPd
p234
sVcharge
p235
F0
sVtag
p236
I0
sVposition
p237
(lp238
F1.727446410810247
aF-9.8607613152626476e-32
aF12.123939129031257
asVmomentum
p239
(lp240
F0
aF0
aF0
asa(dp241
Vmagmom
p242
F0
sVindex
p243
I20
sVsymbol
p244
VCu
p245
sVcharge
p246
F0
sVtag
p247
I0
sVposition
p248
(lp249
F2.9537612350033147
aF1.9721522630525295e-31
aF20.380952521522868
asVmomentum
p250
(lp251
F0
aF0
aF0
asa(dp252
Vmagmom
p253
F0
sVindex
p254
I21
sVsymbol
p255
VCu
p256
sVcharge
p257
F0
sVtag
p258
I0
sVposition
p259
(lp260
F2.9537612350033147
aF3.6168539299999996
aF20.380952521522868
asVmomentum
p261
(lp262
F0
aF0
aF0
asa(dp263
Vmagmom
p264
F0
sVindex
p265
I22
sVsymbol
p266
VCu
p267
sVcharge
p268
F0
sVtag
p269
I0
sVposition
p270
(lp271
F1.107342147089506e-16
aF1.808426965
aF23.334713756526185
asVmomentum
p272
(lp273
F0
aF0
aF0
asa(dp274
Vmagmom
p275
F0
sVindex
p276
I23
sVsymbol
p277
VCu
p278
sVcharge
p279
F0
sVtag
p280
I0
sVposition
p281
(lp282
F3.3220264412685184e-16
aF5.4252808950000002
aF23.334713756526185
asVmomentum
p283
(lp284
F0
aF0
aF0
asa(dp285
Vmagmom
p286
F0
sVindex
p287
I24
sVsymbol
p288
VCu
p289
sVcharge
p290
F0
sVtag
p291
I0
sVposition
p292
(lp293
F0.61399746179176928
aF0
aF21.516703076768319
asVmomentum
p294
(lp295
F0
aF0
aF0
asa(dp296
Vmagmom
p297
F0
sVindex
p298
I25
sVsymbol
p299
VCu
p300
sVcharge
p301
F0
sVtag
p302
I0
sVposition
p303
(lp304
F4.089511790248765
aF3.6168539299999996
aF22.720716294734416
asVmomentum
p305
(lp306
F0
aF0
aF0
asa(dp307
Vmagmom
p308
F0
sVindex
p309
I26
sVsymbol
p310
VCu
p311
sVcharge
p312
F0
sVtag
p313
I0
sVposition
p314
(lp315
F1.8180106797578643
aF3.6168539299999996
aF18.041188748311324
asVmomentum
p316
(lp317
F0
aF0
aF0
asa(dp318
Vmagmom
p319
F0
sVindex
p320
I27
sVsymbol
p321
VCu
p322
sVcharge
p323
F0
sVtag
p324
I0
sVposition
p325
(lp326
F5.2935250082148597
aF-1.9721522630525295e-31
aF19.245201966277421
asVmomentum
p327
(lp328
F0
aF0
aF0
asa(dp329
Vmagmom
p330
F0
sVindex
p331
I28
sVsymbol
p332
VCu
p333
sVcharge
p334
F0
sVtag
p335
I0
sVposition
p336
(lp337
F4.7093488970773612
aF1.8029828041274858
aF20.952538816148415
asVmomentum
p338
(lp339
F0
aF0
aF0
asa(dp340
Vmagmom
p341
F0
sVindex
p342
I29
sVsymbol
p343
VCu
p344
sVcharge
p345
F0
sVtag
p346
I0
sVposition
p347
(lp348
F3.5253475296288612
aF5.4198367341274851
aF18.625364859448823
asVmomentum
p349
(lp350
F0
aF0
aF0
asa(dp351
Vmagmom
p352
F0
sVindex
p353
I30
sVsymbol
p354
VCu
p355
sVcharge
p356
F0
sVtag
p357
I0
sVposition
p358
(lp359
F2.3821749403777686
aF5.4198367341274851
aF22.136540183596917
asVmomentum
p360
(lp361
F0
aF0
aF0
asa(dp362
Vmagmom
p363
F0
sVindex
p364
I31
sVsymbol
p365
VCu
p366
sVcharge
p367
F0
sVtag
p368
I0
sVposition
p369
(lp370
F1.1981735729292686
aF1.8029828041274858
aF19.809366226897325
asVmomentum
p371
(lp372
F0
aF0
aF0
asa(dp373
Vmagmom
p374
F0
sVindex
p375
I32
sVsymbol
p376
VCu
p377
sVcharge
p378
F0
sVtag
p379
I0
sVposition
p380
(lp381
F1.1981735729292688
aF5.4307250558725144
aF19.809366226897325
asVmomentum
p382
(lp383
F0
aF0
aF0
asa(dp384
Vmagmom
p385
F0
sVindex
p386
I33
sVsymbol
p387
VCu
p388
sVcharge
p389
F0
sVtag
p390
I0
sVposition
p391
(lp392
F2.3821749403777681
aF1.8138711258725138
aF22.136540183596917
asVmomentum
p393
(lp394
F0
aF0
aF0
asa(dp395
Vmagmom
p396
F0
sVindex
p397
I34
sVsymbol
p398
VCu
p399
sVcharge
p400
F0
sVtag
p401
I0
sVposition
p402
(lp403
F3.5253475296288608
aF1.8138711258725133
aF18.625364859448823
asVmomentum
p404
(lp405
F0
aF0
aF0
asa(dp406
Vmagmom
p407
F0
sVindex
p408
I35
sVsymbol
p409
VCu
p410
sVcharge
p411
F0
sVtag
p412
I0
sVposition
p413
(lp414
F4.7093488970773612
aF5.4307250558725135
aF20.952538816148415
asVmomentum
p415
(lp416
F0
aF0
aF0
asa(dp417
Vmagmom
p418
F0
sVindex
p419
I36
sVsymbol
p420
VPd
p421
sVcharge
p422
F0
sVtag
p423
I0
sVposition
p424
(lp425
F4.1800760591963826
aF-1.9721522630525295e-31
aF22.730443444007854
asVmomentum
p426
(lp427
F0
aF0
aF0
asa(dp428
Vmagmom
p429
F0
sVindex
p430
I37
sVsymbol
p431
VPd
p432
sVcharge
p433
F0
sVtag
p434
I0
sVposition
p435
(lp436
F5.3032521574882985
aF3.61685393
aF19.154637697329804
asVmomentum
p437
(lp438
F0
aF0
aF0
asa(dp439
Vmagmom
p440
F0
sVindex
p441
I38
sVsymbol
p442
VPd
p443
sVcharge
p444
F0
sVtag
p445
I0
sVposition
p446
(lp447
F0.60427031251832986
aF3.6168539299999996
aF21.607267345715936
asVmomentum
p448
(lp449
F0
aF0
aF0
asa(dp450
Vmagmom
p451
F0
sVindex
p452
I39
sVsymbol
p453
VPd
p454
sVcharge
p455
F0
sVtag
p456
I0
sVposition
p457
(lp458
F1.727446410810247
aF0
aF18.031461599037886
asVmomentum
p459
(lp460
F0
aF0
aF0
asasVcell
p461
(lp462
(lp463
F5.9075224700066293
aF0
aF2.2149661539217952e-32
aa(lp464
F4.4293685883580241e-16
aF7.23370786
aF4.4293685883580241e-16
aa(lp465
F0
aF0
aF35.445134820039776
aasVmass
p466
F2884.8320000000003
sVpbc
p467
(lp468
I01
aI01
aI01
asVspacegroup
p469
VPm (6)
p470
sVconstraints
p471
(lp472
(dp473
Vname
p474
VFixAtoms
p475
sVkwargs
p476
(dp477
Vindices
p478
(lp479
I0
aI1
aI2
aI3
aI4
aI5
aI6
aI7
aI8
aI9
aI10
aI11
aI12
aI13
aI14
aI15
aI16
aI17
aI18
aI19
aI26
aI27
aI29
aI31
aI32
aI34
aI37
aI39
assasaa(lp480
S'results'
p481
ag2
((ltRp482
aa(lp483
S'user'
p484
aS'ktran'
p485
aa(lp486
S'inserted-hash'
p487
aS'6f9c6bb472271f2bf9788d53367d3c5772170056'
p488
aa(lp489
S'ctime'
p490
acdatetime
datetime
p491
(S'\x07\xe1\x03\x1f\x13-\x04\x07M\xb9'
tRp492
aa(lp493
S'mtime'
p494
ag491
(S'\x07\xe1\x03\x1f\x13-\x04\x07M\xe0'
tRp495
aa(lp496
S'tags'
p497
a(dp498
S'get_slab_settings'
p499
g2
((lp500
(lp501
S'max_broken_bonds'
p502
aI0
aa(lp503
S'bonds'
p504
aNaa(lp505
S'tol'
p506
aF0.29999999999999999
aa(lp507
S'symmetrize'
p508
aI00
aatRp509
sS'relaxed'
p510
I00
sS'mpid'
p511
Vmp-30594
p512
sS'shift'
p513
cnumpy.core.multiarray
scalar
p514
(cnumpy
dtype
p515
(S'f8'
I0
I1
tRp516
(I3
S'<'
NNNI-1
I-1
I0
tbS'\x115]\x91\x90/\xaa?'
tRp517
sS'slab_generate_settings'
p518
g2
((lp519
(lp520
S'primitive'
p521
aI01
aa(lp522
S'min_vacuum_size'
p523
aF20
aa(lp524
S'lll_reduce'
p525
aI00
aa(lp526
S'max_normal_search'
p527
aI1
aa(lp528
S'min_slab_size'
p529
aF7
aa(lp530
S'center_slab'
p531
aI01
aatRp532
sS'miller'
p533
(I1
I0
I0
tp534
sS'top'
p535
I01
sS'type'
p536
S'slab'
p537
sS'num_slab_atoms'
p538
I40
saatRp539
ag2
((lp540
(lp541
g5
a(dp542
Vinfo
p543
(dp544
sVvolume
p545
F1514.6872864759289
sVnatoms
p546
I40
sVsymbol_counts
p547
(dp548
VCu
p549
I32
sVPd
p550
I8
ssVchemical_symbols
p551
(lp552
VPd
p553
aVCu
p554
asVatoms
p555
(lp556
(dp557
Vmagmom
p558
F0
sVindex
p559
I0
sVsymbol
p560
VCu
p561
sVcharge
p562
F0
sVtag
p563
I0
sVposition
p564
(lp565
F2.9537612350033147
aF-1.7724839785272478e-15
aF-14.473430051516242
asVmomentum
p566
(lp567
F0
aF0
aF0
asa(dp568
Vmagmom
p569
F0
sVindex
p570
I1
sVsymbol
p571
VCu
p572
sVcharge
p573
F0
sVtag
p574
I0
sVposition
p575
(lp576
F2.9537612350033147
aF-3.6168539300000013
aF-14.473430051516242
asVmomentum
p577
(lp578
F0
aF0
aF0
asa(dp579
Vmagmom
p580
F0
sVindex
p581
I2
sVsymbol
p582
VCu
p583
sVcharge
p584
F0
sVtag
p585
I0
sVposition
p586
(lp587
F1.1073421470895061e-16
aF-1.8084269650000022
aF-17.427191286519555
asVmomentum
p588
(lp589
F0
aF0
aF0
asa(dp590
Vmagmom
p591
F0
sVindex
p592
I3
sVsymbol
p593
VCu
p594
sVcharge
p595
F0
sVtag
p596
I0
sVposition
p597
(lp598
F3.3220264412685184e-16
aF-5.425280895000002
aF-17.427191286519555
asVmomentum
p599
(lp600
F0
aF0
aF0
asa(dp601
Vmagmom
p602
F0
sVindex
p603
I4
sVsymbol
p604
VCu
p605
sVcharge
p606
F0
sVtag
p607
I0
sVposition
p608
(lp609
F0.61399746179176928
aF-1.9115733067383645e-15
aF-15.60918060676169
asVmomentum
p610
(lp611
F0
aF0
aF0
asa(dp612
Vmagmom
p613
F0
sVindex
p614
I5
sVsymbol
p615
VCu
p616
sVcharge
p617
F0
sVtag
p618
I0
sVposition
p619
(lp620
F4.089511790248765
aF-3.6168539300000018
aF-16.813193824727787
asVmomentum
p621
(lp622
F0
aF0
aF0
asa(dp623
Vmagmom
p624
F0
sVindex
p625
I6
sVsymbol
p626
VCu
p627
sVcharge
p628
F0
sVtag
p629
I0
sVposition
p630
(lp631
F1.8180106797578643
aF-3.6168539300000013
aF-12.133666278304696
asVmomentum
p632
(lp633
F0
aF0
aF0
asa(dp634
Vmagmom
p635
F0
sVindex
p636
I7
sVsymbol
p637
VCu
p638
sVcharge
p639
F0
sVtag
p640
I0
sVposition
p641
(lp642
F5.2935250082148597
aF-1.6333946503161307e-15
aF-13.337679496270791
asVmomentum
p643
(lp644
F0
aF0
aF0
asa(dp645
Vmagmom
p646
F0
sVindex
p647
I8
sVsymbol
p648
VCu
p649
sVcharge
p650
F0
sVtag
p651
I0
sVposition
p652
(lp653
F4.7093488970773612
aF-1.8029828041274876
aF-15.045016346141788
asVmomentum
p654
(lp655
F0
aF0
aF0
asa(dp656
Vmagmom
p657
F0
sVindex
p658
I9
sVsymbol
p659
VCu
p660
sVcharge
p661
F0
sVtag
p662
I0
sVposition
p663
(lp664
F3.5253475296288612
aF-5.4198367341274878
aF-12.717842389442195
asVmomentum
p665
(lp666
F0
aF0
aF0
asa(dp667
Vmagmom
p668
F0
sVindex
p669
I10
sVsymbol
p670
VCu
p671
sVcharge
p672
F0
sVtag
p673
I0
sVposition
p674
(lp675
F2.3821749403777686
aF-5.4198367341274869
aF-16.229017713590284
asVmomentum
p676
(lp677
F0
aF0
aF0
asa(dp678
Vmagmom
p679
F0
sVindex
p680
I11
sVsymbol
p681
VCu
p682
sVcharge
p683
F0
sVtag
p684
I0
sVposition
p685
(lp686
F1.1981735729292686
aF-1.8029828041274878
aF-13.901843756890694
asVmomentum
p687
(lp688
F0
aF0
aF0
asa(dp689
Vmagmom
p690
F0
sVindex
p691
I12
sVsymbol
p692
VCu
p693
sVcharge
p694
F0
sVtag
p695
I0
sVposition
p696
(lp697
F1.1981735729292688
aF-5.4307250558725162
aF-13.901843756890694
asVmomentum
p698
(lp699
F0
aF0
aF0
asa(dp700
Vmagmom
p701
F0
sVindex
p702
I13
sVsymbol
p703
VCu
p704
sVcharge
p705
F0
sVtag
p706
I0
sVposition
p707
(lp708
F2.3821749403777681
aF-1.8138711258725158
aF-16.229017713590284
asVmomentum
p709
(lp710
F0
aF0
aF0
asa(dp711
Vmagmom
p712
F0
sVindex
p713
I14
sVsymbol
p714
VCu
p715
sVcharge
p716
F0
sVtag
p717
I0
sVposition
p718
(lp719
F3.5253475296288608
aF-1.8138711258725151
aF-12.717842389442195
asVmomentum
p720
(lp721
F0
aF0
aF0
asa(dp722
Vmagmom
p723
F0
sVindex
p724
I15
sVsymbol
p725
VCu
p726
sVcharge
p727
F0
sVtag
p728
I0
sVposition
p729
(lp730
F4.7093488970773612
aF-5.4307250558725162
aF-15.045016346141788
asVmomentum
p731
(lp732
F0
aF0
aF0
asa(dp733
Vmagmom
p734
F0
sVindex
p735
I16
sVsymbol
p736
VPd
p737
sVcharge
p738
F0
sVtag
p739
I0
sVposition
p740
(lp741
F4.1800760591963826
aF-2.0602136323119479e-15
aF-16.822920974001228
asVmomentum
p742
(lp743
F0
aF0
aF0
asa(dp744
Vmagmom
p745
F0
sVindex
p746
I17
sVsymbol
p747
VPd
p748
sVcharge
p749
F0
sVtag
p750
I0
sVposition
p751
(lp752
F5.3032521574882985
aF-3.6168539300000013
aF-13.247115227323173
asVmomentum
p753
(lp754
F0
aF0
aF0
asa(dp755
Vmagmom
p756
F0
sVindex
p757
I18
sVsymbol
p758
VPd
p759
sVcharge
p760
F0
sVtag
p761
I0
sVposition
p762
(lp763
F0.60427031251832986
aF-3.6168539300000013
aF-15.699744875709309
asVmomentum
p764
(lp765
F0
aF0
aF0
asa(dp766
Vmagmom
p767
F0
sVindex
p768
I19
sVsymbol
p769
VPd
p770
sVcharge
p771
F0
sVtag
p772
I0
sVposition
p773
(lp774
F1.727446410810247
aF-1.4847543247425477e-15
aF-12.123939129031257
asVmomentum
p775
(lp776
F0
aF0
aF0
asa(dp777
Vmagmom
p778
F0
sVindex
p779
I20
sVsymbol
p780
VCu
p781
sVcharge
p782
F0
sVtag
p783
I0
sVposition
p784
(lp785
F2.9537612350033147
aF-2.4959468269057156e-15
aF-20.380952521522868
asVmomentum
p786
(lp787
F0
aF0
aF0
asa(dp788
Vmagmom
p789
F0
sVindex
p790
I21
sVsymbol
p791
VCu
p792
sVcharge
p793
F0
sVtag
p794
I0
sVposition
p795
(lp796
F2.9537612350033147
aF-3.6168539300000022
aF-20.380952521522868
asVmomentum
p797
(lp798
F0
aF0
aF0
asa(dp799
Vmagmom
p800
F0
sVindex
p801
I22
sVsymbol
p802
VCu
p803
sVcharge
p804
F0
sVtag
p805
I0
sVposition
p806
(lp807
F1.107342147089506e-16
aF-1.8084269650000029
aF-23.334713756526185
asVmomentum
p808
(lp809
F0
aF0
aF0
asa(dp810
Vmagmom
p811
F0
sVindex
p812
I23
sVsymbol
p813
VCu
p814
sVcharge
p815
F0
sVtag
p816
I0
sVposition
p817
(lp818
F3.3220264412685184e-16
aF-5.4252808950000029
aF-23.334713756526185
asVmomentum
p819
(lp820
F0
aF0
aF0
asa(dp821
Vmagmom
p822
F0
sVindex
p823
I24
sVsymbol
p824
VCu
p825
sVcharge
p826
F0
sVtag
p827
I0
sVposition
p828
(lp829
F0.61399746179176928
aF-2.6350361551168329e-15
aF-21.516703076768319
asVmomentum
p830
(lp831
F0
aF0
aF0
asa(dp832
Vmagmom
p833
F0
sVindex
p834
I25
sVsymbol
p835
VCu
p836
sVcharge
p837
F0
sVtag
p838
I0
sVposition
p839
(lp840
F4.089511790248765
aF-3.6168539300000022
aF-22.720716294734416
asVmomentum
p841
(lp842
F0
aF0
aF0
asa(dp843
Vmagmom
p844
F0
sVindex
p845
I26
sVsymbol
p846
VCu
p847
sVcharge
p848
F0
sVtag
p849
I0
sVposition
p850
(lp851
F1.8180106797578643
aF-3.6168539300000018
aF-18.041188748311324
asVmomentum
p852
(lp853
F0
aF0
aF0
asa(dp854
Vmagmom
p855
F0
sVindex
p856
I27
sVsymbol
p857
VCu
p858
sVcharge
p859
F0
sVtag
p860
I0
sVposition
p861
(lp862
F5.2935250082148597
aF-2.3568574986945991e-15
aF-19.245201966277421
asVmomentum
p863
(lp864
F0
aF0
aF0
asa(dp865
Vmagmom
p866
F0
sVindex
p867
I28
sVsymbol
p868
VCu
p869
sVcharge
p870
F0
sVtag
p871
I0
sVposition
p872
(lp873
F4.7093488970773612
aF-1.8029828041274885
aF-20.952538816148415
asVmomentum
p874
(lp875
F0
aF0
aF0
asa(dp876
Vmagmom
p877
F0
sVindex
p878
I29
sVsymbol
p879
VCu
p880
sVcharge
p881
F0
sVtag
p882
I0
sVposition
p883
(lp884
F3.5253475296288612
aF-5.4198367341274878
aF-18.625364859448823
asVmomentum
p885
(lp886
F0
aF0
aF0
asa(dp887
Vmagmom
p888
F0
sVindex
p889
I30
sVsymbol
p890
VCu
p891
sVcharge
p892
F0
sVtag
p893
I0
sVposition
p894
(lp895
F2.3821749403777686
aF-5.4198367341274878
aF-22.136540183596917
asVmomentum
p896
(lp897
F0
aF0
aF0
asa(dp898
Vmagmom
p899
F0
sVindex
p900
I31
sVsymbol
p901
VCu
p902
sVcharge
p903
F0
sVtag
p904
I0
sVposition
p905
(lp906
F1.1981735729292686
aF-1.8029828041274882
aF-19.809366226897325
asVmomentum
p907
(lp908
F0
aF0
aF0
asa(dp909
Vmagmom
p910
F0
sVindex
p911
I32
sVsymbol
p912
VCu
p913
sVcharge
p914
F0
sVtag
p915
I0
sVposition
p916
(lp917
F1.1981735729292688
aF-5.4307250558725171
aF-19.809366226897325
asVmomentum
p918
(lp919
F0
aF0
aF0
asa(dp920
Vmagmom
p921
F0
sVindex
p922
I33
sVsymbol
p923
VCu
p924
sVcharge
p925
F0
sVtag
p926
I0
sVposition
p927
(lp928
F2.3821749403777681
aF-1.8138711258725164
aF-22.136540183596917
asVmomentum
p929
(lp930
F0
aF0
aF0
asa(dp931
Vmagmom
p932
F0
sVindex
p933
I34
sVsymbol
p934
VCu
p935
sVcharge
p936
F0
sVtag
p937
I0
sVposition
p938
(lp939
F3.5253475296288608
aF-1.8138711258725155
aF-18.625364859448823
asVmomentum
p940
(lp941
F0
aF0
aF0
asa(dp942
Vmagmom
p943
F0
sVindex
p944
I35
sVsymbol
p945
VCu
p946
sVcharge
p947
F0
sVtag
p948
I0
sVposition
p949
(lp950
F4.7093488970773612
aF-5.4307250558725162
aF-20.952538816148415
asVmomentum
p951
(lp952
F0
aF0
aF0
asa(dp953
Vmagmom
p954
F0
sVindex
p955
I36
sVsymbol
p956
VPd
p957
sVcharge
p958
F0
sVtag
p959
I0
sVposition
p960
(lp961
F4.1800760591963826
aF-2.7836764806904159e-15
aF-22.730443444007854
asVmomentum
p962
(lp963
F0
aF0
aF0
asa(dp964
Vmagmom
p965
F0
sVindex
p966
I37
sVsymbol
p967
VPd
p968
sVcharge
p969
F0
sVtag
p970
I0
sVposition
p971
(lp972
F5.3032521574882985
aF-3.6168539300000022
aF-19.154637697329804
asVmomentum
p973
(lp974
F0
aF0
aF0
asa(dp975
Vmagmom
p976
F0
sVindex
p977
I38
sVsymbol
p978
VPd
p979
sVcharge
p980
F0
sVtag
p981
I0
sVposition
p982
(lp983
F0.60427031251832986
aF-3.6168539300000022
aF-21.607267345715936
asVmomentum
p984
(lp985
F0
aF0
aF0
asa(dp986
Vmagmom
p987
F0
sVindex
p988
I39
sVsymbol
p989
VPd
p990
sVcharge
p991
F0
sVtag
p992
I0
sVposition
p993
(lp994
F1.727446410810247
aF-2.2082171731210161e-15
aF-18.031461599037886
asVmomentum
p995
(lp996
F0
aF0
aF0
asasVcell
p997
(lp998
(lp999
F5.9075224700066293
aF-2.7125512106200501e-48
aF-2.2149661539217952e-32
aa(lp1000
F4.4293685883580241e-16
aF-7.23370786
aF4.429368588358026e-16
aa(lp1001
F0
aF-4.3407770902708105e-15
aF-35.445134820039776
aasVmass
p1002
F2884.8320000000003
sVpbc
p1003
(lp1004
I01
aI01
aI01
asVspacegroup
p1005
VPm (6)
p1006
sVconstraints
p1007
(lp1008
(dp1009
Vname
p1010
VFixAtoms
p1011
sVkwargs
p1012
(dp1013
Vindices
p1014
(lp1015
I2
aI3
aI4
aI5
aI10
aI13
aI16
aI18
aI20
aI21
aI22
aI23
aI24
aI25
aI26
aI27
aI28
aI29
aI30
aI31
aI32
aI33
aI34
aI35
aI36
aI37
aI38
aI39
assasaa(lp1016
g481
ag2
((ltRp1017
aa(lp1018
g484
ag485
aa(lp1019
g487
aS'9b2a1082ec5de1104d17fab32b60ab44935e052f'
p1020
aa(lp1021
g490
ag491
(S'\x07\xe1\x03\x1f\x13-\x04\x083\xd5'
tRp1022
aa(lp1023
g494
ag491
(S'\x07\xe1\x03\x1f\x13-\x04\x083\xde'
tRp1024
aa(lp1025
g497
a(dp1026
g499
g509
sg510
I00
sg511
g512
sg513
g517
sg518
g532
sg533
g534
sg535
I00
sg536
g537
sg538
I40
saatRp1027
ag2
((lp1028
(lp1029
g5
a(dp1030
Vinfo
p1031
(dp1032
sVvolume
p1033
F1514.6872864759289
sVnatoms
p1034
I40
sVsymbol_counts
p1035
(dp1036
VCu
p1037
I32
sVPd
p1038
I8
ssVchemical_symbols
p1039
(lp1040
VPd
p1041
aVCu
p1042
asVatoms
p1043
(lp1044
(dp1045
Vmagmom
p1046
F0
sVindex
p1047
I0
sVsymbol
p1048
VCu
p1049
sVcharge
p1050
F0
sVtag
p1051
I0
sVposition
p1052
(lp1053
F2.9537612350033147
aF0
aF13.882677804515579
asVmomentum
p1054
(lp1055
F0
aF0
aF0
asa(dp1056
Vmagmom
p1057
F0
sVindex
p1058
I1
sVsymbol
p1059
VCu
p1060
sVcharge
p1061
F0
sVtag
p1062
I0
sVposition
p1063
(lp1064
F2.9537612350033147
aF3.6168539299999996
aF13.882677804515579
asVmomentum
p1065
(lp1066
F0
aF0
aF0
asa(dp1067
Vmagmom
p1068
F0
sVindex
p1069
I2
sVsymbol
p1070
VCu
p1071
sVcharge
p1072
F0
sVtag
p1073
I0
sVposition
p1074
(lp1075
F1.1073421470895061e-16
aF1.808426965
aF16.836439039518893
asVmomentum
p1076
(lp1077
F0
aF0
aF0
asa(dp1078
Vmagmom
p1079
F0
sVindex
p1080
I3
sVsymbol
p1081
VCu
p1082
sVcharge
p1083
F0
sVtag
p1084
I0
sVposition
p1085
(lp1086
F3.3220264412685184e-16
aF5.4252808950000002
aF16.836439039518893
asVmomentum
p1087
(lp1088
F0
aF0
aF0
asa(dp1089
Vmagmom
p1090
F0
sVindex
p1091
I4
sVsymbol
p1092
VCu
p1093
sVcharge
p1094
F0
sVtag
p1095
I0
sVposition
p1096
(lp1097
F0.61399746179176928
aF-1.9721522630525295e-31
aF15.01842835976103
asVmomentum
p1098
(lp1099
F0
aF0
aF0
asa(dp1100
Vmagmom
p1101
F0
sVindex
p1102
I5
sVsymbol
p1103
VCu
p1104
sVcharge
p1105
F0
sVtag
p1106
I0
sVposition
p1107
(lp1108
F4.089511790248765
aF3.6168539299999996
aF16.222441577727125
asVmomentum
p1109
(lp1110
F0
aF0
aF0
asa(dp1111
Vmagmom
p1112
F0
sVindex
p1113
I6
sVsymbol
p1114
VCu
p1115
sVcharge
p1116
F0
sVtag
p1117
I0
sVposition
p1118
(lp1119
F1.8180106797578643
aF3.6168539299999996
aF17.450436501310662
asVmomentum
p1120
(lp1121
F0
aF0
aF0
asa(dp1122
Vmagmom
p1123
F0
sVindex
p1124
I7
sVsymbol
p1125
VCu
p1126
sVcharge
p1127
F0
sVtag
p1128
I0
sVposition
p1129
(lp1130
F5.2935250082148597
aF0
aF12.746927249270128
asVmomentum
p1131
(lp1132
F0
aF0
aF0
asa(dp1133
Vmagmom
p1134
F0
sVindex
p1135
I8
sVsymbol
p1136
VCu
p1137
sVcharge
p1138
F0
sVtag
p1139
I0
sVposition
p1140
(lp1141
F4.7093488970773612
aF1.8029828041274858
aF14.454264099141126
asVmomentum
p1142
(lp1143
F0
aF0
aF0
asa(dp1144
Vmagmom
p1145
F0
sVindex
p1146
I9
sVsymbol
p1147
VCu
p1148
sVcharge
p1149
F0
sVtag
p1150
I0
sVposition
p1151
(lp1152
F3.5253475296288612
aF5.419836734127486
aF12.127090142441533
asVmomentum
p1153
(lp1154
F0
aF0
aF0
asa(dp1155
Vmagmom
p1156
F0
sVindex
p1157
I10
sVsymbol
p1158
VCu
p1159
sVcharge
p1160
F0
sVtag
p1161
I0
sVposition
p1162
(lp1163
F2.3821749403777686
aF5.4198367341274851
aF15.638265466589624
asVmomentum
p1164
(lp1165
F0
aF0
aF0
asa(dp1166
Vmagmom
p1167
F0
sVindex
p1168
I11
sVsymbol
p1169
VCu
p1170
sVcharge
p1171
F0
sVtag
p1172
I0
sVposition
p1173
(lp1174
F1.1981735729292686
aF1.802982804127486
aF13.311091509890032
asVmomentum
p1175
(lp1176
F0
aF0
aF0
asa(dp1177
Vmagmom
p1178
F0
sVindex
p1179
I12
sVsymbol
p1180
VCu
p1181
sVcharge
p1182
F0
sVtag
p1183
I0
sVposition
p1184
(lp1185
F1.1981735729292688
aF5.4307250558725144
aF13.311091509890032
asVmomentum
p1186
(lp1187
F0
aF0
aF0
asa(dp1188
Vmagmom
p1189
F0
sVindex
p1190
I13
sVsymbol
p1191
VCu
p1192
sVcharge
p1193
F0
sVtag
p1194
I0
sVposition
p1195
(lp1196
F2.3821749403777681
aF1.8138711258725138
aF15.638265466589624
asVmomentum
p1197
(lp1198
F0
aF0
aF0
asa(dp1199
Vmagmom
p1200
F0
sVindex
p1201
I14
sVsymbol
p1202
VCu
p1203
sVcharge
p1204
F0
sVtag
p1205
I0
sVposition
p1206
(lp1207
F3.5253475296288608
aF1.8138711258725133
aF12.127090142441533
asVmomentum
p1208
(lp1209
F0
aF0
aF0
asa(dp1210
Vmagmom
p1211
F0
sVindex
p1212
I15
sVsymbol
p1213
VCu
p1214
sVcharge
p1215
F0
sVtag
p1216
I0
sVposition
p1217
(lp1218
F4.7093488970773612
aF5.4307250558725144
aF14.454264099141126
asVmomentum
p1219
(lp1220
F0
aF0
aF0
asa(dp1221
Vmagmom
p1222
F0
sVindex
p1223
I16
sVsymbol
p1224
VPd
p1225
sVcharge
p1226
F0
sVtag
p1227
I0
sVposition
p1228
(lp1229
F4.1800760591963826
aF0
aF16.232168727000563
asVmomentum
p1230
(lp1231
F0
aF0
aF0
asa(dp1232
Vmagmom
p1233
F0
sVindex
p1234
I17
sVsymbol
p1235
VPd
p1236
sVcharge
p1237
F0
sVtag
p1238
I0
sVposition
p1239
(lp1240
F5.3032521574882985
aF3.61685393
aF12.656362980322511
asVmomentum
p1241
(lp1242
F0
aF0
aF0
asa(dp1243
Vmagmom
p1244
F0
sVindex
p1245
I18
sVsymbol
p1246
VPd
p1247
sVcharge
p1248
F0
sVtag
p1249
I0
sVposition
p1250
(lp1251
F0.60427031251832986
aF3.6168539299999996
aF15.108992628708647
asVmomentum
p1252
(lp1253
F0
aF0
aF0
asa(dp1254
Vmagmom
p1255
F0
sVindex
p1256
I19
sVsymbol
p1257
VPd
p1258
sVcharge
p1259
F0
sVtag
p1260
I0
sVposition
p1261
(lp1262
F1.727446410810247
aF-1.9721522630525295e-31
aF17.440709352037224
asVmomentum
p1263
(lp1264
F0
aF0
aF0
asa(dp1265
Vmagmom
p1266
F0
sVindex
p1267
I20
sVsymbol
p1268
VCu
p1269
sVcharge
p1270
F0
sVtag
p1271
I0
sVposition
p1272
(lp1273
F2.9537612350033147
aF-1.9721522630525295e-31
aF19.79020027452221
asVmomentum
p1274
(lp1275
F0
aF0
aF0
asa(dp1276
Vmagmom
p1277
F0
sVindex
p1278
I21
sVsymbol
p1279
VCu
p1280
sVcharge
p1281
F0
sVtag
p1282
I0
sVposition
p1283
(lp1284
F2.9537612350033147
aF3.6168539299999996
aF19.79020027452221
asVmomentum
p1285
(lp1286
F0
aF0
aF0
asa(dp1287
Vmagmom
p1288
F0
sVindex
p1289
I22
sVsymbol
p1290
VCu
p1291
sVcharge
p1292
F0
sVtag
p1293
I0
sVposition
p1294
(lp1295
F1.107342147089506e-16
aF1.808426965
aF22.743961509525519
asVmomentum
p1296
(lp1297
F0
aF0
aF0
asa(dp1298
Vmagmom
p1299
F0
sVindex
p1300
I23
sVsymbol
p1301
VCu
p1302
sVcharge
p1303
F0
sVtag
p1304
I0
sVposition
p1305
(lp1306
F3.3220264412685184e-16
aF5.4252808950000002
aF22.743961509525519
asVmomentum
p1307
(lp1308
F0
aF0
aF0
asa(dp1309
Vmagmom
p1310
F0
sVindex
p1311
I24
sVsymbol
p1312
VCu
p1313
sVcharge
p1314
F0
sVtag
p1315
I0
sVposition
p1316
(lp1317
F0.61399746179176928
aF0
aF20.925950829767661
asVmomentum
p1318
(lp1319
F0
aF0
aF0
asa(dp1320
Vmagmom
p1321
F0
sVindex
p1322
I25
sVsymbol
p1323
VCu
p1324
sVcharge
p1325
F0
sVtag
p1326
I0
sVposition
p1327
(lp1328
F4.089511790248765
aF3.6168539299999996
aF22.12996404773375
asVmomentum
p1329
(lp1330
F0
aF0
aF0
asa(dp1331
Vmagmom
p1332
F0
sVindex
p1333
I26
sVsymbol
p1334
VCu
p1335
sVcharge
p1336
F0
sVtag
p1337
I0
sVposition
p1338
(lp1339
F1.8180106797578643
aF3.61685393
aF23.357958971317291
asVmomentum
p1340
(lp1341
F0
aF0
aF0
asa(dp1342
Vmagmom
p1343
F0
sVindex
p1344
I27
sVsymbol
p1345
VCu
p1346
sVcharge
p1347
F0
sVtag
p1348
I0
sVposition
p1349
(lp1350
F5.2935250082148597
aF0
aF18.654449719276759
asVmomentum
p1351
(lp1352
F0
aF0
aF0
asa(dp1353
Vmagmom
p1354
F0
sVindex
p1355
I28
sVsymbol
p1356
VCu
p1357
sVcharge
p1358
F0
sVtag
p1359
I0
sVposition
p1360
(lp1361
F4.7093488970773612
aF1.8029828041274858
aF20.361786569147753
asVmomentum
p1362
(lp1363
F0
aF0
aF0
asa(dp1364
Vmagmom
p1365
F0
sVindex
p1366
I29
sVsymbol
p1367
VCu
p1368
sVcharge
p1369
F0
sVtag
p1370
I0
sVposition
p1371
(lp1372
F3.5253475296288612
aF5.419836734127486
aF18.034612612448164
asVmomentum
p1373
(lp1374
F0
aF0
aF0
asa(dp1375
Vmagmom
p1376
F0
sVindex
p1377
I30
sVsymbol
p1378
VCu
p1379
sVcharge
p1380
F0
sVtag
p1381
I0
sVposition
p1382
(lp1383
F2.3821749403777686
aF5.4198367341274842
aF21.545787936596252
asVmomentum
p1384
(lp1385
F0
aF0
aF0
asa(dp1386
Vmagmom
p1387
F0
sVindex
p1388
I31
sVsymbol
p1389
VCu
p1390
sVcharge
p1391
F0
sVtag
p1392
I0
sVposition
p1393
(lp1394
F1.1981735729292686
aF1.8029828041274858
aF19.218613979896659
asVmomentum
p1395
(lp1396
F0
aF0
aF0
asa(dp1397
Vmagmom
p1398
F0
sVindex
p1399
I32
sVsymbol
p1400
VCu
p1401
sVcharge
p1402
F0
sVtag
p1403
I0
sVposition
p1404
(lp1405
F1.1981735729292688
aF5.4307250558725144
aF19.218613979896659
asVmomentum
p1406
(lp1407
F0
aF0
aF0
asa(dp1408
Vmagmom
p1409
F0
sVindex
p1410
I33
sVsymbol
p1411
VCu
p1412
sVcharge
p1413
F0
sVtag
p1414
I0
sVposition
p1415
(lp1416
F2.3821749403777681
aF1.8138711258725138
aF21.545787936596252
asVmomentum
p1417
(lp1418
F0
aF0
aF0
asa(dp1419
Vmagmom
p1420
F0
sVindex
p1421
I34
sVsymbol
p1422
VCu
p1423
sVcharge
p1424
F0
sVtag
p1425
I0
sVposition
p1426
(lp1427
F3.5253475296288608
aF1.8138711258725133
aF18.034612612448164
asVmomentum
p1428
(lp1429
F0
aF0
aF0
asa(dp1430
Vmagmom
p1431
F0
sVindex
p1432
I35
sVsymbol
p1433
VCu
p1434
sVcharge
p1435
F0
sVtag
p1436
I0
sVposition
p1437
(lp1438
F4.7093488970773612
aF5.4307250558725135
aF20.361786569147753
asVmomentum
p1439
(lp1440
F0
aF0
aF0
asa(dp1441
Vmagmom
p1442
F0
sVindex
p1443
I36
sVsymbol
p1444
VPd
p1445
sVcharge
p1446
F0
sVtag
p1447
I0
sVposition
p1448
(lp1449
F4.1800760591963826
aF1.9721522630525295e-31
aF22.139691197007188
asVmomentum
p1450
(lp1451
F0
aF0
aF0
asa(dp1452
Vmagmom
p1453
F0
sVindex
p1454
I37
sVsymbol
p1455
VPd
p1456
sVcharge
p1457
F0
sVtag
p1458
I0
sVposition
p1459
(lp1460
F5.3032521574882985
aF3.61685393
aF18.563885450329138
asVmomentum
p1461
(lp1462
F0
aF0
aF0
asa(dp1463
Vmagmom
p1464
F0
sVindex
p1465
I38
sVsymbol
p1466
VPd
p1467
sVcharge
p1468
F0
sVtag
p1469
I0
sVposition
p1470
(lp1471
F0.60427031251832986
aF3.6168539299999996
aF21.016515098715274
asVmomentum
p1472
(lp1473
F0
aF0
aF0
asa(dp1474
Vmagmom
p1475
F0
sVindex
p1476
I39
sVsymbol
p1477
VPd
p1478
sVcharge
p1479
F0
sVtag
p1480
I0
sVposition
p1481
(lp1482
F1.727446410810247
aF-1.9721522630525295e-31
aF23.348231822043854
asVmomentum
p1483
(lp1484
F0
aF0
aF0
asasVcell
p1485
(lp1486
(lp1487
F5.9075224700066293
aF0
aF2.2149661539217952e-32
aa(lp1488
F4.4293685883580241e-16
aF7.23370786
aF4.4293685883580241e-16
aa(lp1489
F0
aF0
aF35.445134820039776
aasVmass
p1490
F2884.8320000000003
sVpbc
p1491
(lp1492
I01
aI01
aI01
asVspacegroup
p1493
VPm (6)
p1494
sVconstraints
p1495
(lp1496
(dp1497
Vname
p1498
VFixAtoms
p1499
sVkwargs
p1500
(dp1501
Vindices
p1502
(lp1503
I0
aI1
aI2
aI3
aI4
aI5
aI6
aI7
aI8
aI9
aI10
aI11
aI12
aI13
aI14
aI15
aI16
aI17
aI18
aI19
aI20
aI21
aI27
aI29
aI31
aI32
aI34
aI37
assasaa(lp1504
g481
ag2
((ltRp1505
aa(lp1506
g484
ag485
aa(lp1507
g487
aS'de6733a16c7aba25ef4ff6b3d9d0dad9fe3d72e4'
p1508
aa(lp1509
g490
ag491
(S'\x07\xe1\x03\x1f\x13-\x04\x08\xb6\x97'
tRp1510
aa(lp1511
g494
ag491
(S'\x07\xe1\x03\x1f\x13-\x04\x08\xb6\xa0'
tRp1512
aa(lp1513
g497
a(dp1514
g499
g509
sg510
I00
sg511
g512
sg513
g514
(g516
S'\xd9\xc9;\xe2\xeb\x86\xc3?'
tRp1515
sg518
g532
sg533
g534
sg535
I01
sg536
g537
sg538
I40
saatRp1516
ag2
((lp1517
(lp1518
g5
a(dp1519
Vinfo
p1520
(dp1521
sVvolume
p1522
F1514.6872864759289
sVnatoms
p1523
I40
sVsymbol_counts
p1524
(dp1525
VCu
p1526
I32
sVPd
p1527
I8
ssVchemical_symbols
p1528
(lp1529
VPd
p1530
aVCu
p1531
asVatoms
p1532
(lp1533
(dp1534
Vmagmom
p1535
F0
sVindex
p1536
I0
sVsymbol
p1537
VCu
p1538
sVcharge
p1539
F0
sVtag
p1540
I0
sVposition
p1541
(lp1542
F2.9537612350033147
aF-1.7001376936894008e-15
aF-13.882677804515579
asVmomentum
p1543
(lp1544
F0
aF0
aF0
asa(dp1545
Vmagmom
p1546
F0
sVindex
p1547
I1
sVsymbol
p1548
VCu
p1549
sVcharge
p1550
F0
sVtag
p1551
I0
sVposition
p1552
(lp1553
F2.9537612350033147
aF-3.6168539300000013
aF-13.882677804515579
asVmomentum
p1554
(lp1555
F0
aF0
aF0
asa(dp1556
Vmagmom
p1557
F0
sVindex
p1558
I2
sVsymbol
p1559
VCu
p1560
sVcharge
p1561
F0
sVtag
p1562
I0
sVposition
p1563
(lp1564
F1.1073421470895061e-16
aF-1.808426965000002
aF-16.836439039518893
asVmomentum
p1565
(lp1566
F0
aF0
aF0
asa(dp1567
Vmagmom
p1568
F0
sVindex
p1569
I3
sVsymbol
p1570
VCu
p1571
sVcharge
p1572
F0
sVtag
p1573
I0
sVposition
p1574
(lp1575
F3.3220264412685184e-16
aF-5.425280895000002
aF-16.836439039518893
asVmomentum
p1576
(lp1577
F0
aF0
aF0
asa(dp1578
Vmagmom
p1579
F0
sVindex
p1580
I4
sVsymbol
p1581
VCu
p1582
sVcharge
p1583
F0
sVtag
p1584
I0
sVposition
p1585
(lp1586
F0.61399746179176928
aF-1.8392270219005176e-15
aF-15.01842835976103
asVmomentum
p1587
(lp1588
F0
aF0
aF0
asa(dp1589
Vmagmom
p1590
F0
sVindex
p1591
I5
sVsymbol
p1592
VCu
p1593
sVcharge
p1594
F0
sVtag
p1595
I0
sVposition
p1596
(lp1597
F4.089511790248765
aF-3.6168539300000013
aF-16.222441577727125
asVmomentum
p1598
(lp1599
F0
aF0
aF0
asa(dp1600
Vmagmom
p1601
F0
sVindex
p1602
I6
sVsymbol
p1603
VCu
p1604
sVcharge
p1605
F0
sVtag
p1606
I0
sVposition
p1607
(lp1608
F1.8180106797578643
aF-3.6168539300000018
aF-17.450436501310662
asVmomentum
p1609
(lp1610
F0
aF0
aF0
asa(dp1611
Vmagmom
p1612
F0
sVindex
p1613
I7
sVsymbol
p1614
VCu
p1615
sVcharge
p1616
F0
sVtag
p1617
I0
sVposition
p1618
(lp1619
F5.2935250082148597
aF-1.5610483654782837e-15
aF-12.746927249270128
asVmomentum
p1620
(lp1621
F0
aF0
aF0
asa(dp1622
Vmagmom
p1623
F0
sVindex
p1624
I8
sVsymbol
p1625
VCu
p1626
sVcharge
p1627
F0
sVtag
p1628
I0
sVposition
p1629
(lp1630
F4.7093488970773612
aF-1.8029828041274876
aF-14.454264099141126
asVmomentum
p1631
(lp1632
F0
aF0
aF0
asa(dp1633
Vmagmom
p1634
F0
sVindex
p1635
I9
sVsymbol
p1636
VCu
p1637
sVcharge
p1638
F0
sVtag
p1639
I0
sVposition
p1640
(lp1641
F3.5253475296288612
aF-5.4198367341274878
aF-12.127090142441533
asVmomentum
p1642
(lp1643
F0
aF0
aF0
asa(dp1644
Vmagmom
p1645
F0
sVindex
p1646
I10
sVsymbol
p1647
VCu
p1648
sVcharge
p1649
F0
sVtag
p1650
I0
sVposition
p1651
(lp1652
F2.3821749403777686
aF-5.4198367341274869
aF-15.638265466589624
asVmomentum
p1653
(lp1654
F0
aF0
aF0
asa(dp1655
Vmagmom
p1656
F0
sVindex
p1657
I11
sVsymbol
p1658
VCu
p1659
sVcharge
p1660
F0
sVtag
p1661
I0
sVposition
p1662
(lp1663
F1.1981735729292686
aF-1.8029828041274876
aF-13.311091509890032
asVmomentum
p1664
(lp1665
F0
aF0
aF0
asa(dp1666
Vmagmom
p1667
F0
sVindex
p1668
I12
sVsymbol
p1669
VCu
p1670
sVcharge
p1671
F0
sVtag
p1672
I0
sVposition
p1673
(lp1674
F1.1981735729292688
aF-5.4307250558725162
aF-13.311091509890032
asVmomentum
p1675
(lp1676
F0
aF0
aF0
asa(dp1677
Vmagmom
p1678
F0
sVindex
p1679
I13
sVsymbol
p1680
VCu
p1681
sVcharge
p1682
F0
sVtag
p1683
I0
sVposition
p1684
(lp1685
F2.3821749403777681
aF-1.8138711258725158
aF-15.638265466589624
asVmomentum
p1686
(lp1687
F0
aF0
aF0
asa(dp1688
Vmagmom
p1689
F0
sVindex
p1690
I14
sVsymbol
p1691
VCu
p1692
sVcharge
p1693
F0
sVtag
p1694
I0
sVposition
p1695
(lp1696
F3.5253475296288608
aF-1.8138711258725149
aF-12.127090142441533
asVmomentum
p1697
(lp1698
F0
aF0
aF0
asa(dp1699
Vmagmom
p1700
F0
sVindex
p1701
I15
sVsymbol
p1702
VCu
p1703
sVcharge
p1704
F0
sVtag
p1705
I0
sVposition
p1706
(lp1707
F4.7093488970773612
aF-5.4307250558725162
aF-14.454264099141126
asVmomentum
p1708
(lp1709
F0
aF0
aF0
asa(dp1710
Vmagmom
p1711
F0
sVindex
p1712
I16
sVsymbol
p1713
VPd
p1714
sVcharge
p1715
F0
sVtag
p1716
I0
sVposition
p1717
(lp1718
F4.1800760591963826
aF-1.9878673474741007e-15
aF-16.232168727000563
asVmomentum
p1719
(lp1720
F0
aF0
aF0
asa(dp1721
Vmagmom
p1722
F0
sVindex
p1723
I17
sVsymbol
p1724
VPd
p1725
sVcharge
p1726
F0
sVtag
p1727
I0
sVposition
p1728
(lp1729
F5.3032521574882985
aF-3.6168539300000013
aF-12.656362980322511
asVmomentum
p1730
(lp1731
F0
aF0
aF0
asa(dp1732
Vmagmom
p1733
F0
sVindex
p1734
I18
sVsymbol
p1735
VPd
p1736
sVcharge
p1737
F0
sVtag
p1738
I0
sVposition
p1739
(lp1740
F0.60427031251832986
aF-3.6168539300000013
aF-15.108992628708647
asVmomentum
p1741
(lp1742
F0
aF0
aF0
asa(dp1743
Vmagmom
p1744
F0
sVindex
p1745
I19
sVsymbol
p1746
VPd
p1747
sVcharge
p1748
F0
sVtag
p1749
I0
sVposition
p1750
(lp1751
F1.727446410810247
aF-2.1358708882831692e-15
aF-17.440709352037224
asVmomentum
p1752
(lp1753
F0
aF0
aF0
asa(dp1754
Vmagmom
p1755
F0
sVindex
p1756
I20
sVsymbol
p1757
VCu
p1758
sVcharge
p1759
F0
sVtag
p1760
I0
sVposition
p1761
(lp1762
F2.9537612350033147
aF-2.4236005420678696e-15
aF-19.79020027452221
asVmomentum
p1763
(lp1764
F0
aF0
aF0
asa(dp1765
Vmagmom
p1766
F0
sVindex
p1767
I21
sVsymbol
p1768
VCu
p1769
sVcharge
p1770
F0
sVtag
p1771
I0
sVposition
p1772
(lp1773
F2.9537612350033147
aF-3.6168539300000018
aF-19.79020027452221
asVmomentum
p1774
(lp1775
F0
aF0
aF0
asa(dp1776
Vmagmom
p1777
F0
sVindex
p1778
I22
sVsymbol
p1779
VCu
p1780
sVcharge
p1781
F0
sVtag
p1782
I0
sVposition
p1783
(lp1784
F1.107342147089506e-16
aF-1.8084269650000029
aF-22.743961509525519
asVmomentum
p1785
(lp1786
F0
aF0
aF0
asa(dp1787
Vmagmom
p1788
F0
sVindex
p1789
I23
sVsymbol
p1790
VCu
p1791
sVcharge
p1792
F0
sVtag
p1793
I0
sVposition
p1794
(lp1795
F3.3220264412685184e-16
aF-5.4252808950000029
aF-22.743961509525519
asVmomentum
p1796
(lp1797
F0
aF0
aF0
asa(dp1798
Vmagmom
p1799
F0
sVindex
p1800
I24
sVsymbol
p1801
VCu
p1802
sVcharge
p1803
F0
sVtag
p1804
I0
sVposition
p1805
(lp1806
F0.61399746179176928
aF-2.5626898702789864e-15
aF-20.925950829767661
asVmomentum
p1807
(lp1808
F0
aF0
aF0
asa(dp1809
Vmagmom
p1810
F0
sVindex
p1811
I25
sVsymbol
p1812
VCu
p1813
sVcharge
p1814
F0
sVtag
p1815
I0
sVposition
p1816
(lp1817
F4.089511790248765
aF-3.6168539300000022
aF-22.12996404773375
asVmomentum
p1818
(lp1819
F0
aF0
aF0
asa(dp1820
Vmagmom
p1821
F0
sVindex
p1822
I26
sVsymbol
p1823
VCu
p1824
sVcharge
p1825
F0
sVtag
p1826
I0
sVposition
p1827
(lp1828
F1.8180106797578643
aF-3.6168539300000027
aF-23.357958971317291
asVmomentum
p1829
(lp1830
F0
aF0
aF0
asa(dp1831
Vmagmom
p1832
F0
sVindex
p1833
I27
sVsymbol
p1834
VCu
p1835
sVcharge
p1836
F0
sVtag
p1837
I0
sVposition
p1838
(lp1839
F5.2935250082148597
aF-2.2845112138567523e-15
aF-18.654449719276759
asVmomentum
p1840
(lp1841
F0
aF0
aF0
asa(dp1842
Vmagmom
p1843
F0
sVindex
p1844
I28
sVsymbol
p1845
VCu
p1846
sVcharge
p1847
F0
sVtag
p1848
I0
sVposition
p1849
(lp1850
F4.7093488970773612
aF-1.8029828041274882
aF-20.361786569147753
asVmomentum
p1851
(lp1852
F0
aF0
aF0
asa(dp1853
Vmagmom
p1854
F0
sVindex
p1855
I29
sVsymbol
p1856
VCu
p1857
sVcharge
p1858
F0
sVtag
p1859
I0
sVposition
p1860
(lp1861
F3.5253475296288612
aF-5.4198367341274878
aF-18.034612612448164
asVmomentum
p1862
(lp1863
F0
aF0
aF0
asa(dp1864
Vmagmom
p1865
F0
sVindex
p1866
I30
sVsymbol
p1867
VCu
p1868
sVcharge
p1869
F0
sVtag
p1870
I0
sVposition
p1871
(lp1872
F2.3821749403777686
aF-5.4198367341274869
aF-21.545787936596252
asVmomentum
p1873
(lp1874
F0
aF0
aF0
asa(dp1875
Vmagmom
p1876
F0
sVindex
p1877
I31
sVsymbol
p1878
VCu
p1879
sVcharge
p1880
F0
sVtag
p1881
I0
sVposition
p1882
(lp1883
F1.1981735729292686
aF-1.8029828041274882
aF-19.218613979896659
asVmomentum
p1884
(lp1885
F0
aF0
aF0
asa(dp1886
Vmagmom
p1887
F0
sVindex
p1888
I32
sVsymbol
p1889
VCu
p1890
sVcharge
p1891
F0
sVtag
p1892
I0
sVposition
p1893
(lp1894
F1.1981735729292688
aF-5.4307250558725171
aF-19.218613979896659
asVmomentum
p1895
(lp1896
F0
aF0
aF0
asa(dp1897
Vmagmom
p1898
F0
sVindex
p1899
I33
sVsymbol
p1900
VCu
p1901
sVcharge
p1902
F0
sVtag
p1903
I0
sVposition
p1904
(lp1905
F2.3821749403777681
aF-1.8138711258725164
aF-21.545787936596252
asVmomentum
p1906
(lp1907
F0
aF0
aF0
asa(dp1908
Vmagmom
p1909
F0
sVindex
p1910
I34
sVsymbol
p1911
VCu
p1912
sVcharge
p1913
F0
sVtag
p1914
I0
sVposition
p1915
(lp1916
F3.5253475296288608
aF-1.8138711258725155
aF-18.034612612448164
asVmomentum
p1917
(lp1918
F0
aF0
aF0
asa(dp1919
Vmagmom
p1920
F0
sVindex
p1921
I35
sVsymbol
p1922
VCu
p1923
sVcharge
p1924
F0
sVtag
p1925
I0
sVposition
p1926
(lp1927
F4.7093488970773612
aF-5.4307250558725162
aF-20.361786569147753
asVmomentum
p1928
(lp1929
F0
aF0
aF0
asa(dp1930
Vmagmom
p1931
F0
sVindex
p1932
I36
sVsymbol
p1933
VPd
p1934
sVcharge
p1935
F0
sVtag
p1936
I0
sVposition
p1937
(lp1938
F4.1800760591963826
aF-2.7113301958525691e-15
aF-22.139691197007188
asVmomentum
p1939
(lp1940
F0
aF0
aF0
asa(dp1941
Vmagmom
p1942
F0
sVindex
p1943
I37
sVsymbol
p1944
VPd
p1945
sVcharge
p1946
F0
sVtag
p1947
I0
sVposition
p1948
(lp1949
F5.3032521574882985
aF-3.6168539300000022
aF-18.563885450329138
asVmomentum
p1950
(lp1951
F0
aF0
aF0
asa(dp1952
Vmagmom
p1953
F0
sVindex
p1954
I38
sVsymbol
p1955
VPd
p1956
sVcharge
p1957
F0
sVtag
p1958
I0
sVposition
p1959
(lp1960
F0.60427031251832986
aF-3.6168539300000022
aF-21.016515098715274
asVmomentum
p1961
(lp1962
F0
aF0
aF0
asa(dp1963
Vmagmom
p1964
F0
sVindex
p1965
I39
sVsymbol
p1966
VPd
p1967
sVcharge
p1968
F0
sVtag
p1969
I0
sVposition
p1970
(lp1971
F1.727446410810247
aF-2.8593337366616377e-15
aF-23.348231822043854
asVmomentum
p1972
(lp1973
F0
aF0
aF0
asasVcell
p1974
(lp1975
(lp1976
F5.9075224700066293
aF-2.7125512106200501e-48
aF-2.2149661539217952e-32
aa(lp1977
F4.4293685883580241e-16
aF-7.23370786
aF4.429368588358026e-16
aa(lp1978
F0
aF-4.3407770902708105e-15
aF-35.445134820039776
aasVmass
p1979
F2884.8320000000003
sVpbc
p1980
(lp1981
I01
aI01
aI01
asVspacegroup
p1982
VPm (6)
p1983
sVconstraints
p1984
(lp1985
(dp1986
Vname
p1987
VFixAtoms
p1988
sVkwargs
p1989
(dp1990
Vindices
p1991
(lp1992
I2
aI3
aI5
aI6
aI10
aI13
aI16
aI19
aI20
aI21
aI22
aI23
aI24
aI25
aI26
aI27
aI28
aI29
aI30
aI31
aI32
aI33
aI34
aI35
aI36
aI37
aI38
aI39
assasaa(lp1993
g481
ag2
((ltRp1994
aa(lp1995
g484
ag485
aa(lp1996
g487
aS'd7e06af7c927f956d924cec6cd11e6b0f32d06ff'
p1997
aa(lp1998
g490
ag491
(S'\x07\xe1\x03\x1f\x13-\x04\x08\xf0\x17'
tRp1999
aa(lp2000
g494
ag491
(S'\x07\xe1\x03\x1f\x13-\x04\x08\xf0\x1f'
tRp2001
aa(lp2002
g497
a(dp2003
g499
g509
sg510
I00
sg511
g512
sg513
g1515
sg518
g532
sg533
g534
sg535
I00
sg536
g537
sg538
I40
saatRp2004
ag2
((lp2005
(lp2006
g5
a(dp2007
Vinfo
p2008
(dp2009
sVvolume
p2010
F1514.6872864759289
sVnatoms
p2011
I40
sVsymbol_counts
p2012
(dp2013
VCu
p2014
I32
sVPd
p2015
I8
ssVchemical_symbols
p2016
(lp2017
VPd
p2018
aVCu
p2019
asVatoms
p2020
(lp2021
(dp2022
Vmagmom
p2023
F0
sVindex
p2024
I0
sVsymbol
p2025
VCu
p2026
sVcharge
p2027
F0
sVtag
p2028
I0
sVposition
p2029
(lp2030
F2.9537612350033147
aF0
aF13.291925557514915
asVmomentum
p2031
(lp2032
F0
aF0
aF0
asa(dp2033
Vmagmom
p2034
F0
sVindex
p2035
I1
sVsymbol
p2036
VCu
p2037
sVcharge
p2038
F0
sVtag
p2039
I0
sVposition
p2040
(lp2041
F2.9537612350033147
aF3.6168539299999996
aF13.291925557514915
asVmomentum
p2042
(lp2043
F0
aF0
aF0
asa(dp2044
Vmagmom
p2045
F0
sVindex
p2046
I2
sVsymbol
p2047
VCu
p2048
sVcharge
p2049
F0
sVtag
p2050
I0
sVposition
p2051
(lp2052
F1.107342147089506e-16
aF1.808426965
aF16.245686792518232
asVmomentum
p2053
(lp2054
F0
aF0
aF0
asa(dp2055
Vmagmom
p2056
F0
sVindex
p2057
I3
sVsymbol
p2058
VCu
p2059
sVcharge
p2060
F0
sVtag
p2061
I0
sVposition
p2062
(lp2063
F3.3220264412685184e-16
aF5.4252808950000002
aF16.245686792518232
asVmomentum
p2064
(lp2065
F0
aF0
aF0
asa(dp2066
Vmagmom
p2067
F0
sVindex
p2068
I4
sVsymbol
p2069
VCu
p2070
sVcharge
p2071
F0
sVtag
p2072
I0
sVposition
p2073
(lp2074
F0.61399746179176928
aF0
aF14.427676112760366
asVmomentum
p2075
(lp2076
F0
aF0
aF0
asa(dp2077
Vmagmom
p2078
F0
sVindex
p2079
I5
sVsymbol
p2080
VCu
p2081
sVcharge
p2082
F0
sVtag
p2083
I0
sVposition
p2084
(lp2085
F4.089511790248765
aF3.6168539299999996
aF15.631689330726461
asVmomentum
p2086
(lp2087
F0
aF0
aF0
asa(dp2088
Vmagmom
p2089
F0
sVindex
p2090
I6
sVsymbol
p2091
VCu
p2092
sVcharge
p2093
F0
sVtag
p2094
I0
sVposition
p2095
(lp2096
F1.8180106797578643
aF3.6168539299999996
aF16.85968425431
asVmomentum
p2097
(lp2098
F0
aF0
aF0
asa(dp2099
Vmagmom
p2100
F0
sVindex
p2101
I7
sVsymbol
p2102
VCu
p2103
sVcharge
p2104
F0
sVtag
p2105
I0
sVposition
p2106
(lp2107
F5.2935250082148597
aF0
aF12.156175002269466
asVmomentum
p2108
(lp2109
F0
aF0
aF0
asa(dp2110
Vmagmom
p2111
F0
sVindex
p2112
I8
sVsymbol
p2113
VCu
p2114
sVcharge
p2115
F0
sVtag
p2116
I0
sVposition
p2117
(lp2118
F4.7093488970773612
aF1.8029828041274858
aF13.863511852140464
asVmomentum
p2119
(lp2120
F0
aF0
aF0
asa(dp2121
Vmagmom
p2122
F0
sVindex
p2123
I9
sVsymbol
p2124
VCu
p2125
sVcharge
p2126
F0
sVtag
p2127
I0
sVposition
p2128
(lp2129
F3.5253475296288612
aF5.419836734127486
aF17.443860365447499
asVmomentum
p2130
(lp2131
F0
aF0
aF0
asa(dp2132
Vmagmom
p2133
F0
sVindex
p2134
I10
sVsymbol
p2135
VCu
p2136
sVcharge
p2137
F0
sVtag
p2138
I0
sVposition
p2139
(lp2140
F2.3821749403777686
aF5.4198367341274851
aF15.047513219588962
asVmomentum
p2141
(lp2142
F0
aF0
aF0
asa(dp2143
Vmagmom
p2144
F0
sVindex
p2145
I11
sVsymbol
p2146
VCu
p2147
sVcharge
p2148
F0
sVtag
p2149
I0
sVposition
p2150
(lp2151
F1.1981735729292686
aF1.802982804127486
aF12.72033926288937
asVmomentum
p2152
(lp2153
F0
aF0
aF0
asa(dp2154
Vmagmom
p2155
F0
sVindex
p2156
I12
sVsymbol
p2157
VCu
p2158
sVcharge
p2159
F0
sVtag
p2160
I0
sVposition
p2161
(lp2162
F1.1981735729292688
aF5.4307250558725144
aF12.72033926288937
asVmomentum
p2163
(lp2164
F0
aF0
aF0
asa(dp2165
Vmagmom
p2166
F0
sVindex
p2167
I13
sVsymbol
p2168
VCu
p2169
sVcharge
p2170
F0
sVtag
p2171
I0
sVposition
p2172
(lp2173
F2.3821749403777681
aF1.8138711258725138
aF15.047513219588962
asVmomentum
p2174
(lp2175
F0
aF0
aF0
asa(dp2176
Vmagmom
p2177
F0
sVindex
p2178
I14
sVsymbol
p2179
VCu
p2180
sVcharge
p2181
F0
sVtag
p2182
I0
sVposition
p2183
(lp2184
F3.5253475296288608
aF1.8138711258725133
aF17.443860365447499
asVmomentum
p2185
(lp2186
F0
aF0
aF0
asa(dp2187
Vmagmom
p2188
F0
sVindex
p2189
I15
sVsymbol
p2190
VCu
p2191
sVcharge
p2192
F0
sVtag
p2193
I0
sVposition
p2194
(lp2195
F4.7093488970773612
aF5.4307250558725144
aF13.863511852140464
asVmomentum
p2196
(lp2197
F0
aF0
aF0
asa(dp2198
Vmagmom
p2199
F0
sVindex
p2200
I16
sVsymbol
p2201
VPd
p2202
sVcharge
p2203
F0
sVtag
p2204
I0
sVposition
p2205
(lp2206
F4.1800760591963826
aF0
aF15.641416479999901
asVmomentum
p2207
(lp2208
F0
aF0
aF0
asa(dp2209
Vmagmom
p2210
F0
sVindex
p2211
I17
sVsymbol
p2212
VPd
p2213
sVcharge
p2214
F0
sVtag
p2215
I0
sVposition
p2216
(lp2217
F5.3032521574882985
aF3.61685393
aF12.065610733321849
asVmomentum
p2218
(lp2219
F0
aF0
aF0
asa(dp2220
Vmagmom
p2221
F0
sVindex
p2222
I18
sVsymbol
p2223
VPd
p2224
sVcharge
p2225
F0
sVtag
p2226
I0
sVposition
p2227
(lp2228
F0.60427031251832986
aF3.6168539299999996
aF14.518240381707985
asVmomentum
p2229
(lp2230
F0
aF0
aF0
asa(dp2231
Vmagmom
p2232
F0
sVindex
p2233
I19
sVsymbol
p2234
VPd
p2235
sVcharge
p2236
F0
sVtag
p2237
I0
sVposition
p2238
(lp2239
F1.727446410810247
aF-1.9721522630525295e-31
aF16.849957105036562
asVmomentum
p2240
(lp2241
F0
aF0
aF0
asa(dp2242
Vmagmom
p2243
F0
sVindex
p2244
I20
sVsymbol
p2245
VCu
p2246
sVcharge
p2247
F0
sVtag
p2248
I0
sVposition
p2249
(lp2250
F2.9537612350033147
aF0
aF19.199448027521544
asVmomentum
p2251
(lp2252
F0
aF0
aF0
asa(dp2253
Vmagmom
p2254
F0
sVindex
p2255
I21
sVsymbol
p2256
VCu
p2257
sVcharge
p2258
F0
sVtag
p2259
I0
sVposition
p2260
(lp2261
F2.9537612350033147
aF3.6168539299999996
aF19.199448027521544
asVmomentum
p2262
(lp2263
F0
aF0
aF0
asa(dp2264
Vmagmom
p2265
F0
sVindex
p2266
I22
sVsymbol
p2267
VCu
p2268
sVcharge
p2269
F0
sVtag
p2270
I0
sVposition
p2271
(lp2272
F1.107342147089506e-16
aF1.808426965
aF22.153209262524861
asVmomentum
p2273
(lp2274
F0
aF0
aF0
asa(dp2275
Vmagmom
p2276
F0
sVindex
p2277
I23
sVsymbol
p2278
VCu
p2279
sVcharge
p2280
F0
sVtag
p2281
I0
sVposition
p2282
(lp2283
F3.3220264412685184e-16
aF5.4252808950000002
aF22.153209262524861
asVmomentum
p2284
(lp2285
F0
aF0
aF0
asa(dp2286
Vmagmom
p2287
F0
sVindex
p2288
I24
sVsymbol
p2289
VCu
p2290
sVcharge
p2291
F0
sVtag
p2292
I0
sVposition
p2293
(lp2294
F0.61399746179176928
aF-1.9721522630525295e-31
aF20.335198582766996
asVmomentum
p2295
(lp2296
F0
aF0
aF0
asa(dp2297
Vmagmom
p2298
F0
sVindex
p2299
I25
sVsymbol
p2300
VCu
p2301
sVcharge
p2302
F0
sVtag
p2303
I0
sVposition
p2304
(lp2305
F4.089511790248765
aF3.6168539299999996
aF21.539211800733089
asVmomentum
p2306
(lp2307
F0
aF0
aF0
asa(dp2308
Vmagmom
p2309
F0
sVindex
p2310
I26
sVsymbol
p2311
VCu
p2312
sVcharge
p2313
F0
sVtag
p2314
I0
sVposition
p2315
(lp2316
F1.8180106797578643
aF3.61685393
aF22.76720672431663
asVmomentum
p2317
(lp2318
F0
aF0
aF0
asa(dp2319
Vmagmom
p2320
F0
sVindex
p2321
I27
sVsymbol
p2322
VCu
p2323
sVcharge
p2324
F0
sVtag
p2325
I0
sVposition
p2326
(lp2327
F5.2935250082148597
aF-1.9721522630525295e-31
aF18.063697472276097
asVmomentum
p2328
(lp2329
F0
aF0
aF0
asa(dp2330
Vmagmom
p2331
F0
sVindex
p2332
I28
sVsymbol
p2333
VCu
p2334
sVcharge
p2335
F0
sVtag
p2336
I0
sVposition
p2337
(lp2338
F4.7093488970773612
aF1.8029828041274856
aF19.771034322147095
asVmomentum
p2339
(lp2340
F0
aF0
aF0
asa(dp2341
Vmagmom
p2342
F0
sVindex
p2343
I29
sVsymbol
p2344
VCu
p2345
sVcharge
p2346
F0
sVtag
p2347
I0
sVposition
p2348
(lp2349
F3.5253475296288612
aF5.419836734127486
aF23.351382835454128
asVmomentum
p2350
(lp2351
F0
aF0
aF0
asa(dp2352
Vmagmom
p2353
F0
sVindex
p2354
I30
sVsymbol
p2355
VCu
p2356
sVcharge
p2357
F0
sVtag
p2358
I0
sVposition
p2359
(lp2360
F2.3821749403777686
aF5.4198367341274842
aF20.95503568959559
asVmomentum
p2361
(lp2362
F0
aF0
aF0
asa(dp2363
Vmagmom
p2364
F0
sVindex
p2365
I31
sVsymbol
p2366
VCu
p2367
sVcharge
p2368
F0
sVtag
p2369
I0
sVposition
p2370
(lp2371
F1.1981735729292686
aF1.802982804127486
aF18.627861732895997
asVmomentum
p2372
(lp2373
F0
aF0
aF0
asa(dp2374
Vmagmom
p2375
F0
sVindex
p2376
I32
sVsymbol
p2377
VCu
p2378
sVcharge
p2379
F0
sVtag
p2380
I0
sVposition
p2381
(lp2382
F1.1981735729292688
aF5.4307250558725144
aF18.627861732895997
asVmomentum
p2383
(lp2384
F0
aF0
aF0
asa(dp2385
Vmagmom
p2386
F0
sVindex
p2387
I33
sVsymbol
p2388
VCu
p2389
sVcharge
p2390
F0
sVtag
p2391
I0
sVposition
p2392
(lp2393
F2.3821749403777681
aF1.813871125872514
aF20.95503568959559
asVmomentum
p2394
(lp2395
F0
aF0
aF0
asa(dp2396
Vmagmom
p2397
F0
sVindex
p2398
I34
sVsymbol
p2399
VCu
p2400
sVcharge
p2401
F0
sVtag
p2402
I0
sVposition
p2403
(lp2404
F3.5253475296288608
aF1.8138711258725133
aF23.351382835454128
asVmomentum
p2405
(lp2406
F0
aF0
aF0
asa(dp2407
Vmagmom
p2408
F0
sVindex
p2409
I35
sVsymbol
p2410
VCu
p2411
sVcharge
p2412
F0
sVtag
p2413
I0
sVposition
p2414
(lp2415
F4.7093488970773612
aF5.4307250558725135
aF19.771034322147095
asVmomentum
p2416
(lp2417
F0
aF0
aF0
asa(dp2418
Vmagmom
p2419
F0
sVindex
p2420
I36
sVsymbol
p2421
VPd
p2422
sVcharge
p2423
F0
sVtag
p2424
I0
sVposition
p2425
(lp2426
F4.1800760591963826
aF-1.9721522630525295e-31
aF21.54893895000653
asVmomentum
p2427
(lp2428
F0
aF0
aF0
asa(dp2429
Vmagmom
p2430
F0
sVindex
p2431
I37
sVsymbol
p2432
VPd
p2433
sVcharge
p2434
F0
sVtag
p2435
I0
sVposition
p2436
(lp2437
F5.3032521574882985
aF3.6168539299999996
aF17.973133203328477
asVmomentum
p2438
(lp2439
F0
aF0
aF0
asa(dp2440
Vmagmom
p2441
F0
sVindex
p2442
I38
sVsymbol
p2443
VPd
p2444
sVcharge
p2445
F0
sVtag
p2446
I0
sVposition
p2447
(lp2448
F0.60427031251832986
aF3.6168539299999996
aF20.425762851714616
asVmomentum
p2449
(lp2450
F0
aF0
aF0
asa(dp2451
Vmagmom
p2452
F0
sVindex
p2453
I39
sVsymbol
p2454
VPd
p2455
sVcharge
p2456
F0
sVtag
p2457
I0
sVposition
p2458
(lp2459
F1.727446410810247
aF0
aF22.757479575043192
asVmomentum
p2460
(lp2461
F0
aF0
aF0
asasVcell
p2462
(lp2463
(lp2464
F5.9075224700066293
aF0
aF2.2149661539217952e-32
aa(lp2465
F4.4293685883580241e-16
aF7.23370786
aF4.4293685883580241e-16
aa(lp2466
F0
aF0
aF35.445134820039776
aasVmass
p2467
F2884.8320000000003
sVpbc
p2468
(lp2469
I01
aI01
aI01
asVspacegroup
p2470
VPm (6)
p2471
sVconstraints
p2472
(lp2473
(dp2474
Vname
p2475
VFixAtoms
p2476
sVkwargs
p2477
(dp2478
Vindices
p2479
(lp2480
I0
aI1
aI2
aI3
aI4
aI5
aI6
aI7
aI8
aI9
aI10
aI11
aI12
aI13
aI14
aI15
aI16
aI17
aI18
aI19
aI20
aI21
aI24
aI27
aI28
aI31
aI32
aI35
aI37
assasaa(lp2481
g481
ag2
((ltRp2482
aa(lp2483
g484
ag485
aa(lp2484
g487
aS'4a4e1d86401f9694ab411c3c08919d5603d06f23'
p2485
aa(lp2486
g490
ag491
(S'\x07\xe1\x03\x1f\x13-\x04\tg\xe1'
tRp2487
aa(lp2488
g494
ag491
(S'\x07\xe1\x03\x1f\x13-\x04\tg\xea'
tRp2489
aa(lp2490
g497
a(dp2491
g499
g509
sg510
I00
sg511
g512
sg513
g514
(g516
S'\xf0$<\xe3\xf3\xb1\xcf?'
tRp2492
sg518
g532
sg533
g534
sg535
I01
sg536
g537
sg538
I40
saatRp2493
ag2
((lp2494
(lp2495
g5
a(dp2496
Vinfo
p2497
(dp2498
sVvolume
p2499
F1514.6872864759289
sVnatoms
p2500
I40
sVsymbol_counts
p2501
(dp2502
VCu
p2503
I32
sVPd
p2504
I8
ssVchemical_symbols
p2505
(lp2506
VPd
p2507
aVCu
p2508
asVatoms
p2509
(lp2510
(dp2511
Vmagmom
p2512
F0
sVindex
p2513
I0
sVsymbol
p2514
VCu
p2515
sVcharge
p2516
F0
sVtag
p2517
I0
sVposition
p2518
(lp2519
F2.9537612350033147
aF-1.6277914088515539e-15
aF-13.291925557514915
asVmomentum
p2520
(lp2521
F0
aF0
aF0
asa(dp2522
Vmagmom
p2523
F0
sVindex
p2524
I1
sVsymbol
p2525
VCu
p2526
sVcharge
p2527
F0
sVtag
p2528
I0
sVposition
p2529
(lp2530
F2.9537612350033147
aF-3.6168539300000013
aF-13.291925557514915
asVmomentum
p2531
(lp2532
F0
aF0
aF0
asa(dp2533
Vmagmom
p2534
F0
sVindex
p2535
I2
sVsymbol
p2536
VCu
p2537
sVcharge
p2538
F0
sVtag
p2539
I0
sVposition
p2540
(lp2541
F1.107342147089506e-16
aF-1.808426965000002
aF-16.245686792518232
asVmomentum
p2542
(lp2543
F0
aF0
aF0
asa(dp2544
Vmagmom
p2545
F0
sVindex
p2546
I3
sVsymbol
p2547
VCu
p2548
sVcharge
p2549
F0
sVtag
p2550
I0
sVposition
p2551
(lp2552
F3.3220264412685184e-16
aF-5.425280895000002
aF-16.245686792518232
asVmomentum
p2553
(lp2554
F0
aF0
aF0
asa(dp2555
Vmagmom
p2556
F0
sVindex
p2557
I4
sVsymbol
p2558
VCu
p2559
sVcharge
p2560
F0
sVtag
p2561
I0
sVposition
p2562
(lp2563
F0.61399746179176928
aF-1.766880737062671e-15
aF-14.427676112760366
asVmomentum
p2564
(lp2565
F0
aF0
aF0
asa(dp2566
Vmagmom
p2567
F0
sVindex
p2568
I5
sVsymbol
p2569
VCu
p2570
sVcharge
p2571
F0
sVtag
p2572
I0
sVposition
p2573
(lp2574
F4.089511790248765
aF-3.6168539300000013
aF-15.631689330726461
asVmomentum
p2575
(lp2576
F0
aF0
aF0
asa(dp2577
Vmagmom
p2578
F0
sVindex
p2579
I6
sVsymbol
p2580
VCu
p2581
sVcharge
p2582
F0
sVtag
p2583
I0
sVposition
p2584
(lp2585
F1.8180106797578643
aF-3.6168539300000018
aF-16.85968425431
asVmomentum
p2586
(lp2587
F0
aF0
aF0
asa(dp2588
Vmagmom
p2589
F0
sVindex
p2590
I7
sVsymbol
p2591
VCu
p2592
sVcharge
p2593
F0
sVtag
p2594
I0
sVposition
p2595
(lp2596
F5.2935250082148597
aF-1.4887020806404371e-15
aF-12.156175002269466
asVmomentum
p2597
(lp2598
F0
aF0
aF0
asa(dp2599
Vmagmom
p2600
F0
sVindex
p2601
I8
sVsymbol
p2602
VCu
p2603
sVcharge
p2604
F0
sVtag
p2605
I0
sVposition
p2606
(lp2607
F4.7093488970773612
aF-1.8029828041274876
aF-13.863511852140464
asVmomentum
p2608
(lp2609
F0
aF0
aF0
asa(dp2610
Vmagmom
p2611
F0
sVindex
p2612
I9
sVsymbol
p2613
VCu
p2614
sVcharge
p2615
F0
sVtag
p2616
I0
sVposition
p2617
(lp2618
F3.5253475296288612
aF-5.4198367341274878
aF-17.443860365447499
asVmomentum
p2619
(lp2620
F0
aF0
aF0
asa(dp2621
Vmagmom
p2622
F0
sVindex
p2623
I10
sVsymbol
p2624
VCu
p2625
sVcharge
p2626
F0
sVtag
p2627
I0
sVposition
p2628
(lp2629
F2.3821749403777686
aF-5.4198367341274869
aF-15.047513219588962
asVmomentum
p2630
(lp2631
F0
aF0
aF0
asa(dp2632
Vmagmom
p2633
F0
sVindex
p2634
I11
sVsymbol
p2635
VCu
p2636
sVcharge
p2637
F0
sVtag
p2638
I0
sVposition
p2639
(lp2640
F1.1981735729292686
aF-1.8029828041274876
aF-12.72033926288937
asVmomentum
p2641
(lp2642
F0
aF0
aF0
asa(dp2643
Vmagmom
p2644
F0
sVindex
p2645
I12
sVsymbol
p2646
VCu
p2647
sVcharge
p2648
F0
sVtag
p2649
I0
sVposition
p2650
(lp2651
F1.1981735729292688
aF-5.4307250558725162
aF-12.72033926288937
asVmomentum
p2652
(lp2653
F0
aF0
aF0
asa(dp2654
Vmagmom
p2655
F0
sVindex
p2656
I13
sVsymbol
p2657
VCu
p2658
sVcharge
p2659
F0
sVtag
p2660
I0
sVposition
p2661
(lp2662
F2.3821749403777681
aF-1.8138711258725155
aF-15.047513219588962
asVmomentum
p2663
(lp2664
F0
aF0
aF0
asa(dp2665
Vmagmom
p2666
F0
sVindex
p2667
I14
sVsymbol
p2668
VCu
p2669
sVcharge
p2670
F0
sVtag
p2671
I0
sVposition
p2672
(lp2673
F3.5253475296288608
aF-1.8138711258725155
aF-17.443860365447499
asVmomentum
p2674
(lp2675
F0
aF0
aF0
asa(dp2676
Vmagmom
p2677
F0
sVindex
p2678
I15
sVsymbol
p2679
VCu
p2680
sVcharge
p2681
F0
sVtag
p2682
I0
sVposition
p2683
(lp2684
F4.7093488970773612
aF-5.4307250558725162
aF-13.863511852140464
asVmomentum
p2685
(lp2686
F0
aF0
aF0
asa(dp2687
Vmagmom
p2688
F0
sVindex
p2689
I16
sVsymbol
p2690
VPd
p2691
sVcharge
p2692
F0
sVtag
p2693
I0
sVposition
p2694
(lp2695
F4.1800760591963826
aF-1.9155210626362538e-15
aF-15.641416479999901
asVmomentum
p2696
(lp2697
F0
aF0
aF0
asa(dp2698
Vmagmom
p2699
F0
sVindex
p2700
I17
sVsymbol
p2701
VPd
p2702
sVcharge
p2703
F0
sVtag
p2704
I0
sVposition
p2705
(lp2706
F5.3032521574882985
aF-3.6168539300000013
aF-12.065610733321849
asVmomentum
p2707
(lp2708
F0
aF0
aF0
asa(dp2709
Vmagmom
p2710
F0
sVindex
p2711
I18
sVsymbol
p2712
VPd
p2713
sVcharge
p2714
F0
sVtag
p2715
I0
sVposition
p2716
(lp2717
F0.60427031251832986
aF-3.6168539300000013
aF-14.518240381707985
asVmomentum
p2718
(lp2719
F0
aF0
aF0
asa(dp2720
Vmagmom
p2721
F0
sVindex
p2722
I19
sVsymbol
p2723
VPd
p2724
sVcharge
p2725
F0
sVtag
p2726
I0
sVposition
p2727
(lp2728
F1.727446410810247
aF-2.0635246034453224e-15
aF-16.849957105036562
asVmomentum
p2729
(lp2730
F0
aF0
aF0
asa(dp2731
Vmagmom
p2732
F0
sVindex
p2733
I20
sVsymbol
p2734
VCu
p2735
sVcharge
p2736
F0
sVtag
p2737
I0
sVposition
p2738
(lp2739
F2.9537612350033147
aF-2.3512542572300223e-15
aF-19.199448027521544
asVmomentum
p2740
(lp2741
F0
aF0
aF0
asa(dp2742
Vmagmom
p2743
F0
sVindex
p2744
I21
sVsymbol
p2745
VCu
p2746
sVcharge
p2747
F0
sVtag
p2748
I0
sVposition
p2749
(lp2750
F2.9537612350033147
aF-3.6168539300000018
aF-19.199448027521544
asVmomentum
p2751
(lp2752
F0
aF0
aF0
asa(dp2753
Vmagmom
p2754
F0
sVindex
p2755
I22
sVsymbol
p2756
VCu
p2757
sVcharge
p2758
F0
sVtag
p2759
I0
sVposition
p2760
(lp2761
F1.107342147089506e-16
aF-1.8084269650000027
aF-22.153209262524861
asVmomentum
p2762
(lp2763
F0
aF0
aF0
asa(dp2764
Vmagmom
p2765
F0
sVindex
p2766
I23
sVsymbol
p2767
VCu
p2768
sVcharge
p2769
F0
sVtag
p2770
I0
sVposition
p2771
(lp2772
F3.3220264412685184e-16
aF-5.4252808950000029
aF-22.153209262524861
asVmomentum
p2773
(lp2774
F0
aF0
aF0
asa(dp2775
Vmagmom
p2776
F0
sVindex
p2777
I24
sVsymbol
p2778
VCu
p2779
sVcharge
p2780
F0
sVtag
p2781
I0
sVposition
p2782
(lp2783
F0.61399746179176928
aF-2.4903435854411392e-15
aF-20.335198582766996
asVmomentum
p2784
(lp2785
F0
aF0
aF0
asa(dp2786
Vmagmom
p2787
F0
sVindex
p2788
I25
sVsymbol
p2789
VCu
p2790
sVcharge
p2791
F0
sVtag
p2792
I0
sVposition
p2793
(lp2794
F4.089511790248765
aF-3.6168539300000022
aF-21.539211800733089
asVmomentum
p2795
(lp2796
F0
aF0
aF0
asa(dp2797
Vmagmom
p2798
F0
sVindex
p2799
I26
sVsymbol
p2800
VCu
p2801
sVcharge
p2802
F0
sVtag
p2803
I0
sVposition
p2804
(lp2805
F1.8180106797578643
aF-3.6168539300000027
aF-22.76720672431663
asVmomentum
p2806
(lp2807
F0
aF0
aF0
asa(dp2808
Vmagmom
p2809
F0
sVindex
p2810
I27
sVsymbol
p2811
VCu
p2812
sVcharge
p2813
F0
sVtag
p2814
I0
sVposition
p2815
(lp2816
F5.2935250082148597
aF-2.2121649290189055e-15
aF-18.063697472276097
asVmomentum
p2817
(lp2818
F0
aF0
aF0
asa(dp2819
Vmagmom
p2820
F0
sVindex
p2821
I28
sVsymbol
p2822
VCu
p2823
sVcharge
p2824
F0
sVtag
p2825
I0
sVposition
p2826
(lp2827
F4.7093488970773612
aF-1.802982804127488
aF-19.771034322147095
asVmomentum
p2828
(lp2829
F0
aF0
aF0
asa(dp2830
Vmagmom
p2831
F0
sVindex
p2832
I29
sVsymbol
p2833
VCu
p2834
sVcharge
p2835
F0
sVtag
p2836
I0
sVposition
p2837
(lp2838
F3.5253475296288612
aF-5.4198367341274887
aF-23.351382835454128
asVmomentum
p2839
(lp2840
F0
aF0
aF0
asa(dp2841
Vmagmom
p2842
F0
sVindex
p2843
I30
sVsymbol
p2844
VCu
p2845
sVcharge
p2846
F0
sVtag
p2847
I0
sVposition
p2848
(lp2849
F2.3821749403777686
aF-5.4198367341274869
aF-20.95503568959559
asVmomentum
p2850
(lp2851
F0
aF0
aF0
asa(dp2852
Vmagmom
p2853
F0
sVindex
p2854
I31
sVsymbol
p2855
VCu
p2856
sVcharge
p2857
F0
sVtag
p2858
I0
sVposition
p2859
(lp2860
F1.1981735729292686
aF-1.8029828041274882
aF-18.627861732895997
asVmomentum
p2861
(lp2862
F0
aF0
aF0
asa(dp2863
Vmagmom
p2864
F0
sVindex
p2865
I32
sVsymbol
p2866
VCu
p2867
sVcharge
p2868
F0
sVtag
p2869
I0
sVposition
p2870
(lp2871
F1.1981735729292688
aF-5.4307250558725171
aF-18.627861732895997
asVmomentum
p2872
(lp2873
F0
aF0
aF0
asa(dp2874
Vmagmom
p2875
F0
sVindex
p2876
I33
sVsymbol
p2877
VCu
p2878
sVcharge
p2879
F0
sVtag
p2880
I0
sVposition
p2881
(lp2882
F2.3821749403777681
aF-1.8138711258725166
aF-20.95503568959559
asVmomentum
p2883
(lp2884
F0
aF0
aF0
asa(dp2885
Vmagmom
p2886
F0
sVindex
p2887
I34
sVsymbol
p2888
VCu
p2889
sVcharge
p2890
F0
sVtag
p2891
I0
sVposition
p2892
(lp2893
F3.5253475296288608
aF-1.8138711258725162
aF-23.351382835454128
asVmomentum
p2894
(lp2895
F0
aF0
aF0
asa(dp2896
Vmagmom
p2897
F0
sVindex
p2898
I35
sVsymbol
p2899
VCu
p2900
sVcharge
p2901
F0
sVtag
p2902
I0
sVposition
p2903
(lp2904
F4.7093488970773612
aF-5.4307250558725162
aF-19.771034322147095
asVmomentum
p2905
(lp2906
F0
aF0
aF0
asa(dp2907
Vmagmom
p2908
F0
sVindex
p2909
I36
sVsymbol
p2910
VPd
p2911
sVcharge
p2912
F0
sVtag
p2913
I0
sVposition
p2914
(lp2915
F4.1800760591963826
aF-2.6389839110147223e-15
aF-21.54893895000653
asVmomentum
p2916
(lp2917
F0
aF0
aF0
asa(dp2918
Vmagmom
p2919
F0
sVindex
p2920
I37
sVsymbol
p2921
VPd
p2922
sVcharge
p2923
F0
sVtag
p2924
I0
sVposition
p2925
(lp2926
F5.3032521574882985
aF-3.6168539300000018
aF-17.973133203328477
asVmomentum
p2927
(lp2928
F0
aF0
aF0
asa(dp2929
Vmagmom
p2930
F0
sVindex
p2931
I38
sVsymbol
p2932
VPd
p2933
sVcharge
p2934
F0
sVtag
p2935
I0
sVposition
p2936
(lp2937
F0.60427031251832986
aF-3.6168539300000022
aF-20.425762851714616
asVmomentum
p2938
(lp2939
F0
aF0
aF0
asa(dp2940
Vmagmom
p2941
F0
sVindex
p2942
I39
sVsymbol
p2943
VPd
p2944
sVcharge
p2945
F0
sVtag
p2946
I0
sVposition
p2947
(lp2948
F1.727446410810247
aF-2.7869874518237912e-15
aF-22.757479575043192
asVmomentum
p2949
(lp2950
F0
aF0
aF0
asasVcell
p2951
(lp2952
(lp2953
F5.9075224700066293
aF-2.7125512106200501e-48
aF-2.2149661539217952e-32
aa(lp2954
F4.4293685883580241e-16
aF-7.23370786
aF4.429368588358026e-16
aa(lp2955
F0
aF-4.3407770902708105e-15
aF-35.445134820039776
aasVmass
p2956
F2884.8320000000003
sVpbc
p2957
(lp2958
I01
aI01
aI01
asVspacegroup
p2959
VPm (6)
p2960
sVconstraints
p2961
(lp2962
(dp2963
Vname
p2964
VFixAtoms
p2965
sVkwargs
p2966
(dp2967
Vindices
p2968
(lp2969
I2
aI3
aI5
aI6
aI9
aI14
aI16
aI19
aI20
aI21
aI22
aI23
aI24
aI25
aI26
aI27
aI28
aI29
aI30
aI31
aI32
aI33
aI34
aI35
aI36
aI37
aI38
aI39
assasaa(lp2970
g481
ag2
((ltRp2971
aa(lp2972
g484
ag485
aa(lp2973
g487
aS'cff4535284f368b5d0eb8e0fe6545168560aecc9'
p2974
aa(lp2975
g490
ag491
(S'\x07\xe1\x03\x1f\x13-\x04\n1['
tRp2976
aa(lp2977
g494
ag491
(S'\x07\xe1\x03\x1f\x13-\x04\n1d'
tRp2978
aa(lp2979
g497
a(dp2980
g499
g509
sg510
I00
sg511
g512
sg513
g2492
sg518
g532
sg533
g534
sg535
I00
sg536
g537
sg538
I40
saatRp2981
ag2
((lp2982
(lp2983
g5
a(dp2984
Vinfo
p2985
(dp2986
sVvolume
p2987
F1514.6872864759289
sVnatoms
p2988
I40
sVsymbol_counts
p2989
(dp2990
VCu
p2991
I32
sVPd
p2992
I8
ssVchemical_symbols
p2993
(lp2994
VPd
p2995
aVCu
p2996
asVatoms
p2997
(lp2998
(dp2999
Vmagmom
p3000
F0
sVindex
p3001
I0
sVsymbol
p3002
VCu
p3003
sVcharge
p3004
F0
sVtag
p3005
I0
sVposition
p3006
(lp3007
F2.9537612350033147
aF0
aF12.701173310514253
asVmomentum
p3008
(lp3009
F0
aF0
aF0
asa(dp3010
Vmagmom
p3011
F0
sVindex
p3012
I1
sVsymbol
p3013
VCu
p3014
sVcharge
p3015
F0
sVtag
p3016
I0
sVposition
p3017
(lp3018
F2.9537612350033147
aF3.6168539299999996
aF12.701173310514253
asVmomentum
p3019
(lp3020
F0
aF0
aF0
asa(dp3021
Vmagmom
p3022
F0
sVindex
p3023
I2
sVsymbol
p3024
VCu
p3025
sVcharge
p3026
F0
sVtag
p3027
I0
sVposition
p3028
(lp3029
F1.107342147089506e-16
aF1.808426965
aF15.654934545517568
asVmomentum
p3030
(lp3031
F0
aF0
aF0
asa(dp3032
Vmagmom
p3033
F0
sVindex
p3034
I3
sVsymbol
p3035
VCu
p3036
sVcharge
p3037
F0
sVtag
p3038
I0
sVposition
p3039
(lp3040
F3.3220264412685184e-16
aF5.4252808950000002
aF15.654934545517568
asVmomentum
p3041
(lp3042
F0
aF0
aF0
asa(dp3043
Vmagmom
p3044
F0
sVindex
p3045
I4
sVsymbol
p3046
VCu
p3047
sVcharge
p3048
F0
sVtag
p3049
I0
sVposition
p3050
(lp3051
F0.61399746179176928
aF-9.8607613152626476e-32
aF13.836923865759703
asVmomentum
p3052
(lp3053
F0
aF0
aF0
asa(dp3054
Vmagmom
p3055
F0
sVindex
p3056
I5
sVsymbol
p3057
VCu
p3058
sVcharge
p3059
F0
sVtag
p3060
I0
sVposition
p3061
(lp3062
F4.089511790248765
aF3.6168539299999996
aF15.040937083725799
asVmomentum
p3063
(lp3064
F0
aF0
aF0
asa(dp3065
Vmagmom
p3066
F0
sVindex
p3067
I6
sVsymbol
p3068
VCu
p3069
sVcharge
p3070
F0
sVtag
p3071
I0
sVposition
p3072
(lp3073
F1.8180106797578643
aF3.61685393
aF16.268932007309338
asVmomentum
p3074
(lp3075
F0
aF0
aF0
asa(dp3076
Vmagmom
p3077
F0
sVindex
p3078
I7
sVsymbol
p3079
VCu
p3080
sVcharge
p3081
F0
sVtag
p3082
I0
sVposition
p3083
(lp3084
F5.2935250082148597
aF0
aF17.472945225275431
asVmomentum
p3085
(lp3086
F0
aF0
aF0
asa(dp3087
Vmagmom
p3088
F0
sVindex
p3089
I8
sVsymbol
p3090
VCu
p3091
sVcharge
p3092
F0
sVtag
p3093
I0
sVposition
p3094
(lp3095
F4.7093488970773612
aF1.8029828041274858
aF13.2727596051398
asVmomentum
p3096
(lp3097
F0
aF0
aF0
asa(dp3098
Vmagmom
p3099
F0
sVindex
p3100
I9
sVsymbol
p3101
VCu
p3102
sVcharge
p3103
F0
sVtag
p3104
I0
sVposition
p3105
(lp3106
F3.5253475296288612
aF5.419836734127486
aF16.853108118446837
asVmomentum
p3107
(lp3108
F0
aF0
aF0
asa(dp3109
Vmagmom
p3110
F0
sVindex
p3111
I10
sVsymbol
p3112
VCu
p3113
sVcharge
p3114
F0
sVtag
p3115
I0
sVposition
p3116
(lp3117
F2.3821749403777686
aF5.4198367341274851
aF14.456760972588297
asVmomentum
p3118
(lp3119
F0
aF0
aF0
asa(dp3120
Vmagmom
p3121
F0
sVindex
p3122
I11
sVsymbol
p3123
VCu
p3124
sVcharge
p3125
F0
sVtag
p3126
I0
sVposition
p3127
(lp3128
F1.1981735729292686
aF1.8029828041274858
aF12.129587015888706
asVmomentum
p3129
(lp3130
F0
aF0
aF0
asa(dp3131
Vmagmom
p3132
F0
sVindex
p3133
I12
sVsymbol
p3134
VCu
p3135
sVcharge
p3136
F0
sVtag
p3137
I0
sVposition
p3138
(lp3139
F1.1981735729292688
aF5.4307250558725144
aF12.129587015888706
asVmomentum
p3140
(lp3141
F0
aF0
aF0
asa(dp3142
Vmagmom
p3143
F0
sVindex
p3144
I13
sVsymbol
p3145
VCu
p3146
sVcharge
p3147
F0
sVtag
p3148
I0
sVposition
p3149
(lp3150
F2.3821749403777681
aF1.8138711258725138
aF14.456760972588297
asVmomentum
p3151
(lp3152
F0
aF0
aF0
asa(dp3153
Vmagmom
p3154
F0
sVindex
p3155
I14
sVsymbol
p3156
VCu
p3157
sVcharge
p3158
F0
sVtag
p3159
I0
sVposition
p3160
(lp3161
F3.5253475296288608
aF1.8138711258725133
aF16.853108118446837
asVmomentum
p3162
(lp3163
F0
aF0
aF0
asa(dp3164
Vmagmom
p3165
F0
sVindex
p3166
I15
sVsymbol
p3167
VCu
p3168
sVcharge
p3169
F0
sVtag
p3170
I0
sVposition
p3171
(lp3172
F4.7093488970773612
aF5.4307250558725144
aF13.2727596051398
asVmomentum
p3173
(lp3174
F0
aF0
aF0
asa(dp3175
Vmagmom
p3176
F0
sVindex
p3177
I16
sVsymbol
p3178
VPd
p3179
sVcharge
p3180
F0
sVtag
p3181
I0
sVposition
p3182
(lp3183
F4.1800760591963826
aF0
aF15.050664232999239
asVmomentum
p3184
(lp3185
F0
aF0
aF0
asa(dp3186
Vmagmom
p3187
F0
sVindex
p3188
I17
sVsymbol
p3189
VPd
p3190
sVcharge
p3191
F0
sVtag
p3192
I0
sVposition
p3193
(lp3194
F5.3032521574882985
aF3.6168539299999996
aF17.382380956327815
asVmomentum
p3195
(lp3196
F0
aF0
aF0
asa(dp3197
Vmagmom
p3198
F0
sVindex
p3199
I18
sVsymbol
p3200
VPd
p3201
sVcharge
p3202
F0
sVtag
p3203
I0
sVposition
p3204
(lp3205
F0.60427031251832986
aF3.6168539299999996
aF13.927488134707321
asVmomentum
p3206
(lp3207
F0
aF0
aF0
asa(dp3208
Vmagmom
p3209
F0
sVindex
p3210
I19
sVsymbol
p3211
VPd
p3212
sVcharge
p3213
F0
sVtag
p3214
I0
sVposition
p3215
(lp3216
F1.727446410810247
aF0
aF16.259204858035897
asVmomentum
p3217
(lp3218
F0
aF0
aF0
asa(dp3219
Vmagmom
p3220
F0
sVindex
p3221
I20
sVsymbol
p3222
VCu
p3223
sVcharge
p3224
F0
sVtag
p3225
I0
sVposition
p3226
(lp3227
F2.9537612350033147
aF0
aF18.608695780520879
asVmomentum
p3228
(lp3229
F0
aF0
aF0
asa(dp3230
Vmagmom
p3231
F0
sVindex
p3232
I21
sVsymbol
p3233
VCu
p3234
sVcharge
p3235
F0
sVtag
p3236
I0
sVposition
p3237
(lp3238
F2.9537612350033147
aF3.6168539299999996
aF18.608695780520879
asVmomentum
p3239
(lp3240
F0
aF0
aF0
asa(dp3241
Vmagmom
p3242
F0
sVindex
p3243
I22
sVsymbol
p3244
VCu
p3245
sVcharge
p3246
F0
sVtag
p3247
I0
sVposition
p3248
(lp3249
F1.107342147089506e-16
aF1.808426965
aF21.562457015524195
asVmomentum
p3250
(lp3251
F0
aF0
aF0
asa(dp3252
Vmagmom
p3253
F0
sVindex
p3254
I23
sVsymbol
p3255
VCu
p3256
sVcharge
p3257
F0
sVtag
p3258
I0
sVposition
p3259
(lp3260
F3.3220264412685179e-16
aF5.4252808950000002
aF21.562457015524195
asVmomentum
p3261
(lp3262
F0
aF0
aF0
asa(dp3263
Vmagmom
p3264
F0
sVindex
p3265
I24
sVsymbol
p3266
VCu
p3267
sVcharge
p3268
F0
sVtag
p3269
I0
sVposition
p3270
(lp3271
F0.61399746179176928
aF-1.9721522630525295e-31
aF19.74444633576633
asVmomentum
p3272
(lp3273
F0
aF0
aF0
asa(dp3274
Vmagmom
p3275
F0
sVindex
p3276
I25
sVsymbol
p3277
VCu
p3278
sVcharge
p3279
F0
sVtag
p3280
I0
sVposition
p3281
(lp3282
F4.089511790248765
aF3.61685393
aF20.94845955373243
asVmomentum
p3283
(lp3284
F0
aF0
aF0
asa(dp3285
Vmagmom
p3286
F0
sVindex
p3287
I26
sVsymbol
p3288
VCu
p3289
sVcharge
p3290
F0
sVtag
p3291
I0
sVposition
p3292
(lp3293
F1.8180106797578643
aF3.61685393
aF22.176454477315964
asVmomentum
p3294
(lp3295
F0
aF0
aF0
asa(dp3296
Vmagmom
p3297
F0
sVindex
p3298
I27
sVsymbol
p3299
VCu
p3300
sVcharge
p3301
F0
sVtag
p3302
I0
sVposition
p3303
(lp3304
F5.2935250082148597
aF-1.9721522630525295e-31
aF23.380467695282061
asVmomentum
p3305
(lp3306
F0
aF0
aF0
asa(dp3307
Vmagmom
p3308
F0
sVindex
p3309
I28
sVsymbol
p3310
VCu
p3311
sVcharge
p3312
F0
sVtag
p3313
I0
sVposition
p3314
(lp3315
F4.7093488970773612
aF1.8029828041274856
aF19.18028207514643
asVmomentum
p3316
(lp3317
F0
aF0
aF0
asa(dp3318
Vmagmom
p3319
F0
sVindex
p3320
I29
sVsymbol
p3321
VCu
p3322
sVcharge
p3323
F0
sVtag
p3324
I0
sVposition
p3325
(lp3326
F3.5253475296288612
aF5.419836734127486
aF22.760630588453466
asVmomentum
p3327
(lp3328
F0
aF0
aF0
asa(dp3329
Vmagmom
p3330
F0
sVindex
p3331
I30
sVsymbol
p3332
VCu
p3333
sVcharge
p3334
F0
sVtag
p3335
I0
sVposition
p3336
(lp3337
F2.3821749403777686
aF5.4198367341274842
aF20.364283442594928
asVmomentum
p3338
(lp3339
F0
aF0
aF0
asa(dp3340
Vmagmom
p3341
F0
sVindex
p3342
I31
sVsymbol
p3343
VCu
p3344
sVcharge
p3345
F0
sVtag
p3346
I0
sVposition
p3347
(lp3348
F1.1981735729292686
aF1.802982804127486
aF18.037109485895336
asVmomentum
p3349
(lp3350
F0
aF0
aF0
asa(dp3351
Vmagmom
p3352
F0
sVindex
p3353
I32
sVsymbol
p3354
VCu
p3355
sVcharge
p3356
F0
sVtag
p3357
I0
sVposition
p3358
(lp3359
F1.1981735729292688
aF5.4307250558725144
aF18.037109485895336
asVmomentum
p3360
(lp3361
F0
aF0
aF0
asa(dp3362
Vmagmom
p3363
F0
sVindex
p3364
I33
sVsymbol
p3365
VCu
p3366
sVcharge
p3367
F0
sVtag
p3368
I0
sVposition
p3369
(lp3370
F2.3821749403777681
aF1.813871125872514
aF20.364283442594928
asVmomentum
p3371
(lp3372
F0
aF0
aF0
asa(dp3373
Vmagmom
p3374
F0
sVindex
p3375
I34
sVsymbol
p3376
VCu
p3377
sVcharge
p3378
F0
sVtag
p3379
I0
sVposition
p3380
(lp3381
F3.5253475296288608
aF1.8138711258725133
aF22.760630588453466
asVmomentum
p3382
(lp3383
F0
aF0
aF0
asa(dp3384
Vmagmom
p3385
F0
sVindex
p3386
I35
sVsymbol
p3387
VCu
p3388
sVcharge
p3389
F0
sVtag
p3390
I0
sVposition
p3391
(lp3392
F4.7093488970773612
aF5.4307250558725135
aF19.18028207514643
asVmomentum
p3393
(lp3394
F0
aF0
aF0
asa(dp3395
Vmagmom
p3396
F0
sVindex
p3397
I36
sVsymbol
p3398
VPd
p3399
sVcharge
p3400
F0
sVtag
p3401
I0
sVposition
p3402
(lp3403
F4.1800760591963826
aF0
aF20.958186703005868
asVmomentum
p3404
(lp3405
F0
aF0
aF0
asa(dp3406
Vmagmom
p3407
F0
sVindex
p3408
I37
sVsymbol
p3409
VPd
p3410
sVcharge
p3411
F0
sVtag
p3412
I0
sVposition
p3413
(lp3414
F5.3032521574882985
aF3.6168539299999996
aF23.289903426334444
asVmomentum
p3415
(lp3416
F0
aF0
aF0
asa(dp3417
Vmagmom
p3418
F0
sVindex
p3419
I38
sVsymbol
p3420
VPd
p3421
sVcharge
p3422
F0
sVtag
p3423
I0
sVposition
p3424
(lp3425
F0.60427031251832986
aF3.6168539299999996
aF19.83501060471395
asVmomentum
p3426
(lp3427
F0
aF0
aF0
asa(dp3428
Vmagmom
p3429
F0
sVindex
p3430
I39
sVsymbol
p3431
VPd
p3432
sVcharge
p3433
F0
sVtag
p3434
I0
sVposition
p3435
(lp3436
F1.727446410810247
aF0
aF22.166727328042526
asVmomentum
p3437
(lp3438
F0
aF0
aF0
asasVcell
p3439
(lp3440
(lp3441
F5.9075224700066293
aF0
aF2.2149661539217952e-32
aa(lp3442
F4.4293685883580241e-16
aF7.23370786
aF4.4293685883580241e-16
aa(lp3443
F0
aF0
aF35.445134820039776
aasVmass
p3444
F2884.8320000000003
sVpbc
p3445
(lp3446
I01
aI01
aI01
asVspacegroup
p3447
VPm (6)
p3448
sVconstraints
p3449
(lp3450
(dp3451
Vname
p3452
VFixAtoms
p3453
sVkwargs
p3454
(dp3455
Vindices
p3456
(lp3457
I0
aI1
aI2
aI3
aI4
aI5
aI6
aI7
aI8
aI9
aI10
aI11
aI12
aI13
aI14
aI15
aI16
aI17
aI18
aI19
aI20
aI21
aI24
aI28
aI30
aI31
aI32
aI33
aI35
aI38
assasaa(lp3458
g481
ag2
((ltRp3459
aa(lp3460
g484
ag485
aa(lp3461
g487
aS'3391cb4c48768d71f27a5d7a99ebb5898e07d6ee'
p3462
aa(lp3463
g490
ag491
(S'\x07\xe1\x03\x1f\x13-\x04\x0bY\xf0'
tRp3464
aa(lp3465
g494
ag491
(S'\x07\xe1\x03\x1f\x13-\x04\x0bY\xfc'
tRp3466
aa(lp3467
g497
a(dp3468
g499
g509
sg510
I00
sg511
g512
sg513
g514
(g516
S'\xef\x8b\xe0\xb9\xd6B\xd6?'
tRp3469
sg518
g532
sg533
g534
sg535
I01
sg536
g537
sg538
I40
saatRp3470
ag2
((lp3471
(lp3472
g5
a(dp3473
Vinfo
p3474
(dp3475
sVvolume
p3476
F1514.6872864759289
sVnatoms
p3477
I40
sVsymbol_counts
p3478
(dp3479
VCu
p3480
I32
sVPd
p3481
I8
ssVchemical_symbols
p3482
(lp3483
VPd
p3484
aVCu
p3485
asVatoms
p3486
(lp3487
(dp3488
Vmagmom
p3489
F0
sVindex
p3490
I0
sVsymbol
p3491
VCu
p3492
sVcharge
p3493
F0
sVtag
p3494
I0
sVposition
p3495
(lp3496
F2.9537612350033147
aF-1.5554451240137073e-15
aF-12.701173310514253
asVmomentum
p3497
(lp3498
F0
aF0
aF0
asa(dp3499
Vmagmom
p3500
F0
sVindex
p3501
I1
sVsymbol
p3502
VCu
p3503
sVcharge
p3504
F0
sVtag
p3505
I0
sVposition
p3506
(lp3507
F2.9537612350033147
aF-3.6168539300000013
aF-12.701173310514253
asVmomentum
p3508
(lp3509
F0
aF0
aF0
asa(dp3510
Vmagmom
p3511
F0
sVindex
p3512
I2
sVsymbol
p3513
VCu
p3514
sVcharge
p3515
F0
sVtag
p3516
I0
sVposition
p3517
(lp3518
F1.107342147089506e-16
aF-1.808426965000002
aF-15.654934545517568
asVmomentum
p3519
(lp3520
F0
aF0
aF0
asa(dp3521
Vmagmom
p3522
F0
sVindex
p3523
I3
sVsymbol
p3524
VCu
p3525
sVcharge
p3526
F0
sVtag
p3527
I0
sVposition
p3528
(lp3529
F3.3220264412685184e-16
aF-5.425280895000002
aF-15.654934545517568
asVmomentum
p3530
(lp3531
F0
aF0
aF0
asa(dp3532
Vmagmom
p3533
F0
sVindex
p3534
I4
sVsymbol
p3535
VCu
p3536
sVcharge
p3537
F0
sVtag
p3538
I0
sVposition
p3539
(lp3540
F0.61399746179176928
aF-1.694534452224824e-15
aF-13.836923865759703
asVmomentum
p3541
(lp3542
F0
aF0
aF0
asa(dp3543
Vmagmom
p3544
F0
sVindex
p3545
I5
sVsymbol
p3546
VCu
p3547
sVcharge
p3548
F0
sVtag
p3549
I0
sVposition
p3550
(lp3551
F4.089511790248765
aF-3.6168539300000013
aF-15.040937083725799
asVmomentum
p3552
(lp3553
F0
aF0
aF0
asa(dp3554
Vmagmom
p3555
F0
sVindex
p3556
I6
sVsymbol
p3557
VCu
p3558
sVcharge
p3559
F0
sVtag
p3560
I0
sVposition
p3561
(lp3562
F1.8180106797578643
aF-3.6168539300000018
aF-16.268932007309338
asVmomentum
p3563
(lp3564
F0
aF0
aF0
asa(dp3565
Vmagmom
p3566
F0
sVindex
p3567
I7
sVsymbol
p3568
VCu
p3569
sVcharge
p3570
F0
sVtag
p3571
I0
sVposition
p3572
(lp3573
F5.2935250082148597
aF-2.1398186441810586e-15
aF-17.472945225275431
asVmomentum
p3574
(lp3575
F0
aF0
aF0
asa(dp3576
Vmagmom
p3577
F0
sVindex
p3578
I8
sVsymbol
p3579
VCu
p3580
sVcharge
p3581
F0
sVtag
p3582
I0
sVposition
p3583
(lp3584
F4.7093488970773612
aF-1.8029828041274873
aF-13.2727596051398
asVmomentum
p3585
(lp3586
F0
aF0
aF0
asa(dp3587
Vmagmom
p3588
F0
sVindex
p3589
I9
sVsymbol
p3590
VCu
p3591
sVcharge
p3592
F0
sVtag
p3593
I0
sVposition
p3594
(lp3595
F3.5253475296288612
aF-5.4198367341274878
aF-16.853108118446837
asVmomentum
p3596
(lp3597
F0
aF0
aF0
asa(dp3598
Vmagmom
p3599
F0
sVindex
p3600
I10
sVsymbol
p3601
VCu
p3602
sVcharge
p3603
F0
sVtag
p3604
I0
sVposition
p3605
(lp3606
F2.3821749403777686
aF-5.4198367341274869
aF-14.456760972588297
asVmomentum
p3607
(lp3608
F0
aF0
aF0
asa(dp3609
Vmagmom
p3610
F0
sVindex
p3611
I11
sVsymbol
p3612
VCu
p3613
sVcharge
p3614
F0
sVtag
p3615
I0
sVposition
p3616
(lp3617
F1.1981735729292686
aF-1.8029828041274873
aF-12.129587015888706
asVmomentum
p3618
(lp3619
F0
aF0
aF0
asa(dp3620
Vmagmom
p3621
F0
sVindex
p3622
I12
sVsymbol
p3623
VCu
p3624
sVcharge
p3625
F0
sVtag
p3626
I0
sVposition
p3627
(lp3628
F1.1981735729292688
aF-5.4307250558725162
aF-12.129587015888706
asVmomentum
p3629
(lp3630
F0
aF0
aF0
asa(dp3631
Vmagmom
p3632
F0
sVindex
p3633
I13
sVsymbol
p3634
VCu
p3635
sVcharge
p3636
F0
sVtag
p3637
I0
sVposition
p3638
(lp3639
F2.3821749403777681
aF-1.8138711258725155
aF-14.456760972588297
asVmomentum
p3640
(lp3641
F0
aF0
aF0
asa(dp3642
Vmagmom
p3643
F0
sVindex
p3644
I14
sVsymbol
p3645
VCu
p3646
sVcharge
p3647
F0
sVtag
p3648
I0
sVposition
p3649
(lp3650
F3.5253475296288608
aF-1.8138711258725153
aF-16.853108118446837
asVmomentum
p3651
(lp3652
F0
aF0
aF0
asa(dp3653
Vmagmom
p3654
F0
sVindex
p3655
I15
sVsymbol
p3656
VCu
p3657
sVcharge
p3658
F0
sVtag
p3659
I0
sVposition
p3660
(lp3661
F4.7093488970773612
aF-5.4307250558725162
aF-13.2727596051398
asVmomentum
p3662
(lp3663
F0
aF0
aF0
asa(dp3664
Vmagmom
p3665
F0
sVindex
p3666
I16
sVsymbol
p3667
VPd
p3668
sVcharge
p3669
F0
sVtag
p3670
I0
sVposition
p3671
(lp3672
F4.1800760591963826
aF-1.843174777798407e-15
aF-15.050664232999239
asVmomentum
p3673
(lp3674
F0
aF0
aF0
asa(dp3675
Vmagmom
p3676
F0
sVindex
p3677
I17
sVsymbol
p3678
VPd
p3679
sVcharge
p3680
F0
sVtag
p3681
I0
sVposition
p3682
(lp3683
F5.3032521574882985
aF-3.6168539300000018
aF-17.382380956327815
asVmomentum
p3684
(lp3685
F0
aF0
aF0
asa(dp3686
Vmagmom
p3687
F0
sVindex
p3688
I18
sVsymbol
p3689
VPd
p3690
sVcharge
p3691
F0
sVtag
p3692
I0
sVposition
p3693
(lp3694
F0.60427031251832986
aF-3.6168539300000013
aF-13.927488134707321
asVmomentum
p3695
(lp3696
F0
aF0
aF0
asa(dp3697
Vmagmom
p3698
F0
sVindex
p3699
I19
sVsymbol
p3700
VPd
p3701
sVcharge
p3702
F0
sVtag
p3703
I0
sVposition
p3704
(lp3705
F1.727446410810247
aF-1.9911783186074756e-15
aF-16.259204858035897
asVmomentum
p3706
(lp3707
F0
aF0
aF0
asa(dp3708
Vmagmom
p3709
F0
sVindex
p3710
I20
sVsymbol
p3711
VCu
p3712
sVcharge
p3713
F0
sVtag
p3714
I0
sVposition
p3715
(lp3716
F2.9537612350033147
aF-2.2789079723921751e-15
aF-18.608695780520879
asVmomentum
p3717
(lp3718
F0
aF0
aF0
asa(dp3719
Vmagmom
p3720
F0
sVindex
p3721
I21
sVsymbol
p3722
VCu
p3723
sVcharge
p3724
F0
sVtag
p3725
I0
sVposition
p3726
(lp3727
F2.9537612350033147
aF-3.6168539300000018
aF-18.608695780520879
asVmomentum
p3728
(lp3729
F0
aF0
aF0
asa(dp3730
Vmagmom
p3731
F0
sVindex
p3732
I22
sVsymbol
p3733
VCu
p3734
sVcharge
p3735
F0
sVtag
p3736
I0
sVposition
p3737
(lp3738
F1.107342147089506e-16
aF-1.8084269650000027
aF-21.562457015524195
asVmomentum
p3739
(lp3740
F0
aF0
aF0
asa(dp3741
Vmagmom
p3742
F0
sVindex
p3743
I23
sVsymbol
p3744
VCu
p3745
sVcharge
p3746
F0
sVtag
p3747
I0
sVposition
p3748
(lp3749
F3.3220264412685179e-16
aF-5.4252808950000029
aF-21.562457015524195
asVmomentum
p3750
(lp3751
F0
aF0
aF0
asa(dp3752
Vmagmom
p3753
F0
sVindex
p3754
I24
sVsymbol
p3755
VCu
p3756
sVcharge
p3757
F0
sVtag
p3758
I0
sVposition
p3759
(lp3760
F0.61399746179176928
aF-2.4179973006032924e-15
aF-19.74444633576633
asVmomentum
p3761
(lp3762
F0
aF0
aF0
asa(dp3763
Vmagmom
p3764
F0
sVindex
p3765
I25
sVsymbol
p3766
VCu
p3767
sVcharge
p3768
F0
sVtag
p3769
I0
sVposition
p3770
(lp3771
F4.089511790248765
aF-3.6168539300000027
aF-20.94845955373243
asVmomentum
p3772
(lp3773
F0
aF0
aF0
asa(dp3774
Vmagmom
p3775
F0
sVindex
p3776
I26
sVsymbol
p3777
VCu
p3778
sVcharge
p3779
F0
sVtag
p3780
I0
sVposition
p3781
(lp3782
F1.8180106797578643
aF-3.6168539300000027
aF-22.176454477315964
asVmomentum
p3783
(lp3784
F0
aF0
aF0
asa(dp3785
Vmagmom
p3786
F0
sVindex
p3787
I27
sVsymbol
p3788
VCu
p3789
sVcharge
p3790
F0
sVtag
p3791
I0
sVposition
p3792
(lp3793
F5.2935250082148597
aF-2.863281492559527e-15
aF-23.380467695282061
asVmomentum
p3794
(lp3795
F0
aF0
aF0
asa(dp3796
Vmagmom
p3797
F0
sVindex
p3798
I28
sVsymbol
p3799
VCu
p3800
sVcharge
p3801
F0
sVtag
p3802
I0
sVposition
p3803
(lp3804
F4.7093488970773612
aF-1.802982804127488
aF-19.18028207514643
asVmomentum
p3805
(lp3806
F0
aF0
aF0
asa(dp3807
Vmagmom
p3808
F0
sVindex
p3809
I29
sVsymbol
p3810
VCu
p3811
sVcharge
p3812
F0
sVtag
p3813
I0
sVposition
p3814
(lp3815
F3.5253475296288612
aF-5.4198367341274887
aF-22.760630588453466
asVmomentum
p3816
(lp3817
F0
aF0
aF0
asa(dp3818
Vmagmom
p3819
F0
sVindex
p3820
I30
sVsymbol
p3821
VCu
p3822
sVcharge
p3823
F0
sVtag
p3824
I0
sVposition
p3825
(lp3826
F2.3821749403777686
aF-5.4198367341274869
aF-20.364283442594928
asVmomentum
p3827
(lp3828
F0
aF0
aF0
asa(dp3829
Vmagmom
p3830
F0
sVindex
p3831
I31
sVsymbol
p3832
VCu
p3833
sVcharge
p3834
F0
sVtag
p3835
I0
sVposition
p3836
(lp3837
F1.1981735729292686
aF-1.8029828041274882
aF-18.037109485895336
asVmomentum
p3838
(lp3839
F0
aF0
aF0
asa(dp3840
Vmagmom
p3841
F0
sVindex
p3842
I32
sVsymbol
p3843
VCu
p3844
sVcharge
p3845
F0
sVtag
p3846
I0
sVposition
p3847
(lp3848
F1.1981735729292688
aF-5.4307250558725162
aF-18.037109485895336
asVmomentum
p3849
(lp3850
F0
aF0
aF0
asa(dp3851
Vmagmom
p3852
F0
sVindex
p3853
I33
sVsymbol
p3854
VCu
p3855
sVcharge
p3856
F0
sVtag
p3857
I0
sVposition
p3858
(lp3859
F2.3821749403777681
aF-1.8138711258725164
aF-20.364283442594928
asVmomentum
p3860
(lp3861
F0
aF0
aF0
asa(dp3862
Vmagmom
p3863
F0
sVindex
p3864
I34
sVsymbol
p3865
VCu
p3866
sVcharge
p3867
F0
sVtag
p3868
I0
sVposition
p3869
(lp3870
F3.5253475296288608
aF-1.8138711258725162
aF-22.760630588453466
asVmomentum
p3871
(lp3872
F0
aF0
aF0
asa(dp3873
Vmagmom
p3874
F0
sVindex
p3875
I35
sVsymbol
p3876
VCu
p3877
sVcharge
p3878
F0
sVtag
p3879
I0
sVposition
p3880
(lp3881
F4.7093488970773612
aF-5.4307250558725162
aF-19.18028207514643
asVmomentum
p3882
(lp3883
F0
aF0
aF0
asa(dp3884
Vmagmom
p3885
F0
sVindex
p3886
I36
sVsymbol
p3887
VPd
p3888
sVcharge
p3889
F0
sVtag
p3890
I0
sVposition
p3891
(lp3892
F4.1800760591963826
aF-2.5666376261768754e-15
aF-20.958186703005868
asVmomentum
p3893
(lp3894
F0
aF0
aF0
asa(dp3895
Vmagmom
p3896
F0
sVindex
p3897
I37
sVsymbol
p3898
VPd
p3899
sVcharge
p3900
F0
sVtag
p3901
I0
sVposition
p3902
(lp3903
F5.3032521574882985
aF-3.6168539300000022
aF-23.289903426334444
asVmomentum
p3904
(lp3905
F0
aF0
aF0
asa(dp3906
Vmagmom
p3907
F0
sVindex
p3908
I38
sVsymbol
p3909
VPd
p3910
sVcharge
p3911
F0
sVtag
p3912
I0
sVposition
p3913
(lp3914
F0.60427031251832986
aF-3.6168539300000018
aF-19.83501060471395
asVmomentum
p3915
(lp3916
F0
aF0
aF0
asa(dp3917
Vmagmom
p3918
F0
sVindex
p3919
I39
sVsymbol
p3920
VPd
p3921
sVcharge
p3922
F0
sVtag
p3923
I0
sVposition
p3924
(lp3925
F1.727446410810247
aF-2.714641166985944e-15
aF-22.166727328042526
asVmomentum
p3926
(lp3927
F0
aF0
aF0
asasVcell
p3928
(lp3929
(lp3930
F5.9075224700066293
aF-2.7125512106200501e-48
aF-2.2149661539217952e-32
aa(lp3931
F4.4293685883580241e-16
aF-7.23370786
aF4.429368588358026e-16
aa(lp3932
F0
aF-4.3407770902708105e-15
aF-35.445134820039776
aasVmass
p3933
F2884.8320000000003
sVpbc
p3934
(lp3935
I01
aI01
aI01
asVspacegroup
p3936
VPm (6)
p3937
sVconstraints
p3938
(lp3939
(dp3940
Vname
p3941
VFixAtoms
p3942
sVkwargs
p3943
(dp3944
Vindices
p3945
(lp3946
I2
aI3
aI6
aI7
aI9
aI14
aI17
aI19
aI20
aI21
aI22
aI23
aI24
aI25
aI26
aI27
aI28
aI29
aI30
aI31
aI32
aI33
aI34
aI35
aI36
aI37
aI38
aI39
assasaa(lp3947
g481
ag2
((ltRp3948
aa(lp3949
g484
ag485
aa(lp3950
g487
aS'24fd87ecfc153e83f5c8f0c5766ee36fd85fc261'
p3951
aa(lp3952
g490
ag491
(S'\x07\xe1\x03\x1f\x13-\x04\x0b\x94"'
tRp3953
aa(lp3954
g494
ag491
(S'\x07\xe1\x03\x1f\x13-\x04\x0b\x94*'
tRp3955
aa(lp3956
g497
a(dp3957
g499
g509
sg510
I00
sg511
g512
sg513
g3469
sg518
g532
sg533
g534
sg535
I00
sg536
g537
sg538
I40
saatRp3958
ag2
((lp3959
(lp3960
g5
a(dp3961
Vinfo
p3962
(dp3963
sVvolume
p3964
F1514.6872864759289
sVnatoms
p3965
I40
sVsymbol_counts
p3966
(dp3967
VCu
p3968
I32
sVPd
p3969
I8
ssVchemical_symbols
p3970
(lp3971
VPd
p3972
aVCu
p3973
asVatoms
p3974
(lp3975
(dp3976
Vmagmom
p3977
F0
sVindex
p3978
I0
sVsymbol
p3979
VCu
p3980
sVcharge
p3981
F0
sVtag
p3982
I0
sVposition
p3983
(lp3984
F2.9537612350033147
aF0
aF12.110421063513588
asVmomentum
p3985
(lp3986
F0
aF0
aF0
asa(dp3987
Vmagmom
p3988
F0
sVindex
p3989
I1
sVsymbol
p3990
VCu
p3991
sVcharge
p3992
F0
sVtag
p3993
I0
sVposition
p3994
(lp3995
F2.9537612350033147
aF3.6168539299999996
aF12.110421063513588
asVmomentum
p3996
(lp3997
F0
aF0
aF0
asa(dp3998
Vmagmom
p3999
F0
sVindex
p4000
I2
sVsymbol
p4001
VCu
p4002
sVcharge
p4003
F0
sVtag
p4004
I0
sVposition
p4005
(lp4006
F1.107342147089506e-16
aF1.808426965
aF15.064182298516904
asVmomentum
p4007
(lp4008
F0
aF0
aF0
asa(dp4009
Vmagmom
p4010
F0
sVindex
p4011
I3
sVsymbol
p4012
VCu
p4013
sVcharge
p4014
F0
sVtag
p4015
I0
sVposition
p4016
(lp4017
F3.3220264412685184e-16
aF5.4252808950000002
aF15.064182298516904
asVmomentum
p4018
(lp4019
F0
aF0
aF0
asa(dp4020
Vmagmom
p4021
F0
sVindex
p4022
I4
sVsymbol
p4023
VCu
p4024
sVcharge
p4025
F0
sVtag
p4026
I0
sVposition
p4027
(lp4028
F0.61399746179176928
aF0
aF13.246171618759039
asVmomentum
p4029
(lp4030
F0
aF0
aF0
asa(dp4031
Vmagmom
p4032
F0
sVindex
p4033
I5
sVsymbol
p4034
VCu
p4035
sVcharge
p4036
F0
sVtag
p4037
I0
sVposition
p4038
(lp4039
F4.089511790248765
aF3.6168539299999996
aF14.450184836725136
asVmomentum
p4040
(lp4041
F0
aF0
aF0
asa(dp4042
Vmagmom
p4043
F0
sVindex
p4044
I6
sVsymbol
p4045
VCu
p4046
sVcharge
p4047
F0
sVtag
p4048
I0
sVposition
p4049
(lp4050
F1.8180106797578643
aF3.61685393
aF15.678179760308673
asVmomentum
p4051
(lp4052
F0
aF0
aF0
asa(dp4053
Vmagmom
p4054
F0
sVindex
p4055
I7
sVsymbol
p4056
VCu
p4057
sVcharge
p4058
F0
sVtag
p4059
I0
sVposition
p4060
(lp4061
F5.2935250082148597
aF-1.9721522630525295e-31
aF16.88219297827477
asVmomentum
p4062
(lp4063
F0
aF0
aF0
asa(dp4064
Vmagmom
p4065
F0
sVindex
p4066
I8
sVsymbol
p4067
VCu
p4068
sVcharge
p4069
F0
sVtag
p4070
I0
sVposition
p4071
(lp4072
F4.7093488970773612
aF1.8029828041274856
aF12.682007358139137
asVmomentum
p4073
(lp4074
F0
aF0
aF0
asa(dp4075
Vmagmom
p4076
F0
sVindex
p4077
I9
sVsymbol
p4078
VCu
p4079
sVcharge
p4080
F0
sVtag
p4081
I0
sVposition
p4082
(lp4083
F3.5253475296288612
aF5.419836734127486
aF16.262355871446172
asVmomentum
p4084
(lp4085
F0
aF0
aF0
asa(dp4086
Vmagmom
p4087
F0
sVindex
p4088
I10
sVsymbol
p4089
VCu
p4090
sVcharge
p4091
F0
sVtag
p4092
I0
sVposition
p4093
(lp4094
F2.3821749403777686
aF5.4198367341274851
aF13.866008725587635
asVmomentum
p4095
(lp4096
F0
aF0
aF0
asa(dp4097
Vmagmom
p4098
F0
sVindex
p4099
I11
sVsymbol
p4100
VCu
p4101
sVcharge
p4102
F0
sVtag
p4103
I0
sVposition
p4104
(lp4105
F1.1981735729292686
aF1.802982804127486
aF17.446357238894674
asVmomentum
p4106
(lp4107
F0
aF0
aF0
asa(dp4108
Vmagmom
p4109
F0
sVindex
p4110
I12
sVsymbol
p4111
VCu
p4112
sVcharge
p4113
F0
sVtag
p4114
I0
sVposition
p4115
(lp4116
F1.1981735729292688
aF5.4307250558725144
aF17.446357238894674
asVmomentum
p4117
(lp4118
F0
aF0
aF0
asa(dp4119
Vmagmom
p4120
F0
sVindex
p4121
I13
sVsymbol
p4122
VCu
p4123
sVcharge
p4124
F0
sVtag
p4125
I0
sVposition
p4126
(lp4127
F2.3821749403777681
aF1.813871125872514
aF13.866008725587635
asVmomentum
p4128
(lp4129
F0
aF0
aF0
asa(dp4130
Vmagmom
p4131
F0
sVindex
p4132
I14
sVsymbol
p4133
VCu
p4134
sVcharge
p4135
F0
sVtag
p4136
I0
sVposition
p4137
(lp4138
F3.5253475296288608
aF1.8138711258725133
aF16.262355871446172
asVmomentum
p4139
(lp4140
F0
aF0
aF0
asa(dp4141
Vmagmom
p4142
F0
sVindex
p4143
I15
sVsymbol
p4144
VCu
p4145
sVcharge
p4146
F0
sVtag
p4147
I0
sVposition
p4148
(lp4149
F4.7093488970773612
aF5.4307250558725144
aF12.682007358139137
asVmomentum
p4150
(lp4151
F0
aF0
aF0
asa(dp4152
Vmagmom
p4153
F0
sVindex
p4154
I16
sVsymbol
p4155
VPd
p4156
sVcharge
p4157
F0
sVtag
p4158
I0
sVposition
p4159
(lp4160
F4.1800760591963826
aF0
aF14.459911985998575
asVmomentum
p4161
(lp4162
F0
aF0
aF0
asa(dp4163
Vmagmom
p4164
F0
sVindex
p4165
I17
sVsymbol
p4166
VPd
p4167
sVcharge
p4168
F0
sVtag
p4169
I0
sVposition
p4170
(lp4171
F5.3032521574882985
aF3.6168539299999996
aF16.791628709327153
asVmomentum
p4172
(lp4173
F0
aF0
aF0
asa(dp4174
Vmagmom
p4175
F0
sVindex
p4176
I18
sVsymbol
p4177
VPd
p4178
sVcharge
p4179
F0
sVtag
p4180
I0
sVposition
p4181
(lp4182
F0.60427031251832986
aF3.6168539299999996
aF13.336735887706658
asVmomentum
p4183
(lp4184
F0
aF0
aF0
asa(dp4185
Vmagmom
p4186
F0
sVindex
p4187
I19
sVsymbol
p4188
VPd
p4189
sVcharge
p4190
F0
sVtag
p4191
I0
sVposition
p4192
(lp4193
F1.727446410810247
aF0
aF15.668452611035233
asVmomentum
p4194
(lp4195
F0
aF0
aF0
asa(dp4196
Vmagmom
p4197
F0
sVindex
p4198
I20
sVsymbol
p4199
VCu
p4200
sVcharge
p4201
F0
sVtag
p4202
I0
sVposition
p4203
(lp4204
F2.9537612350033147
aF0
aF18.017943533520217
asVmomentum
p4205
(lp4206
F0
aF0
aF0
asa(dp4207
Vmagmom
p4208
F0
sVindex
p4209
I21
sVsymbol
p4210
VCu
p4211
sVcharge
p4212
F0
sVtag
p4213
I0
sVposition
p4214
(lp4215
F2.9537612350033147
aF3.6168539299999991
aF18.017943533520217
asVmomentum
p4216
(lp4217
F0
aF0
aF0
asa(dp4218
Vmagmom
p4219
F0
sVindex
p4220
I22
sVsymbol
p4221
VCu
p4222
sVcharge
p4223
F0
sVtag
p4224
I0
sVposition
p4225
(lp4226
F1.1073421470895061e-16
aF1.808426965
aF20.97170476852353
asVmomentum
p4227
(lp4228
F0
aF0
aF0
asa(dp4229
Vmagmom
p4230
F0
sVindex
p4231
I23
sVsymbol
p4232
VCu
p4233
sVcharge
p4234
F0
sVtag
p4235
I0
sVposition
p4236
(lp4237
F3.3220264412685179e-16
aF5.4252808950000002
aF20.97170476852353
asVmomentum
p4238
(lp4239
F0
aF0
aF0
asa(dp4240
Vmagmom
p4241
F0
sVindex
p4242
I24
sVsymbol
p4243
VCu
p4244
sVcharge
p4245
F0
sVtag
p4246
I0
sVposition
p4247
(lp4248
F0.61399746179176928
aF0
aF19.153694088765668
asVmomentum
p4249
(lp4250
F0
aF0
aF0
asa(dp4251
Vmagmom
p4252
F0
sVindex
p4253
I25
sVsymbol
p4254
VCu
p4255
sVcharge
p4256
F0
sVtag
p4257
I0
sVposition
p4258
(lp4259
F4.089511790248765
aF3.61685393
aF20.357707306731765
asVmomentum
p4260
(lp4261
F0
aF0
aF0
asa(dp4262
Vmagmom
p4263
F0
sVindex
p4264
I26
sVsymbol
p4265
VCu
p4266
sVcharge
p4267
F0
sVtag
p4268
I0
sVposition
p4269
(lp4270
F1.8180106797578643
aF3.61685393
aF21.585702230315302
asVmomentum
p4271
(lp4272
F0
aF0
aF0
asa(dp4273
Vmagmom
p4274
F0
sVindex
p4275
I27
sVsymbol
p4276
VCu
p4277
sVcharge
p4278
F0
sVtag
p4279
I0
sVposition
p4280
(lp4281
F5.2935250082148597
aF0
aF22.789715448281399
asVmomentum
p4282
(lp4283
F0
aF0
aF0
asa(dp4284
Vmagmom
p4285
F0
sVindex
p4286
I28
sVsymbol
p4287
VCu
p4288
sVcharge
p4289
F0
sVtag
p4290
I0
sVposition
p4291
(lp4292
F4.7093488970773612
aF1.8029828041274858
aF18.589529828145764
asVmomentum
p4293
(lp4294
F0
aF0
aF0
asa(dp4295
Vmagmom
p4296
F0
sVindex
p4297
I29
sVsymbol
p4298
VCu
p4299
sVcharge
p4300
F0
sVtag
p4301
I0
sVposition
p4302
(lp4303
F3.5253475296288612
aF5.419836734127486
aF22.169878341452801
asVmomentum
p4304
(lp4305
F0
aF0
aF0
asa(dp4306
Vmagmom
p4307
F0
sVindex
p4308
I30
sVsymbol
p4309
VCu
p4310
sVcharge
p4311
F0
sVtag
p4312
I0
sVposition
p4313
(lp4314
F2.3821749403777686
aF5.4198367341274842
aF19.773531195594266
asVmomentum
p4315
(lp4316
F0
aF0
aF0
asa(dp4317
Vmagmom
p4318
F0
sVindex
p4319
I31
sVsymbol
p4320
VCu
p4321
sVcharge
p4322
F0
sVtag
p4323
I0
sVposition
p4324
(lp4325
F1.1981735729292686
aF1.8029828041274858
aF23.353879708901299
asVmomentum
p4326
(lp4327
F0
aF0
aF0
asa(dp4328
Vmagmom
p4329
F0
sVindex
p4330
I32
sVsymbol
p4331
VCu
p4332
sVcharge
p4333
F0
sVtag
p4334
I0
sVposition
p4335
(lp4336
F1.1981735729292688
aF5.4307250558725144
aF23.353879708901299
asVmomentum
p4337
(lp4338
F0
aF0
aF0
asa(dp4339
Vmagmom
p4340
F0
sVindex
p4341
I33
sVsymbol
p4342
VCu
p4343
sVcharge
p4344
F0
sVtag
p4345
I0
sVposition
p4346
(lp4347
F2.3821749403777681
aF1.8138711258725138
aF19.773531195594266
asVmomentum
p4348
(lp4349
F0
aF0
aF0
asa(dp4350
Vmagmom
p4351
F0
sVindex
p4352
I34
sVsymbol
p4353
VCu
p4354
sVcharge
p4355
F0
sVtag
p4356
I0
sVposition
p4357
(lp4358
F3.5253475296288608
aF1.8138711258725133
aF22.169878341452801
asVmomentum
p4359
(lp4360
F0
aF0
aF0
asa(dp4361
Vmagmom
p4362
F0
sVindex
p4363
I35
sVsymbol
p4364
VCu
p4365
sVcharge
p4366
F0
sVtag
p4367
I0
sVposition
p4368
(lp4369
F4.7093488970773612
aF5.4307250558725135
aF18.589529828145764
asVmomentum
p4370
(lp4371
F0
aF0
aF0
asa(dp4372
Vmagmom
p4373
F0
sVindex
p4374
I36
sVsymbol
p4375
VPd
p4376
sVcharge
p4377
F0
sVtag
p4378
I0
sVposition
p4379
(lp4380
F4.1800760591963826
aF0
aF20.367434456005203
asVmomentum
p4381
(lp4382
F0
aF0
aF0
asa(dp4383
Vmagmom
p4384
F0
sVindex
p4385
I37
sVsymbol
p4386
VPd
p4387
sVcharge
p4388
F0
sVtag
p4389
I0
sVposition
p4390
(lp4391
F5.3032521574882985
aF3.6168539299999996
aF22.699151179333779
asVmomentum
p4392
(lp4393
F0
aF0
aF0
asa(dp4394
Vmagmom
p4395
F0
sVindex
p4396
I38
sVsymbol
p4397
VPd
p4398
sVcharge
p4399
F0
sVtag
p4400
I0
sVposition
p4401
(lp4402
F0.60427031251832986
aF3.6168539299999996
aF19.244258357713285
asVmomentum
p4403
(lp4404
F0
aF0
aF0
asa(dp4405
Vmagmom
p4406
F0
sVindex
p4407
I39
sVsymbol
p4408
VPd
p4409
sVcharge
p4410
F0
sVtag
p4411
I0
sVposition
p4412
(lp4413
F1.727446410810247
aF-1.9721522630525295e-31
aF21.575975081041861
asVmomentum
p4414
(lp4415
F0
aF0
aF0
asasVcell
p4416
(lp4417
(lp4418
F5.9075224700066293
aF0
aF2.2149661539217952e-32
aa(lp4419
F4.4293685883580241e-16
aF7.23370786
aF4.4293685883580241e-16
aa(lp4420
F0
aF0
aF35.445134820039776
aasVmass
p4421
F2884.8320000000003
sVpbc
p4422
(lp4423
I01
aI01
aI01
asVspacegroup
p4424
VPm (6)
p4425
sVconstraints
p4426
(lp4427
(dp4428
Vname
p4429
VFixAtoms
p4430
sVkwargs
p4431
(dp4432
Vindices
p4433
(lp4434
I0
aI1
aI2
aI3
aI4
aI5
aI6
aI7
aI8
aI9
aI10
aI11
aI12
aI13
aI14
aI15
aI16
aI17
aI18
aI19
aI20
aI21
aI24
aI28
aI30
aI33
aI35
aI38
assasaa(lp4435
g481
ag2
((ltRp4436
aa(lp4437
g484
ag485
aa(lp4438
g487
aS'552b2f814fffe859394f4fd496d6f1b060d45dcd'
p4439
aa(lp4440
g490
ag491
(S'\x07\xe1\x03\x1f\x13-\x04\x0b\xba\xc4'
tRp4441
aa(lp4442
g494
ag491
(S'\x07\xe1\x03\x1f\x13-\x04\x0b\xba\xcc'
tRp4443
aa(lp4444
g497
a(dp4445
g499
g509
sg510
I00
sg511
g512
sg513
g514
(g516
S'\xc1\xb74\xa7`\xe7\xdc?'
tRp4446
sg518
g532
sg533
g534
sg535
I01
sg536
g537
sg538
I40
saatRp4447
ag2
((lp4448
(lp4449
g5
a(dp4450
Vinfo
p4451
(dp4452
sVvolume
p4453
F1514.6872864759289
sVnatoms
p4454
I40
sVsymbol_counts
p4455
(dp4456
VCu
p4457
I32
sVPd
p4458
I8
ssVchemical_symbols
p4459
(lp4460
VPd
p4461
aVCu
p4462
asVatoms
p4463
(lp4464
(dp4465
Vmagmom
p4466
F0
sVindex
p4467
I0
sVsymbol
p4468
VCu
p4469
sVcharge
p4470
F0
sVtag
p4471
I0
sVposition
p4472
(lp4473
F2.9537612350033147
aF-1.48309883917586e-15
aF-12.110421063513588
asVmomentum
p4474
(lp4475
F0
aF0
aF0
asa(dp4476
Vmagmom
p4477
F0
sVindex
p4478
I1
sVsymbol
p4479
VCu
p4480
sVcharge
p4481
F0
sVtag
p4482
I0
sVposition
p4483
(lp4484
F2.9537612350033147
aF-3.6168539300000009
aF-12.110421063513588
asVmomentum
p4485
(lp4486
F0
aF0
aF0
asa(dp4487
Vmagmom
p4488
F0
sVindex
p4489
I2
sVsymbol
p4490
VCu
p4491
sVcharge
p4492
F0
sVtag
p4493
I0
sVposition
p4494
(lp4495
F1.107342147089506e-16
aF-1.8084269650000018
aF-15.064182298516904
asVmomentum
p4496
(lp4497
F0
aF0
aF0
asa(dp4498
Vmagmom
p4499
F0
sVindex
p4500
I3
sVsymbol
p4501
VCu
p4502
sVcharge
p4503
F0
sVtag
p4504
I0
sVposition
p4505
(lp4506
F3.3220264412685184e-16
aF-5.425280895000002
aF-15.064182298516904
asVmomentum
p4507
(lp4508
F0
aF0
aF0
asa(dp4509
Vmagmom
p4510
F0
sVindex
p4511
I4
sVsymbol
p4512
VCu
p4513
sVcharge
p4514
F0
sVtag
p4515
I0
sVposition
p4516
(lp4517
F0.61399746179176928
aF-1.6221881673869771e-15
aF-13.246171618759039
asVmomentum
p4518
(lp4519
F0
aF0
aF0
asa(dp4520
Vmagmom
p4521
F0
sVindex
p4522
I5
sVsymbol
p4523
VCu
p4524
sVcharge
p4525
F0
sVtag
p4526
I0
sVposition
p4527
(lp4528
F4.089511790248765
aF-3.6168539300000013
aF-14.450184836725136
asVmomentum
p4529
(lp4530
F0
aF0
aF0
asa(dp4531
Vmagmom
p4532
F0
sVindex
p4533
I6
sVsymbol
p4534
VCu
p4535
sVcharge
p4536
F0
sVtag
p4537
I0
sVposition
p4538
(lp4539
F1.8180106797578643
aF-3.6168539300000018
aF-15.678179760308673
asVmomentum
p4540
(lp4541
F0
aF0
aF0
asa(dp4542
Vmagmom
p4543
F0
sVindex
p4544
I7
sVsymbol
p4545
VCu
p4546
sVcharge
p4547
F0
sVtag
p4548
I0
sVposition
p4549
(lp4550
F5.2935250082148597
aF-2.0674723593432118e-15
aF-16.88219297827477
asVmomentum
p4551
(lp4552
F0
aF0
aF0
asa(dp4553
Vmagmom
p4554
F0
sVindex
p4555
I8
sVsymbol
p4556
VCu
p4557
sVcharge
p4558
F0
sVtag
p4559
I0
sVposition
p4560
(lp4561
F4.7093488970773612
aF-1.8029828041274871
aF-12.682007358139137
asVmomentum
p4562
(lp4563
F0
aF0
aF0
asa(dp4564
Vmagmom
p4565
F0
sVindex
p4566
I9
sVsymbol
p4567
VCu
p4568
sVcharge
p4569
F0
sVtag
p4570
I0
sVposition
p4571
(lp4572
F3.5253475296288612
aF-5.4198367341274878
aF-16.262355871446172
asVmomentum
p4573
(lp4574
F0
aF0
aF0
asa(dp4575
Vmagmom
p4576
F0
sVindex
p4577
I10
sVsymbol
p4578
VCu
p4579
sVcharge
p4580
F0
sVtag
p4581
I0
sVposition
p4582
(lp4583
F2.3821749403777686
aF-5.4198367341274869
aF-13.866008725587635
asVmomentum
p4584
(lp4585
F0
aF0
aF0
asa(dp4586
Vmagmom
p4587
F0
sVindex
p4588
I11
sVsymbol
p4589
VCu
p4590
sVcharge
p4591
F0
sVtag
p4592
I0
sVposition
p4593
(lp4594
F1.1981735729292686
aF-1.8029828041274882
aF-17.446357238894674
asVmomentum
p4595
(lp4596
F0
aF0
aF0
asa(dp4597
Vmagmom
p4598
F0
sVindex
p4599
I12
sVsymbol
p4600
VCu
p4601
sVcharge
p4602
F0
sVtag
p4603
I0
sVposition
p4604
(lp4605
F1.1981735729292688
aF-5.4307250558725162
aF-17.446357238894674
asVmomentum
p4606
(lp4607
F0
aF0
aF0
asa(dp4608
Vmagmom
p4609
F0
sVindex
p4610
I13
sVsymbol
p4611
VCu
p4612
sVcharge
p4613
F0
sVtag
p4614
I0
sVposition
p4615
(lp4616
F2.3821749403777681
aF-1.8138711258725158
aF-13.866008725587635
asVmomentum
p4617
(lp4618
F0
aF0
aF0
asa(dp4619
Vmagmom
p4620
F0
sVindex
p4621
I14
sVsymbol
p4622
VCu
p4623
sVcharge
p4624
F0
sVtag
p4625
I0
sVposition
p4626
(lp4627
F3.5253475296288608
aF-1.8138711258725153
aF-16.262355871446172
asVmomentum
p4628
(lp4629
F0
aF0
aF0
asa(dp4630
Vmagmom
p4631
F0
sVindex
p4632
I15
sVsymbol
p4633
VCu
p4634
sVcharge
p4635
F0
sVtag
p4636
I0
sVposition
p4637
(lp4638
F4.7093488970773612
aF-5.4307250558725162
aF-12.682007358139137
asVmomentum
p4639
(lp4640
F0
aF0
aF0
asa(dp4641
Vmagmom
p4642
F0
sVindex
p4643
I16
sVsymbol
p4644
VPd
p4645
sVcharge
p4646
F0
sVtag
p4647
I0
sVposition
p4648
(lp4649
F4.1800760591963826
aF-1.7708284929605602e-15
aF-14.459911985998575
asVmomentum
p4650
(lp4651
F0
aF0
aF0
asa(dp4652
Vmagmom
p4653
F0
sVindex
p4654
I17
sVsymbol
p4655
VPd
p4656
sVcharge
p4657
F0
sVtag
p4658
I0
sVposition
p4659
(lp4660
F5.3032521574882985
aF-3.6168539300000018
aF-16.791628709327153
asVmomentum
p4661
(lp4662
F0
aF0
aF0
asa(dp4663
Vmagmom
p4664
F0
sVindex
p4665
I18
sVsymbol
p4666
VPd
p4667
sVcharge
p4668
F0
sVtag
p4669
I0
sVposition
p4670
(lp4671
F0.60427031251832986
aF-3.6168539300000013
aF-13.336735887706658
asVmomentum
p4672
(lp4673
F0
aF0
aF0
asa(dp4674
Vmagmom
p4675
F0
sVindex
p4676
I19
sVsymbol
p4677
VPd
p4678
sVcharge
p4679
F0
sVtag
p4680
I0
sVposition
p4681
(lp4682
F1.727446410810247
aF-1.9188320337696287e-15
aF-15.668452611035233
asVmomentum
p4683
(lp4684
F0
aF0
aF0
asa(dp4685
Vmagmom
p4686
F0
sVindex
p4687
I20
sVsymbol
p4688
VCu
p4689
sVcharge
p4690
F0
sVtag
p4691
I0
sVposition
p4692
(lp4693
F2.9537612350033147
aF-2.2065616875543287e-15
aF-18.017943533520217
asVmomentum
p4694
(lp4695
F0
aF0
aF0
asa(dp4696
Vmagmom
p4697
F0
sVindex
p4698
I21
sVsymbol
p4699
VCu
p4700
sVcharge
p4701
F0
sVtag
p4702
I0
sVposition
p4703
(lp4704
F2.9537612350033147
aF-3.6168539300000013
aF-18.017943533520217
asVmomentum
p4705
(lp4706
F0
aF0
aF0
asa(dp4707
Vmagmom
p4708
F0
sVindex
p4709
I22
sVsymbol
p4710
VCu
p4711
sVcharge
p4712
F0
sVtag
p4713
I0
sVposition
p4714
(lp4715
F1.1073421470895061e-16
aF-1.8084269650000027
aF-20.97170476852353
asVmomentum
p4716
(lp4717
F0
aF0
aF0
asa(dp4718
Vmagmom
p4719
F0
sVindex
p4720
I23
sVsymbol
p4721
VCu
p4722
sVcharge
p4723
F0
sVtag
p4724
I0
sVposition
p4725
(lp4726
F3.3220264412685179e-16
aF-5.4252808950000029
aF-20.97170476852353
asVmomentum
p4727
(lp4728
F0
aF0
aF0
asa(dp4729
Vmagmom
p4730
F0
sVindex
p4731
I24
sVsymbol
p4732
VCu
p4733
sVcharge
p4734
F0
sVtag
p4735
I0
sVposition
p4736
(lp4737
F0.61399746179176928
aF-2.3456510157654455e-15
aF-19.153694088765668
asVmomentum
p4738
(lp4739
F0
aF0
aF0
asa(dp4740
Vmagmom
p4741
F0
sVindex
p4742
I25
sVsymbol
p4743
VCu
p4744
sVcharge
p4745
F0
sVtag
p4746
I0
sVposition
p4747
(lp4748
F4.089511790248765
aF-3.6168539300000027
aF-20.357707306731765
asVmomentum
p4749
(lp4750
F0
aF0
aF0
asa(dp4751
Vmagmom
p4752
F0
sVindex
p4753
I26
sVsymbol
p4754
VCu
p4755
sVcharge
p4756
F0
sVtag
p4757
I0
sVposition
p4758
(lp4759
F1.8180106797578643
aF-3.6168539300000027
aF-21.585702230315302
asVmomentum
p4760
(lp4761
F0
aF0
aF0
asa(dp4762
Vmagmom
p4763
F0
sVindex
p4764
I27
sVsymbol
p4765
VCu
p4766
sVcharge
p4767
F0
sVtag
p4768
I0
sVposition
p4769
(lp4770
F5.2935250082148597
aF-2.7909352077216802e-15
aF-22.789715448281399
asVmomentum
p4771
(lp4772
F0
aF0
aF0
asa(dp4773
Vmagmom
p4774
F0
sVindex
p4775
I28
sVsymbol
p4776
VCu
p4777
sVcharge
p4778
F0
sVtag
p4779
I0
sVposition
p4780
(lp4781
F4.7093488970773612
aF-1.802982804127488
aF-18.589529828145764
asVmomentum
p4782
(lp4783
F0
aF0
aF0
asa(dp4784
Vmagmom
p4785
F0
sVindex
p4786
I29
sVsymbol
p4787
VCu
p4788
sVcharge
p4789
F0
sVtag
p4790
I0
sVposition
p4791
(lp4792
F3.5253475296288612
aF-5.4198367341274887
aF-22.169878341452801
asVmomentum
p4793
(lp4794
F0
aF0
aF0
asa(dp4795
Vmagmom
p4796
F0
sVindex
p4797
I30
sVsymbol
p4798
VCu
p4799
sVcharge
p4800
F0
sVtag
p4801
I0
sVposition
p4802
(lp4803
F2.3821749403777686
aF-5.4198367341274869
aF-19.773531195594266
asVmomentum
p4804
(lp4805
F0
aF0
aF0
asa(dp4806
Vmagmom
p4807
F0
sVindex
p4808
I31
sVsymbol
p4809
VCu
p4810
sVcharge
p4811
F0
sVtag
p4812
I0
sVposition
p4813
(lp4814
F1.1981735729292686
aF-1.8029828041274887
aF-23.353879708901299
asVmomentum
p4815
(lp4816
F0
aF0
aF0
asa(dp4817
Vmagmom
p4818
F0
sVindex
p4819
I32
sVsymbol
p4820
VCu
p4821
sVcharge
p4822
F0
sVtag
p4823
I0
sVposition
p4824
(lp4825
F1.1981735729292688
aF-5.4307250558725171
aF-23.353879708901299
asVmomentum
p4826
(lp4827
F0
aF0
aF0
asa(dp4828
Vmagmom
p4829
F0
sVindex
p4830
I33
sVsymbol
p4831
VCu
p4832
sVcharge
p4833
F0
sVtag
p4834
I0
sVposition
p4835
(lp4836
F2.3821749403777681
aF-1.8138711258725162
aF-19.773531195594266
asVmomentum
p4837
(lp4838
F0
aF0
aF0
asa(dp4839
Vmagmom
p4840
F0
sVindex
p4841
I34
sVsymbol
p4842
VCu
p4843
sVcharge
p4844
F0
sVtag
p4845
I0
sVposition
p4846
(lp4847
F3.5253475296288608
aF-1.813871125872516
aF-22.169878341452801
asVmomentum
p4848
(lp4849
F0
aF0
aF0
asa(dp4850
Vmagmom
p4851
F0
sVindex
p4852
I35
sVsymbol
p4853
VCu
p4854
sVcharge
p4855
F0
sVtag
p4856
I0
sVposition
p4857
(lp4858
F4.7093488970773612
aF-5.4307250558725162
aF-18.589529828145764
asVmomentum
p4859
(lp4860
F0
aF0
aF0
asa(dp4861
Vmagmom
p4862
F0
sVindex
p4863
I36
sVsymbol
p4864
VPd
p4865
sVcharge
p4866
F0
sVtag
p4867
I0
sVposition
p4868
(lp4869
F4.1800760591963826
aF-2.4942913413390286e-15
aF-20.367434456005203
asVmomentum
p4870
(lp4871
F0
aF0
aF0
asa(dp4872
Vmagmom
p4873
F0
sVindex
p4874
I37
sVsymbol
p4875
VPd
p4876
sVcharge
p4877
F0
sVtag
p4878
I0
sVposition
p4879
(lp4880
F5.3032521574882985
aF-3.6168539300000022
aF-22.699151179333779
asVmomentum
p4881
(lp4882
F0
aF0
aF0
asa(dp4883
Vmagmom
p4884
F0
sVindex
p4885
I38
sVsymbol
p4886
VPd
p4887
sVcharge
p4888
F0
sVtag
p4889
I0
sVposition
p4890
(lp4891
F0.60427031251832986
aF-3.6168539300000018
aF-19.244258357713285
asVmomentum
p4892
(lp4893
F0
aF0
aF0
asa(dp4894
Vmagmom
p4895
F0
sVindex
p4896
I39
sVsymbol
p4897
VPd
p4898
sVcharge
p4899
F0
sVtag
p4900
I0
sVposition
p4901
(lp4902
F1.727446410810247
aF-2.6422948821480971e-15
aF-21.575975081041861
asVmomentum
p4903
(lp4904
F0
aF0
aF0
asasVcell
p4905
(lp4906
(lp4907
F5.9075224700066293
aF-2.7125512106200501e-48
aF-2.2149661539217952e-32
aa(lp4908
F4.4293685883580241e-16
aF-7.23370786
aF4.429368588358026e-16
aa(lp4909
F0
aF-4.3407770902708105e-15
aF-35.445134820039776
aasVmass
p4910
F2884.8320000000003
sVpbc
p4911
(lp4912
I01
aI01
aI01
asVspacegroup
p4913
VPm (6)
p4914
sVconstraints
p4915
(lp4916
(dp4917
Vname
p4918
VFixAtoms
p4919
sVkwargs
p4920
(dp4921
Vindices
p4922
(lp4923
I6
aI7
aI9
aI11
aI12
aI14
aI17
aI19
aI20
aI21
aI22
aI23
aI24
aI25
aI26
aI27
aI28
aI29
aI30
aI31
aI32
aI33
aI34
aI35
aI36
aI37
aI38
aI39
assasaa(lp4924
g481
ag2
((ltRp4925
aa(lp4926
g484
ag485
aa(lp4927
g487
aS'17228e045b8783f54824132d6030286e093d4fcc'
p4928
aa(lp4929
g490
ag491
(S'\x07\xe1\x03\x1f\x13-\x04\x0b\xf4\x05'
tRp4930
aa(lp4931
g494
ag491
(S'\x07\xe1\x03\x1f\x13-\x04\x0b\xf4\x0e'
tRp4932
aa(lp4933
g497
a(dp4934
g499
g509
sg510
I00
sg511
g512
sg513
g4446
sg518
g532
sg533
g534
sg535
I00
sg536
g537
sg538
I40
saatRp4935
a.