(lp1
ccollections
OrderedDict
p2
((lp3
(lp4
S'atoms'
p5
a(dp6
Vinfo
p7
(dp8
sVvolume
p9
F3786.7182161898222
sVnatoms
p10
I100
sVsymbol_counts
p11
(dp12
VCu
p13
I80
sVPd
p14
I20
ssVchemical_symbols
p15
(lp16
VPd
p17
aVCu
p18
asVatoms
p19
(lp20
(dp21
Vmagmom
p22
F0
sVindex
p23
I0
sVsymbol
p24
VCu
p25
sVcharge
p26
F0
sVtag
p27
I0
sVposition
p28
(lp29
F7.5795645915532415
aF4.4524589844585414
aF16.733780977099265
asVmomentum
p30
(lp31
F0
aF0
aF0
asa(dp32
Vmagmom
p33
F0
sVindex
p34
I1
sVsymbol
p35
VCu
p36
sVcharge
p37
F0
sVtag
p38
I0
sVposition
p39
(lp40
F12.243688865630597
aF2.6714753906751261
aF19.891765132897049
asVmomentum
p41
(lp42
F0
aF0
aF0
asa(dp43
Vmagmom
p44
F0
sVindex
p45
I2
sVsymbol
p46
VCu
p47
sVcharge
p48
F0
sVtag
p49
I0
sVposition
p50
(lp51
F2.9154403174758809
aF6.2334425782419549
aF13.575796821301472
asVmomentum
p52
(lp53
F0
aF0
aF0
asa(dp54
Vmagmom
p55
F0
sVindex
p56
I3
sVsymbol
p57
VCu
p58
sVcharge
p59
F0
sVtag
p60
I0
sVposition
p61
(lp62
F4.081229621876866
aF0.89049179689171254
aF19.891765132897053
asVmomentum
p63
(lp64
F0
aF0
aF0
asa(dp65
Vmagmom
p66
F0
sVindex
p67
I4
sVsymbol
p68
VCu
p69
sVcharge
p70
F0
sVtag
p71
I0
sVposition
p72
(lp73
F11.077899561229611
aF8.014426172025372
aF24.626777450688721
asVmomentum
p74
(lp75
F0
aF0
aF0
asa(dp76
Vmagmom
p77
F0
sVindex
p78
I5
sVsymbol
p79
VCu
p80
sVcharge
p81
F0
sVtag
p82
I0
sVposition
p83
(lp84
F6.9966699393527509
aF7.1239343751336639
aF19.101287135995097
asVmomentum
p85
(lp86
F0
aF0
aF0
asa(dp87
Vmagmom
p88
F0
sVindex
p89
I6
sVsymbol
p90
VCu
p91
sVcharge
p92
F0
sVtag
p93
I0
sVposition
p94
(lp95
F11.660794213430105
aF5.3429507813502504
aF22.259271291792885
asVmomentum
p96
(lp97
F0
aF0
aF0
asa(dp98
Vmagmom
p99
F0
sVindex
p100
I7
sVsymbol
p101
VCu
p102
sVcharge
p103
F0
sVtag
p104
I0
sVposition
p105
(lp106
F1.1102230246251565e-15
aF-8.8817841970012523e-16
aF14.366274818203427
asVmomentum
p107
(lp108
F0
aF0
aF0
asa(dp109
Vmagmom
p110
F0
sVindex
p111
I8
sVsymbol
p112
VCu
p113
sVcharge
p114
F0
sVtag
p115
I0
sVposition
p116
(lp117
F3.4983349696763741
aF3.5619671875668342
aF22.259271291792885
asVmomentum
p118
(lp119
F0
aF0
aF0
asa(dp120
Vmagmom
p121
F0
sVindex
p122
I9
sVsymbol
p123
VCu
p124
sVcharge
p125
F0
sVtag
p126
I0
sVposition
p127
(lp128
F8.162459243753732
aF1.780983593783418
aF14.366274818203429
asVmomentum
p129
(lp130
F0
aF0
aF0
asa(dp131
Vmagmom
p132
F0
sVindex
p133
I10
sVsymbol
p134
VCu
p135
sVcharge
p136
F0
sVtag
p137
I0
sVposition
p138
(lp139
F6.7052226132524986
aF8.4596720704712247
aF14.759549900749391
asVmomentum
p140
(lp141
F0
aF0
aF0
asa(dp142
Vmagmom
p143
F0
sVindex
p144
I11
sVsymbol
p145
VCu
p146
sVcharge
p147
F0
sVtag
p148
I0
sVposition
p149
(lp150
F11.36934688732986
aF6.6786884766878112
aF17.917534056547183
asVmomentum
p151
(lp152
F0
aF0
aF0
asa(dp153
Vmagmom
p154
F0
sVindex
p155
I12
sVsymbol
p156
VCu
p157
sVcharge
p158
F0
sVtag
p159
I0
sVposition
p160
(lp161
F12.535136191730842
aF1.3357376953375635
aF24.233502368142759
asVmomentum
p162
(lp163
F0
aF0
aF0
asa(dp164
Vmagmom
p165
F0
sVindex
p166
I13
sVsymbol
p167
VCu
p168
sVcharge
p169
F0
sVtag
p170
I0
sVposition
p171
(lp172
F3.2068876435761267
aF4.8977048829043941
aF17.917534056547179
asVmomentum
p173
(lp174
F0
aF0
aF0
asa(dp175
Vmagmom
p176
F0
sVindex
p177
I14
sVsymbol
p178
VCu
p179
sVcharge
p180
F0
sVtag
p181
I0
sVposition
p182
(lp183
F7.8710119176534832
aF3.1167212891209797
aF21.075518212344971
asVmomentum
p184
(lp185
F0
aF0
aF0
asa(dp186
Vmagmom
p187
F0
sVindex
p188
I15
sVsymbol
p189
VCu
p190
sVcharge
p191
F0
sVtag
p192
I0
sVposition
p193
(lp194
F3.7897822957766212
aF2.2262294922292689
aF15.550027897651347
asVmomentum
p195
(lp196
F0
aF0
aF0
asa(dp197
Vmagmom
p198
F0
sVindex
p199
I16
sVsymbol
p200
VCu
p201
sVcharge
p202
F0
sVtag
p203
I0
sVposition
p204
(lp205
F8.453906569853979
aF0.44524589844585627
aF18.708012053449135
asVmomentum
p206
(lp207
F0
aF0
aF0
asa(dp208
Vmagmom
p209
F0
sVindex
p210
I17
sVsymbol
p211
VCu
p212
sVcharge
p213
F0
sVtag
p214
I0
sVposition
p215
(lp216
F11.95224153953035
aF4.0072130860126869
aF15.550027897651344
asVmomentum
p217
(lp218
F0
aF0
aF0
asa(dp219
Vmagmom
p220
F0
sVindex
p221
I18
sVsymbol
p222
VCu
p223
sVcharge
p224
F0
sVtag
p225
I0
sVposition
p226
(lp227
F2.623992991375633
aF7.5691802735795211
aF20.285040215443015
asVmomentum
p228
(lp229
F0
aF0
aF0
asa(dp230
Vmagmom
p231
F0
sVindex
p232
I19
sVsymbol
p233
VCu
p234
sVcharge
p235
F0
sVtag
p236
I0
sVposition
p237
(lp238
F7.2881172654529927
aF5.7881966797961031
aF23.443024371240803
asVmomentum
p239
(lp240
F0
aF0
aF0
asa(dp241
Vmagmom
p242
F0
sVindex
p243
I20
sVsymbol
p244
VCu
p245
sVcharge
p246
F0
sVtag
p247
I0
sVposition
p248
(lp249
F5.0596952266770696
aF4.4730386238912621
aF16.090151657868965
asVmomentum
p250
(lp251
F0
aF0
aF0
asa(dp252
Vmagmom
p253
F0
sVindex
p254
I21
sVsymbol
p255
VCu
p256
sVcharge
p257
F0
sVtag
p258
I0
sVposition
p259
(lp260
F9.7238195007544235
aF2.6920550301078485
aF19.248135813666757
asVmomentum
p261
(lp262
F0
aF0
aF0
asa(dp263
Vmagmom
p264
F0
sVindex
p265
I22
sVsymbol
p266
VCu
p267
sVcharge
p268
F0
sVtag
p269
I0
sVposition
p270
(lp271
F13.222154470430796
aF6.2540222176746783
aF16.090151657868965
asVmomentum
p272
(lp273
F0
aF0
aF0
asa(dp274
Vmagmom
p275
F0
sVindex
p276
I23
sVsymbol
p277
VCu
p278
sVcharge
p279
F0
sVtag
p280
I0
sVposition
p281
(lp282
F1.5613602570006937
aF0.91107143632442877
aF19.248135813666757
asVmomentum
p283
(lp284
F0
aF0
aF0
asa(dp285
Vmagmom
p286
F0
sVindex
p287
I24
sVsymbol
p288
VCu
p289
sVcharge
p290
F0
sVtag
p291
I0
sVposition
p292
(lp293
F8.5580301963534389
aF8.0350058114580918
aF23.983148131458432
asVmomentum
p294
(lp295
F0
aF0
aF0
asa(dp296
Vmagmom
p297
F0
sVindex
p298
I25
sVsymbol
p299
VCu
p300
sVcharge
p301
F0
sVtag
p302
I0
sVposition
p303
(lp304
F6.5078024472266449
aF5.3707603593016069
aF20.959192753492154
asVmomentum
p305
(lp306
F0
aF0
aF0
asa(dp307
Vmagmom
p308
F0
sVindex
p309
I26
sVsymbol
p310
VCu
p311
sVcharge
p312
F0
sVtag
p313
I0
sVposition
p314
(lp315
F11.171926721303999
aF3.5897767655181951
aF24.117176909289945
asVmomentum
p316
(lp317
F0
aF0
aF0
asa(dp318
Vmagmom
p319
F0
sVindex
p320
I27
sVsymbol
p321
VCu
p322
sVcharge
p323
F0
sVtag
p324
I0
sVposition
p325
(lp326
F14.670261690980373
aF7.1517439530850222
aF20.95919275349215
asVmomentum
p327
(lp328
F0
aF0
aF0
asa(dp329
Vmagmom
p330
F0
sVindex
p331
I28
sVsymbol
p332
VCu
p333
sVcharge
p334
F0
sVtag
p335
I0
sVposition
p336
(lp337
F3.0094674775502712
aF1.8087931717347772
aF13.066196279902691
asVmomentum
p338
(lp339
F0
aF0
aF0
asa(dp340
Vmagmom
p341
F0
sVindex
p342
I29
sVsymbol
p343
VCu
p344
sVcharge
p345
F0
sVtag
p346
I0
sVposition
p347
(lp348
F7.673591751627626
aF0.027809577951360964
aF16.224180435700482
asVmomentum
p349
(lp350
F0
aF0
aF0
asa(dp351
Vmagmom
p352
F0
sVindex
p353
I30
sVsymbol
p354
VCu
p355
sVcharge
p356
F0
sVtag
p357
I0
sVposition
p358
(lp359
F7.4855374314788499
aF8.87710839096572
aF17.243381518498044
asVmomentum
p360
(lp361
F0
aF0
aF0
asa(dp362
Vmagmom
p363
F0
sVindex
p364
I31
sVsymbol
p365
VCu
p366
sVcharge
p367
F0
sVtag
p368
I0
sVposition
p369
(lp370
F12.149661705556206
aF7.0961247971823074
aF20.401365674295832
asVmomentum
p371
(lp372
F0
aF0
aF0
asa(dp373
Vmagmom
p374
F0
sVindex
p375
I32
sVsymbol
p376
VCu
p377
sVcharge
p378
F0
sVtag
p379
I0
sVposition
p380
(lp381
F0.48886749212610425
aF1.7531740158320579
aF12.508369200706374
asVmomentum
p382
(lp383
F0
aF0
aF0
asa(dp384
Vmagmom
p385
F0
sVindex
p386
I33
sVsymbol
p387
VCu
p388
sVcharge
p389
F0
sVtag
p390
I0
sVposition
p391
(lp392
F3.9872024618024766
aF5.3151412033988894
aF20.401365674295832
asVmomentum
p393
(lp394
F0
aF0
aF0
asa(dp395
Vmagmom
p396
F0
sVindex
p397
I34
sVsymbol
p398
VCu
p399
sVcharge
p400
F0
sVtag
p401
I0
sVposition
p402
(lp403
F8.6513267358798345
aF3.5341576096154732
aF23.559349830093623
asVmomentum
p404
(lp405
F0
aF0
aF0
asa(dp406
Vmagmom
p407
F0
sVindex
p408
I35
sVsymbol
p409
VCu
p410
sVcharge
p411
F0
sVtag
p412
I0
sVposition
p413
(lp414
F10.099433956429413
aF4.4318793450258189
aF17.377410296329561
asVmomentum
p415
(lp416
F0
aF0
aF0
asa(dp417
Vmagmom
p418
F0
sVindex
p419
I36
sVsymbol
p420
VCu
p421
sVcharge
p422
F0
sVtag
p423
I0
sVposition
p424
(lp425
F1.9369747126756796
aF2.6508957512424036
aF17.377410296329561
asVmomentum
p426
(lp427
F0
aF0
aF0
asa(dp428
Vmagmom
p429
F0
sVindex
p430
I37
sVsymbol
p431
VCu
p432
sVcharge
p433
F0
sVtag
p434
I0
sVposition
p435
(lp436
F5.4353096823520506
aF6.2128629388092342
aF14.219426140531766
asVmomentum
p437
(lp438
F0
aF0
aF0
asa(dp439
Vmagmom
p440
F0
sVindex
p441
I38
sVsymbol
p442
VCu
p443
sVcharge
p444
F0
sVtag
p445
I0
sVposition
p446
(lp447
F6.601098986753037
aF0.86991215745898742
aF20.535394452127349
asVmomentum
p448
(lp449
F0
aF0
aF0
asa(dp450
Vmagmom
p451
F0
sVindex
p452
I39
sVsymbol
p453
VCu
p454
sVcharge
p455
F0
sVtag
p456
I0
sVposition
p457
(lp458
F13.597768926105783
aF7.9938465325926487
aF25.270406769919013
asVmomentum
p459
(lp460
F0
aF0
aF0
asa(dp461
Vmagmom
p462
F0
sVindex
p463
I40
sVsymbol
p464
VCu
p465
sVcharge
p466
F0
sVtag
p467
I0
sVposition
p468
(lp469
F8.3365875689486835
aF4.9102652696995541
aF19.158007769356736
asVmomentum
p470
(lp471
F0
aF0
aF0
asa(dp472
Vmagmom
p473
F0
sVindex
p474
I41
sVsymbol
p475
VCu
p476
sVcharge
p477
F0
sVtag
p478
I0
sVposition
p479
(lp480
F13.000711843026048
aF3.1292816759161379
aF22.315991925154528
asVmomentum
p481
(lp482
F0
aF0
aF0
asa(dp483
Vmagmom
p484
F0
sVindex
p485
I42
sVsymbol
p486
VCu
p487
sVcharge
p488
F0
sVtag
p489
I0
sVposition
p490
(lp491
F3.6724632948713252
aF6.6912488634829641
aF16.000023613558945
asVmomentum
p492
(lp493
F0
aF0
aF0
asa(dp494
Vmagmom
p495
F0
sVindex
p496
I43
sVsymbol
p497
VCu
p498
sVcharge
p499
F0
sVtag
p500
I0
sVposition
p501
(lp502
F4.8382525992723107
aF1.3482980821327217
aF22.315991925154528
asVmomentum
p503
(lp504
F0
aF0
aF0
asa(dp505
Vmagmom
p506
F0
sVindex
p507
I44
sVsymbol
p508
VCu
p509
sVcharge
p510
F0
sVtag
p511
I0
sVposition
p512
(lp513
F11.83492253862506
aF8.4722324572663847
aF16.000023613558945
asVmomentum
p514
(lp515
F0
aF0
aF0
asa(dp516
Vmagmom
p517
F0
sVindex
p518
I45
sVsymbol
p519
VCu
p520
sVcharge
p521
F0
sVtag
p522
I0
sVposition
p523
(lp524
F5.8644641458361448
aF0.43695214280698558
aF18.071516851085793
asVmomentum
p525
(lp526
F0
aF0
aF0
asa(dp527
Vmagmom
p528
F0
sVindex
p529
I46
sVsymbol
p530
VCu
p531
sVcharge
p532
F0
sVtag
p533
I0
sVposition
p534
(lp535
F12.861134085188887
aF7.5608865179406459
aF22.806529168877468
asVmomentum
p536
(lp537
F0
aF0
aF0
asa(dp538
Vmagmom
p539
F0
sVindex
p540
I47
sVsymbol
p541
VCu
p542
sVcharge
p543
F0
sVtag
p544
I0
sVposition
p545
(lp546
F1.2003398717587834
aF2.2179357365903947
aF14.913532695288001
asVmomentum
p547
(lp548
F0
aF0
aF0
asa(dp549
Vmagmom
p550
F0
sVindex
p551
I48
sVsymbol
p552
VCu
p553
sVcharge
p554
F0
sVtag
p555
I0
sVposition
p556
(lp557
F4.6986748414351567
aF5.7799029241572297
aF22.806529168877468
asVmomentum
p558
(lp559
F0
aF0
aF0
asa(dp560
Vmagmom
p561
F0
sVindex
p562
I49
sVsymbol
p563
VCu
p564
sVcharge
p565
F0
sVtag
p566
I0
sVposition
p567
(lp568
F9.3627991155125176
aF3.9989193303738144
aF14.913532695288009
asVmomentum
p569
(lp570
F0
aF0
aF0
asa(dp571
Vmagmom
p572
F0
sVindex
p573
I50
sVsymbol
p574
VCu
p575
sVcharge
p576
F0
sVtag
p577
I0
sVposition
p578
(lp579
F5.2151901847702433
aF7.5694317128432909
aF20.914408182565371
asVmomentum
p580
(lp581
F0
aF0
aF0
asa(dp582
Vmagmom
p583
F0
sVindex
p584
I51
sVsymbol
p585
VCu
p586
sVcharge
p587
F0
sVtag
p588
I0
sVposition
p589
(lp590
F9.8793144588475954
aF5.7884481190598738
aF24.072392338363159
asVmomentum
p591
(lp592
F0
aF0
aF0
asa(dp593
Vmagmom
p594
F0
sVindex
p595
I52
sVsymbol
p596
VCu
p597
sVcharge
p598
F0
sVtag
p599
I0
sVposition
p600
(lp601
F11.045103763248589
aF0.44549733770962519
aF19.337380020571491
asVmomentum
p602
(lp603
F0
aF0
aF0
asa(dp604
Vmagmom
p605
F0
sVindex
p606
I53
sVsymbol
p607
VCu
p608
sVcharge
p609
F0
sVtag
p610
I0
sVposition
p611
(lp612
F1.7168552150938678
aF4.0074645252764576
aF13.021411708975911
asVmomentum
p613
(lp614
F0
aF0
aF0
asa(dp615
Vmagmom
p616
F0
sVindex
p617
I54
sVsymbol
p618
VCu
p619
sVcharge
p620
F0
sVtag
p621
I0
sVposition
p622
(lp623
F6.3809794891712253
aF2.2264809314930414
aF16.179395864773703
asVmomentum
p624
(lp625
F0
aF0
aF0
asa(dp626
Vmagmom
p627
F0
sVindex
p628
I55
sVsymbol
p629
VCu
p630
sVcharge
p631
F0
sVtag
p632
I0
sVposition
p633
(lp634
F6.2414017313340739
aF6.6580857735175512
aF16.66993310849664
asVmomentum
p635
(lp636
F0
aF0
aF0
asa(dp637
Vmagmom
p638
F0
sVindex
p639
I56
sVsymbol
p640
VCu
p641
sVcharge
p642
F0
sVtag
p643
I0
sVposition
p644
(lp645
F10.905526005411431
aF4.877102179734135
aF19.827917264294431
asVmomentum
p646
(lp647
F0
aF0
aF0
asa(dp648
Vmagmom
p649
F0
sVindex
p650
I57
sVsymbol
p651
VCu
p652
sVcharge
p653
F0
sVtag
p654
I0
sVposition
p655
(lp656
F14.403860975087806
aF8.4390693673009647
aF16.66993310849664
asVmomentum
p657
(lp658
F0
aF0
aF0
asa(dp659
Vmagmom
p660
F0
sVindex
p661
I58
sVsymbol
p662
VCu
p663
sVcharge
p664
F0
sVtag
p665
I0
sVposition
p666
(lp667
F2.7430667616576994
aF3.0961185859507179
aF19.827917264294427
asVmomentum
p668
(lp669
F0
aF0
aF0
asa(dp670
Vmagmom
p671
F0
sVindex
p672
I59
sVsymbol
p673
VCu
p674
sVcharge
p675
F0
sVtag
p676
I0
sVposition
p677
(lp678
F7.4071910357350594
aF1.3151349921673017
aF22.985901420092222
asVmomentum
p679
(lp680
F0
aF0
aF0
asa(dp681
Vmagmom
p682
F0
sVindex
p683
I60
sVsymbol
p684
VCu
p685
sVcharge
p686
F0
sVtag
p687
I0
sVposition
p688
(lp689
F3.3242066444814249
aF0.43268551165069979
aF17.467538340639582
asVmomentum
p690
(lp691
F0
aF0
aF0
asa(dp692
Vmagmom
p693
F0
sVindex
p694
I61
sVsymbol
p695
VCu
p696
sVcharge
p697
F0
sVtag
p698
I0
sVposition
p699
(lp700
F10.320876583834167
aF7.5566198867843628
aF22.20255065843125
asVmomentum
p701
(lp702
F0
aF0
aF0
asa(dp703
Vmagmom
p704
F0
sVindex
p705
I62
sVsymbol
p706
VCu
p707
sVcharge
p708
F0
sVtag
p709
I0
sVposition
p710
(lp711
F11.486665888235157
aF2.2136691054341142
aF17.467538340639582
asVmomentum
p712
(lp713
F0
aF0
aF0
asa(dp714
Vmagmom
p715
F0
sVindex
p716
I63
sVsymbol
p717
VCu
p718
sVcharge
p719
F0
sVtag
p720
I0
sVposition
p721
(lp722
F2.1584173400804358
aF5.7756362930009466
aF22.20255065843125
asVmomentum
p723
(lp724
F0
aF0
aF0
asa(dp725
Vmagmom
p726
F0
sVindex
p727
I64
sVsymbol
p728
VCu
p729
sVcharge
p730
F0
sVtag
p731
I0
sVposition
p732
(lp733
F6.822541614157795
aF3.9946526992175286
aF14.309554184841794
asVmomentum
p734
(lp735
F0
aF0
aF0
asa(dp736
Vmagmom
p737
F0
sVindex
p738
I65
sVsymbol
p739
VCu
p740
sVcharge
p741
F0
sVtag
p742
I0
sVposition
p743
(lp744
F5.7963300675939653
aF4.9059986385432675
aF18.554029258910525
asVmomentum
p745
(lp746
F0
aF0
aF0
asa(dp747
Vmagmom
p748
F0
sVindex
p749
I66
sVsymbol
p750
VCu
p751
sVcharge
p752
F0
sVtag
p753
I0
sVposition
p754
(lp755
F10.460454341671324
aF3.1250150447598539
aF21.712013414708316
asVmomentum
p756
(lp757
F0
aF0
aF0
asa(dp758
Vmagmom
p759
F0
sVindex
p760
I67
sVsymbol
p761
VCu
p762
sVcharge
p763
F0
sVtag
p764
I0
sVposition
p765
(lp766
F13.958789311347694
aF6.6869822323266819
aF18.554029258910518
asVmomentum
p767
(lp768
F0
aF0
aF0
asa(dp769
Vmagmom
p770
F0
sVindex
p771
I68
sVsymbol
p772
VCu
p773
sVcharge
p774
F0
sVtag
p775
I0
sVposition
p776
(lp777
F2.2979950979175912
aF1.3440314509764377
aF21.712013414708316
asVmomentum
p778
(lp779
F0
aF0
aF0
asa(dp780
Vmagmom
p781
F0
sVindex
p782
I69
sVsymbol
p783
VCu
p784
sVcharge
p785
F0
sVtag
p786
I0
sVposition
p787
(lp788
F9.2946650372703346
aF8.467965826110099
aF15.396045103112733
asVmomentum
p789
(lp790
F0
aF0
aF0
asa(dp791
Vmagmom
p792
F0
sVindex
p793
I70
sVsymbol
p794
VCu
p795
sVcharge
p796
F0
sVtag
p797
I0
sVposition
p798
(lp799
F8.7781496939352532
aF6.6784370374240423
aF17.288166089424827
asVmomentum
p800
(lp801
F0
aF0
aF0
asa(dp802
Vmagmom
p803
F0
sVindex
p804
I71
sVsymbol
p805
VCu
p806
sVcharge
p807
F0
sVtag
p808
I0
sVposition
p809
(lp810
F13.442273968012609
aF4.8974534436406261
aF20.446150245222618
asVmomentum
p811
(lp812
F0
aF0
aF0
asa(dp813
Vmagmom
p814
F0
sVindex
p815
I72
sVsymbol
p816
VCu
p817
sVcharge
p818
F0
sVtag
p819
I0
sVposition
p820
(lp821
F4.1140254198578923
aF8.459420631207454
aF14.130181933627032
asVmomentum
p822
(lp823
F0
aF0
aF0
asa(dp824
Vmagmom
p825
F0
sVindex
p826
I73
sVsymbol
p827
VCu
p828
sVcharge
p829
F0
sVtag
p830
I0
sVposition
p831
(lp832
F5.2798147242588769
aF3.1164698498572108
aF20.446150245222618
asVmomentum
p833
(lp834
F0
aF0
aF0
asa(dp835
Vmagmom
p836
F0
sVindex
p837
I74
sVsymbol
p838
VCu
p839
sVcharge
p840
F0
sVtag
p841
I0
sVposition
p842
(lp843
F9.9439389983362414
aF1.3354862560737928
aF23.60413440102041
asVmomentum
p844
(lp845
F0
aF0
aF0
asa(dp846
Vmagmom
p847
F0
sVindex
p848
I75
sVsymbol
p849
VCu
p850
sVcharge
p851
F0
sVtag
p852
I0
sVposition
p853
(lp854
F7.7519381473714191
aF7.5897829767497793
aF21.532641163493558
asVmomentum
p855
(lp856
F0
aF0
aF0
asa(dp857
Vmagmom
p858
F0
sVindex
p859
I76
sVsymbol
p860
VCu
p861
sVcharge
p862
F0
sVtag
p863
I0
sVposition
p864
(lp865
F12.41606242144878
aF5.808799382966364
aF24.69062531929135
asVmomentum
p866
(lp867
F0
aF0
aF0
asa(dp868
Vmagmom
p869
F0
sVindex
p870
I77
sVsymbol
p871
VCu
p872
sVcharge
p873
F0
sVtag
p874
I0
sVposition
p875
(lp876
F0.75526820801867478
aF0.4658486016161163
aF16.797628845701887
asVmomentum
p877
(lp878
F0
aF0
aF0
asa(dp879
Vmagmom
p880
F0
sVindex
p881
I78
sVsymbol
p882
VCu
p883
sVcharge
p884
F0
sVtag
p885
I0
sVposition
p886
(lp887
F4.2536031776950445
aF4.0278157891829469
aF13.639644689904094
asVmomentum
p888
(lp889
F0
aF0
aF0
asa(dp890
Vmagmom
p891
F0
sVindex
p892
I79
sVsymbol
p893
VCu
p894
sVcharge
p895
F0
sVtag
p896
I0
sVposition
p897
(lp898
F8.9177274517724072
aF2.2468321953995325
aF16.79762884570189
asVmomentum
p899
(lp900
F0
aF0
aF0
asa(dp901
Vmagmom
p902
F0
sVindex
p903
I80
sVsymbol
p904
VPd
p905
sVcharge
p906
F0
sVtag
p907
I0
sVposition
p908
(lp909
F7.1564394102987343
aF2.6661168740971668
aF18.645299375810886
asVmomentum
p910
(lp911
F0
aF0
aF0
asa(dp912
Vmagmom
p913
F0
sVindex
p914
I81
sVsymbol
p915
VPd
p916
sVcharge
p917
F0
sVtag
p918
I0
sVposition
p919
(lp920
F11.82056368437609
aF0.8851332803137506
aF21.803283531608677
asVmomentum
p921
(lp922
F0
aF0
aF0
asa(dp923
Vmagmom
p924
F0
sVindex
p925
I82
sVsymbol
p926
VPd
p927
sVcharge
p928
F0
sVtag
p929
I0
sVposition
p930
(lp931
F2.4923151362213738
aF4.4471004678805794
aF15.487315220013091
asVmomentum
p932
(lp933
F0
aF0
aF0
asa(dp934
Vmagmom
p935
F0
sVindex
p936
I83
sVsymbol
p937
VPd
p938
sVcharge
p939
F0
sVtag
p940
I0
sVposition
p941
(lp942
F5.9906501058977453
aF8.0090676554474101
aF23.38031169360255
asVmomentum
p943
(lp944
F0
aF0
aF0
asa(dp945
Vmagmom
p946
F0
sVindex
p947
I84
sVsymbol
p948
VPd
p949
sVcharge
p950
F0
sVtag
p951
I0
sVposition
p952
(lp953
F10.654774379975105
aF6.2280840616639956
aF15.487315220013089
asVmomentum
p954
(lp955
F0
aF0
aF0
asa(dp956
Vmagmom
p957
F0
sVindex
p958
I85
sVsymbol
p959
VPd
p960
sVcharge
p961
F0
sVtag
p962
I0
sVposition
p963
(lp964
F9.5778497408705672
aF7.1550283539794979
aF19.701703357953654
asVmomentum
p965
(lp966
F0
aF0
aF0
asa(dp967
Vmagmom
p968
F0
sVindex
p969
I86
sVsymbol
p970
VPd
p971
sVcharge
p972
F0
sVtag
p973
I0
sVposition
p974
(lp975
F1.4153904971168338
aF5.3740447601960826
aF19.701703357953654
asVmomentum
p976
(lp977
F0
aF0
aF0
asa(dp978
Vmagmom
p979
F0
sVindex
p980
I87
sVsymbol
p981
VPd
p982
sVcharge
p983
F0
sVtag
p984
I0
sVposition
p985
(lp986
F2.5811798015178189
aF0.031093978845833981
aF14.966691040161983
asVmomentum
p987
(lp988
F0
aF0
aF0
asa(dp989
Vmagmom
p990
F0
sVindex
p991
I88
sVsymbol
p992
VPd
p993
sVcharge
p994
F0
sVtag
p995
I0
sVposition
p996
(lp997
F6.0795147711941926
aF3.5930611664126673
aF22.859687513751442
asVmomentum
p998
(lp999
F0
aF0
aF0
asa(dp1000
Vmagmom
p1001
F0
sVindex
p1002
I89
sVsymbol
p1003
VPd
p1004
sVcharge
p1005
F0
sVtag
p1006
I0
sVposition
p1007
(lp1008
F10.743639045271548
aF1.812077572629252
aF14.966691040161983
asVmomentum
p1009
(lp1010
F0
aF0
aF0
asa(dp1011
Vmagmom
p1012
F0
sVindex
p1013
I90
sVsymbol
p1014
VPd
p1015
sVcharge
p1016
F0
sVtag
p1017
I0
sVposition
p1018
(lp1019
F4.4154901378349294
aF7.0928403962878281
aF18.500870914036543
asVmomentum
p1020
(lp1021
F0
aF0
aF0
asa(dp1022
Vmagmom
p1023
F0
sVindex
p1024
I91
sVsymbol
p1025
VPd
p1026
sVcharge
p1027
F0
sVtag
p1028
I0
sVposition
p1029
(lp1030
F9.0796144119122868
aF5.3118568025044137
aF21.658855069834331
asVmomentum
p1031
(lp1032
F0
aF0
aF0
asa(dp1033
Vmagmom
p1034
F0
sVindex
p1035
I92
sVsymbol
p1036
VPd
p1037
sVcharge
p1038
F0
sVtag
p1039
I0
sVposition
p1040
(lp1041
F12.577949381588661
aF8.8738239900712479
aF18.50087091403654
asVmomentum
p1042
(lp1043
F0
aF0
aF0
asa(dp1044
Vmagmom
p1045
F0
sVindex
p1046
I93
sVsymbol
p1047
VPd
p1048
sVcharge
p1049
F0
sVtag
p1050
I0
sVposition
p1051
(lp1052
F13.74373868598965
aF3.5308732087210011
aF24.816839225632119
asVmomentum
p1053
(lp1054
F0
aF0
aF0
asa(dp1055
Vmagmom
p1056
F0
sVindex
p1057
I94
sVsymbol
p1058
VPd
p1059
sVcharge
p1060
F0
sVtag
p1061
I0
sVposition
p1062
(lp1063
F5.5812794422359122
aF1.749889614937584
aF13.765858596244872
asVmomentum
p1064
(lp1065
F0
aF0
aF0
asa(dp1066
Vmagmom
p1067
F0
sVindex
p1068
I95
sVsymbol
p1069
VPd
p1070
sVcharge
p1071
F0
sVtag
p1072
I0
sVposition
p1073
(lp1074
F8.0026897728077451
aF6.238801094819916
aF14.822262578387644
asVmomentum
p1075
(lp1076
F0
aF0
aF0
asa(dp1077
Vmagmom
p1078
F0
sVindex
p1079
I96
sVsymbol
p1080
VPd
p1081
sVcharge
p1082
F0
sVtag
p1083
I0
sVposition
p1084
(lp1085
F12.666814046885104
aF4.4578175010365015
aF17.980246734185432
asVmomentum
p1086
(lp1087
F0
aF0
aF0
asa(dp1088
Vmagmom
p1089
F0
sVindex
p1090
I97
sVsymbol
p1091
VPd
p1092
sVcharge
p1093
F0
sVtag
p1094
I0
sVposition
p1095
(lp1096
F3.3385654987303885
aF8.0197846886033304
aF22.715259051977103
asVmomentum
p1097
(lp1098
F0
aF0
aF0
asa(dp1099
Vmagmom
p1100
F0
sVindex
p1101
I98
sVsymbol
p1102
VPd
p1103
sVcharge
p1104
F0
sVtag
p1105
I0
sVposition
p1106
(lp1107
F4.5043548031313705
aF2.6768339072530836
aF17.980246734185435
asVmomentum
p1108
(lp1109
F0
aF0
aF0
asa(dp1110
Vmagmom
p1111
F0
sVindex
p1112
I99
sVsymbol
p1113
VPd
p1114
sVcharge
p1115
F0
sVtag
p1116
I0
sVposition
p1117
(lp1118
F9.168479077208735
aF0.89585031346966915
aF21.138230889983227
asVmomentum
p1119
(lp1120
F0
aF0
aF0
asasVcell
p1121
(lp1122
(lp1123
F12.826583517831091
aF1.5994491681077605e-15
aF3.1579841557977892
aa(lp1124
F2.3325456652753864
aF8.9049179689170774
aF1.5770281619938791
aa(lp1125
F3.1086244689504383e-15
aF-3.5527136788005009e-15
aF33.152941888161756
aasVmass
p1126
F7212.0800000000008
sVpbc
p1127
(lp1128
I01
aI01
aI01
asVspacegroup
p1129
VP-1 (2)
p1130
sVconstraints
p1131
(lp1132
(dp1133
Vname
p1134
VFixAtoms
p1135
sVkwargs
p1136
(dp1137
Vindices
p1138
(lp1139
I0
aI1
aI2
aI5
aI7
aI9
aI10
aI11
aI13
aI15
aI16
aI17
aI20
aI21
aI22
aI27
aI28
aI29
aI30
aI31
aI32
aI35
aI36
aI37
aI40
aI42
aI44
aI45
aI47
aI49
aI52
aI53
aI54
aI55
aI56
aI57
aI60
aI62
aI64
aI65
aI67
aI69
aI70
aI71
aI72
aI77
aI78
aI79
aI80
aI82
aI84
aI85
aI87
aI89
aI90
aI92
aI94
aI95
aI96
aI98
assasaa(lp1140
S'results'
p1141
ag2
((ltRp1142
aa(lp1143
S'user'
p1144
aS'ktran'
p1145
aa(lp1146
S'inserted-hash'
p1147
aS'12acbf4cc3e358c5ea528b9c3ef05a18158717de'
p1148
aa(lp1149
S'ctime'
p1150
acdatetime
datetime
p1151
(S'\x07\xe1\x03\x1f\x13-\x01\x00\xd4\xfa'
tRp1152
aa(lp1153
S'mtime'
p1154
ag1151
(S'\x07\xe1\x03\x1f\x13-\x01\x00\xd5*'
tRp1155
aa(lp1156
S'tags'
p1157
a(dp1158
S'get_slab_settings'
p1159
g2
((lp1160
(lp1161
S'max_broken_bonds'
p1162
aI0
aa(lp1163
S'bonds'
p1164
aNaa(lp1165
S'tol'
p1166
aF0.29999999999999999
aa(lp1167
S'symmetrize'
p1168
aI00
aatRp1169
sS'relaxed'
p1170
I00
sS'mpid'
p1171
Vmp-30594
p1172
sS'shift'
p1173
I0
sS'slab_generate_settings'
p1174
g2
((lp1175
(lp1176
S'primitive'
p1177
aI01
aa(lp1178
S'min_vacuum_size'
p1179
aF20
aa(lp1180
S'lll_reduce'
p1181
aI00
aa(lp1182
S'max_normal_search'
p1183
aI1
aa(lp1184
S'min_slab_size'
p1185
aF7
aa(lp1186
S'center_slab'
p1187
aI01
aatRp1188
sS'miller'
p1189
(I2
I1
I2
tp1190
sS'top'
p1191
I01
sS'type'
p1192
S'slab'
p1193
sS'num_slab_atoms'
p1194
I100
saatRp1195
a.