(lp1
ccollections
OrderedDict
p2
((lp3
(lp4
S'atoms'
p5
a(dp6
Vinfo
p7
(dp8
sVvolume
p9
F709.45237660186501
sVnatoms
p10
I20
sVsymbol_counts
p11
(dp12
VCu
p13
I20
ssVchemical_symbols
p14
(lp15
VCu
p16
asVatoms
p17
(lp18
(dp19
Vmagmom
p20
F0
sVindex
p21
I0
sVsymbol
p22
VCu
p23
sVcharge
p24
F0
sVtag
p25
I0
sVposition
p26
(lp27
F2.557186080512837
aF5.8031086510579906
aF22.852878883744651
asVmomentum
p28
(lp29
F0
aF0
aF0
asa(dp30
Vmagmom
p31
F0
sVindex
p32
I1
sVsymbol
p33
VCu
p34
sVcharge
p35
F0
sVtag
p36
I0
sVposition
p37
(lp38
F1.3989960702701842e-15
aF1.4667197689487219
aF21.951028888332466
asVmomentum
p39
(lp40
F0
aF0
aF0
asa(dp41
Vmagmom
p42
F0
sVindex
p43
I2
sVsymbol
p44
VCu
p45
sVcharge
p46
F0
sVtag
p47
I0
sVposition
p48
(lp49
F3.3594313336363206e-15
aF3.7624550594771562
aF18.16325890760131
asVmomentum
p50
(lp51
F0
aF0
aF0
asa(dp52
Vmagmom
p53
F0
sVindex
p54
I3
sVsymbol
p55
VCu
p56
sVcharge
p57
F0
sVtag
p58
I0
sVposition
p59
(lp60
F1.5830744942360701e-15
aF4.7827818552675723
aF20.508068895672981
asVmomentum
p61
(lp62
F0
aF0
aF0
asa(dp63
Vmagmom
p64
F0
sVindex
p65
I4
sVsymbol
p66
VCu
p67
sVcharge
p68
F0
sVtag
p69
I0
sVposition
p70
(lp71
F1.3989960702701842e-15
aF0.44639297315830806
aF19.606218900260803
asVmomentum
p72
(lp73
F0
aF0
aF0
asa(dp74
Vmagmom
p75
F0
sVindex
p76
I5
sVsymbol
p77
VCu
p78
sVcharge
p79
F0
sVtag
p80
I0
sVposition
p81
(lp82
F1.2785930402564212
aF6.9509762963222039
aF20.958993893379077
asVmomentum
p83
(lp84
F0
aF0
aF0
asa(dp85
Vmagmom
p86
F0
sVindex
p87
I6
sVsymbol
p88
VCu
p89
sVcharge
p90
F0
sVtag
p91
I0
sVposition
p92
(lp93
F1.2785930402564192
aF2.6145874142129397
aF20.057143897966892
asVmomentum
p94
(lp95
F0
aF0
aF0
asa(dp96
Vmagmom
p97
F0
sVindex
p98
I7
sVsymbol
p99
VCu
p100
sVcharge
p101
F0
sVtag
p102
I0
sVposition
p103
(lp104
F1.2785930402564174
aF3.6349142100033527
aF22.401953886038559
asVmomentum
p105
(lp106
F0
aF0
aF0
asa(dp107
Vmagmom
p108
F0
sVindex
p109
I8
sVsymbol
p110
VCu
p111
sVcharge
p112
F0
sVtag
p113
I0
sVposition
p114
(lp115
F1.2785930402564194
aF5.9306495005317874
aF18.614183905307403
asVmomentum
p116
(lp117
F0
aF0
aF0
asa(dp118
Vmagmom
p119
F0
sVindex
p120
I9
sVsymbol
p121
VCu
p122
sVcharge
p123
F0
sVtag
p124
I0
sVposition
p125
(lp126
F1.278593040256419
aF0.31885212368450411
aF23.844913878698048
asVmomentum
p127
(lp128
F0
aF0
aF0
asa(dp129
Vmagmom
p130
F0
sVindex
p131
I10
sVsymbol
p132
VCu
p133
sVcharge
p134
F0
sVtag
p135
I0
sVposition
p136
(lp137
F1.767152918201956e-15
aF7.0785171457960043
aF16.720298914941825
asVmomentum
p138
(lp139
F0
aF0
aF0
asa(dp140
Vmagmom
p141
F0
sVindex
p142
I11
sVsymbol
p143
VCu
p144
sVcharge
p145
F0
sVtag
p146
I0
sVposition
p147
(lp148
F3.3594313336363206e-15
aF2.7421282636867383
aF15.818448919529645
asVmomentum
p149
(lp150
F0
aF0
aF0
asa(dp151
Vmagmom
p152
F0
sVindex
p153
I12
sVsymbol
p154
VCu
p155
sVcharge
p156
F0
sVtag
p157
I0
sVposition
p158
(lp159
F8.7897449850183071e-16
aF5.0378635542151748
aF12.030678938798493
asVmomentum
p160
(lp161
F0
aF0
aF0
asa(dp162
Vmagmom
p163
F0
sVindex
p164
I13
sVsymbol
p165
VCu
p166
sVcharge
p167
F0
sVtag
p168
I0
sVposition
p169
(lp170
F2.5571860805128344
aF6.0581903500055887
aF14.375488926870151
asVmomentum
p171
(lp172
F0
aF0
aF0
asa(dp173
Vmagmom
p174
F0
sVindex
p175
I14
sVsymbol
p176
VCu
p177
sVcharge
p178
F0
sVtag
p179
I0
sVposition
p180
(lp181
F6.9489607453594481e-16
aF1.721801467896324
aF13.473638931457975
asVmomentum
p182
(lp183
F0
aF0
aF0
asa(dp184
Vmagmom
p185
F0
sVindex
p186
I15
sVsymbol
p187
VCu
p188
sVcharge
p189
F0
sVtag
p190
I0
sVposition
p191
(lp192
F1.2785930402564201
aF0.57393382263210846
aF15.367523921823555
asVmomentum
p193
(lp194
F0
aF0
aF0
asa(dp195
Vmagmom
p196
F0
sVindex
p197
I16
sVsymbol
p198
VCu
p199
sVcharge
p200
F0
sVtag
p201
I0
sVposition
p202
(lp203
F1.2785930402564194
aF3.8899959089509579
aF13.924563929164064
asVmomentum
p204
(lp205
F0
aF0
aF0
asa(dp206
Vmagmom
p207
F0
sVindex
p208
I17
sVsymbol
p209
VCu
p210
sVcharge
p211
F0
sVtag
p212
I0
sVposition
p213
(lp214
F1.2785930402564176
aF4.9103227047413718
aF16.269373917235733
asVmomentum
p215
(lp216
F0
aF0
aF0
asa(dp217
Vmagmom
p218
F0
sVindex
p219
I18
sVsymbol
p220
VCu
p221
sVcharge
p222
F0
sVtag
p223
I0
sVposition
p224
(lp225
F1.2785930402564194
aF7.2060579952698056
aF12.481603936504575
asVmomentum
p226
(lp227
F0
aF0
aF0
asa(dp228
Vmagmom
p229
F0
sVindex
p230
I19
sVsymbol
p231
VCu
p232
sVcharge
p233
F0
sVtag
p234
I0
sVposition
p235
(lp236
F1.2785930402564174
aF1.5942606184225268
aF17.712333909895225
asVmomentum
p237
(lp238
F0
aF0
aF0
asasVcell
p239
(lp240
(lp241
F2.5571860805128344
aF-1.1102230246251565e-16
aF2.2204460492503131e-16
aa(lp242
F3.6815684793177195e-16
aF7.6524509684281137
aF-0.54110999724730879
aa(lp243
F-7.36313695863544e-16
aF1.7763568394002505e-15
aF36.254369815569653
aasVmass
p244
F1270.9200000000005
sVpbc
p245
(lp246
I01
aI01
aI01
asVspacegroup
p247
VP2_1/m (11)
p248
sVconstraints
p249
(lp250
(dp251
Vname
p252
VFixAtoms
p253
sVkwargs
p254
(dp255
Vindices
p256
(lp257
I2
aI3
aI4
aI6
aI8
aI10
aI11
aI12
aI13
aI14
aI15
aI16
aI17
aI18
aI19
assasaa(lp258
S'results'
p259
ag2
((ltRp260
aa(lp261
S'user'
p262
aS'ktran'
p263
aa(lp264
S'inserted-hash'
p265
aS'5f4f3c523637f42bae4a070b719dc4047a527c29'
p266
aa(lp267
S'ctime'
p268
acdatetime
datetime
p269
(S'\x07\xe1\x03\x1f\x13)+\n\xb2\xc0'
tRp270
aa(lp271
S'mtime'
p272
ag269
(S'\x07\xe1\x03\x1f\x13)+\n\xb2\xe4'
tRp273
aa(lp274
S'tags'
p275
a(dp276
S'get_slab_settings'
p277
g2
((lp278
(lp279
S'max_broken_bonds'
p280
aI0
aa(lp281
S'bonds'
p282
aNaa(lp283
S'tol'
p284
aF0.29999999999999999
aa(lp285
S'symmetrize'
p286
aI00
aatRp287
sS'relaxed'
p288
I00
sS'mpid'
p289
Vmp-30
p290
sS'shift'
p291
I0
sS'slab_generate_settings'
p292
g2
((lp293
(lp294
S'primitive'
p295
aI01
aa(lp296
S'min_vacuum_size'
p297
aF20
aa(lp298
S'lll_reduce'
p299
aI00
aa(lp300
S'max_normal_search'
p301
aI1
aa(lp302
S'min_slab_size'
p303
aF7
aa(lp304
S'center_slab'
p305
aI01
aatRp306
sS'miller'
p307
(I2
I2
I1
tp308
sS'top'
p309
I01
sS'type'
p310
S'slab'
p311
sS'num_slab_atoms'
p312
I20
saatRp313
a.