(lp1
ccollections
OrderedDict
p2
((lp3
(lp4
S'atoms'
p5
a(dp6
Vinfo
p7
(dp8
sVvolume
p9
F5731.7300987746539
sVnatoms
p10
I112
sVsymbol_counts
p11
(dp12
VCu
p13
I84
sVPd
p14
I28
ssVchemical_symbols
p15
(lp16
VPd
p17
aVCu
p18
asVatoms
p19
(lp20
(dp21
Vmagmom
p22
F0
sVindex
p23
I0
sVsymbol
p24
VCu
p25
sVcharge
p26
F0
sVtag
p27
I0
sVposition
p28
(lp29
F2.2097693645816162e-18
aF0.036088272408340817
aF11.758322816822544
asVmomentum
p30
(lp31
F0
aF0
aF0
asa(dp32
Vmagmom
p33
F0
sVindex
p34
I1
sVsymbol
p35
VCu
p36
sVcharge
p37
F0
sVtag
p38
I0
sVposition
p39
(lp40
F1.5862624747799411e-15
aF25.905632152623259
aF11.758322816822547
asVmomentum
p41
(lp42
F0
aF0
aF0
asa(dp43
Vmagmom
p44
F0
sVindex
p45
I2
sVsymbol
p46
VCu
p47
sVcharge
p48
F0
sVtag
p49
I0
sVposition
p50
(lp51
F1.1315050681778952e-15
aF18.478880097766854
aF11.758322816822545
asVmomentum
p52
(lp53
F0
aF0
aF0
asa(dp54
Vmagmom
p55
F0
sVindex
p56
I3
sVsymbol
p57
VCu
p58
sVcharge
p59
F0
sVtag
p60
I0
sVposition
p61
(lp62
F2.7155577735932546e-15
aF44.348423977981767
aF8.0370758918004555
asVmomentum
p63
(lp64
F0
aF0
aF0
asa(dp65
Vmagmom
p66
F0
sVindex
p67
I4
sVsymbol
p68
VCu
p69
sVcharge
p70
F0
sVtag
p71
I0
sVposition
p72
(lp73
F1.8606234625110472
aF9.3377437982373621
aF11.758322816822544
asVmomentum
p74
(lp75
F0
aF0
aF0
asa(dp76
Vmagmom
p77
F0
sVindex
p78
I5
sVsymbol
p79
VCu
p80
sVcharge
p81
F0
sVtag
p82
I0
sVposition
p83
(lp84
F1.8606234625110487
aF35.207287678452275
aF11.758322816822545
asVmomentum
p85
(lp86
F0
aF0
aF0
asa(dp87
Vmagmom
p88
F0
sVindex
p89
I6
sVsymbol
p90
VCu
p91
sVcharge
p92
F0
sVtag
p93
I0
sVposition
p94
(lp95
F1.8606234625110467
aF1.9101297701788702
aF11.758322816822544
asVmomentum
p96
(lp97
F0
aF0
aF0
asa(dp98
Vmagmom
p99
F0
sVindex
p100
I7
sVsymbol
p101
VCu
p102
sVcharge
p103
F0
sVtag
p104
I0
sVposition
p105
(lp106
F1.8606234625110483
aF27.779673650393786
aF11.758322816822547
asVmomentum
p107
(lp108
F0
aF0
aF0
asa(dp109
Vmagmom
p110
F0
sVindex
p111
I8
sVsymbol
p112
VCu
p113
sVcharge
p114
F0
sVtag
p115
I0
sVposition
p116
(lp117
F5.7177190268847127e-16
aF9.3377437982373586
aF13.61894627933359
asVmomentum
p118
(lp119
F0
aF0
aF0
asa(dp120
Vmagmom
p121
F0
sVindex
p122
I9
sVsymbol
p123
VCu
p124
sVcharge
p125
F0
sVtag
p126
I0
sVposition
p127
(lp128
F2.1558246081038308e-15
aF35.207287678452275
aF9.8976993543114986
asVmomentum
p129
(lp130
F0
aF0
aF0
asa(dp131
Vmagmom
p132
F0
sVindex
p133
I10
sVsymbol
p134
VCu
p135
sVcharge
p136
F0
sVtag
p137
I0
sVposition
p138
(lp139
F1.8606234625110472
aF11.165264612638977
aF13.618946279333592
asVmomentum
p140
(lp141
F0
aF0
aF0
asa(dp142
Vmagmom
p143
F0
sVindex
p144
I11
sVsymbol
p145
VCu
p146
sVcharge
p147
F0
sVtag
p148
I0
sVposition
p149
(lp150
F1.8606234625110487
aF37.034808492853891
aF9.8976993543115004
asVmomentum
p151
(lp152
F0
aF0
aF0
asa(dp153
Vmagmom
p154
F0
sVindex
p155
I12
sVsymbol
p156
VCu
p157
sVcharge
p158
F0
sVtag
p159
I0
sVposition
p160
(lp161
F1.1696171545028094e-16
aF1.9101297701788673
aF13.61894627933359
asVmomentum
p162
(lp163
F0
aF0
aF0
asa(dp164
Vmagmom
p165
F0
sVindex
p166
I13
sVsymbol
p167
VCu
p168
sVcharge
p169
F0
sVtag
p170
I0
sVposition
p171
(lp172
F1.7010144208656405e-15
aF27.779673650393786
aF9.8976993543114986
asVmomentum
p173
(lp174
F0
aF0
aF0
asa(dp175
Vmagmom
p176
F0
sVindex
p177
I14
sVsymbol
p178
VCu
p179
sVcharge
p180
F0
sVtag
p181
I0
sVposition
p182
(lp183
F3.4592436849329358e-16
aF5.6493736599669333
aF13.61894627933359
asVmomentum
p184
(lp185
F0
aF0
aF0
asa(dp186
Vmagmom
p187
F0
sVindex
p188
I15
sVsymbol
p189
VCu
p190
sVcharge
p191
F0
sVtag
p192
I0
sVposition
p193
(lp194
F1.9299770739086531e-15
aF31.51891754018185
aF9.8976993543114986
asVmomentum
p195
(lp196
F0
aF0
aF0
asa(dp197
Vmagmom
p198
F0
sVindex
p199
I16
sVsymbol
p200
VCu
p201
sVcharge
p202
F0
sVtag
p203
I0
sVposition
p204
(lp205
F1.8606234625110476
aF16.633973915095972
aF11.758322816822547
asVmomentum
p206
(lp207
F0
aF0
aF0
asa(dp208
Vmagmom
p209
F0
sVindex
p210
I17
sVsymbol
p211
VCu
p212
sVcharge
p213
F0
sVtag
p214
I0
sVposition
p215
(lp216
F1.8606234625110492
aF42.503517795310898
aF11.758322816822547
asVmomentum
p217
(lp218
F0
aF0
aF0
asa(dp219
Vmagmom
p220
F0
sVindex
p221
I18
sVsymbol
p222
VCu
p223
sVcharge
p224
F0
sVtag
p225
I0
sVposition
p226
(lp227
F1.2447097907835796e-15
aF20.327653518552374
aF9.8976993543115004
asVmomentum
p228
(lp229
F0
aF0
aF0
asa(dp230
Vmagmom
p231
F0
sVindex
p232
I19
sVsymbol
p233
VCu
p234
sVcharge
p235
F0
sVtag
p236
I0
sVposition
p237
(lp238
F2.8287624961989394e-15
aF46.197197398767294
aF9.8976993543115022
asVmomentum
p239
(lp240
F0
aF0
aF0
asa(dp241
Vmagmom
p242
F0
sVindex
p243
I20
sVsymbol
p244
VCu
p245
sVcharge
p246
F0
sVtag
p247
I0
sVposition
p248
(lp249
F1.8606234625110474
aF12.979332488136572
aF11.758322816822544
asVmomentum
p250
(lp251
F0
aF0
aF0
asa(dp252
Vmagmom
p253
F0
sVindex
p254
I21
sVsymbol
p255
VCu
p256
sVcharge
p257
F0
sVtag
p258
I0
sVposition
p259
(lp260
F1.8606234625110489
aF38.848876368351483
aF11.758322816822547
asVmomentum
p261
(lp262
F0
aF0
aF0
asa(dp263
Vmagmom
p264
F0
sVindex
p265
I22
sVsymbol
p266
VCu
p267
sVcharge
p268
F0
sVtag
p269
I0
sVposition
p270
(lp271
F1.4722286906692955e-15
aF24.043319129961695
aF9.8976993543115004
asVmomentum
p272
(lp273
F0
aF0
aF0
asa(dp274
Vmagmom
p275
F0
sVindex
p276
I23
sVsymbol
p277
VCu
p278
sVcharge
p279
F0
sVtag
p280
I0
sVposition
p281
(lp282
F3.0562813960846555e-15
aF49.912863010176622
aF9.8976993543115022
asVmomentum
p283
(lp284
F0
aF0
aF0
asa(dp285
Vmagmom
p286
F0
sVindex
p287
I24
sVsymbol
p288
VCu
p289
sVcharge
p290
F0
sVtag
p291
I0
sVposition
p292
(lp293
F1.860623462511048
aF24.043319129961699
aF11.758322816822547
asVmomentum
p294
(lp295
F0
aF0
aF0
asa(dp296
Vmagmom
p297
F0
sVindex
p298
I25
sVsymbol
p299
VCu
p300
sVcharge
p301
F0
sVtag
p302
I0
sVposition
p303
(lp304
F1.8606234625110496
aF49.912863010176622
aF8.0370758918004555
asVmomentum
p305
(lp306
F0
aF0
aF0
asa(dp307
Vmagmom
p308
F0
sVindex
p309
I26
sVsymbol
p310
VCu
p311
sVcharge
p312
F0
sVtag
p313
I0
sVposition
p314
(lp315
F1.8606234625110469
aF7.5109341375970127
aF13.618946279333592
asVmomentum
p316
(lp317
F0
aF0
aF0
asa(dp318
Vmagmom
p319
F0
sVindex
p320
I27
sVsymbol
p321
VCu
p322
sVcharge
p323
F0
sVtag
p324
I0
sVposition
p325
(lp326
F1.8606234625110485
aF33.380478017811932
aF9.8976993543115022
asVmomentum
p327
(lp328
F0
aF0
aF0
asa(dp329
Vmagmom
p330
F0
sVindex
p331
I28
sVsymbol
p332
VCu
p333
sVcharge
p334
F0
sVtag
p335
I0
sVposition
p336
(lp337
F1.0185371456111423e-15
aF16.633973915095972
aF13.618946279333594
asVmomentum
p338
(lp339
F0
aF0
aF0
asa(dp340
Vmagmom
p341
F0
sVindex
p342
I29
sVsymbol
p343
VCu
p344
sVcharge
p345
F0
sVtag
p346
I0
sVposition
p347
(lp348
F2.6025898510265025e-15
aF42.503517795310898
aF9.8976993543115004
asVmomentum
p349
(lp350
F0
aF0
aF0
asa(dp351
Vmagmom
p352
F0
sVindex
p353
I30
sVsymbol
p354
VCu
p355
sVcharge
p356
F0
sVtag
p357
I0
sVposition
p358
(lp359
F1.8606234625110478
aF20.327653518552378
aF11.758322816822547
asVmomentum
p360
(lp361
F0
aF0
aF0
asa(dp362
Vmagmom
p363
F0
sVindex
p364
I31
sVsymbol
p365
VCu
p366
sVcharge
p367
F0
sVtag
p368
I0
sVposition
p369
(lp370
F1.8606234625110494
aF46.197197398767294
aF8.0370758918004555
asVmomentum
p371
(lp372
F0
aF0
aF0
asa(dp373
Vmagmom
p374
F0
sVindex
p375
I32
sVsymbol
p376
VCu
p377
sVcharge
p378
F0
sVtag
p379
I0
sVposition
p380
(lp381
F1.3578469377008518e-15
aF22.175323344595977
aF11.758322816822547
asVmomentum
p382
(lp383
F0
aF0
aF0
asa(dp384
Vmagmom
p385
F0
sVindex
p386
I33
sVsymbol
p387
VCu
p388
sVcharge
p389
F0
sVtag
p390
I0
sVposition
p391
(lp392
F2.9418996431162112e-15
aF48.044867224810893
aF8.0370758918004572
asVmomentum
p393
(lp394
F0
aF0
aF0
asa(dp395
Vmagmom
p396
F0
sVindex
p397
I34
sVsymbol
p398
VCu
p399
sVcharge
p400
F0
sVtag
p401
I0
sVposition
p402
(lp403
F1.8606234625110467
aF3.7807086295010301
aF13.618946279333592
asVmomentum
p404
(lp405
F0
aF0
aF0
asa(dp406
Vmagmom
p407
F0
sVindex
p408
I35
sVsymbol
p409
VCu
p410
sVcharge
p411
F0
sVtag
p412
I0
sVposition
p413
(lp414
F1.8606234625110483
aF29.650252509715948
aF9.8976993543115004
asVmomentum
p415
(lp416
F0
aF0
aF0
asa(dp417
Vmagmom
p418
F0
sVindex
p419
I36
sVsymbol
p420
VCu
p421
sVcharge
p422
F0
sVtag
p423
I0
sVposition
p424
(lp425
F7.9475489933328489e-16
aF12.979332488136571
aF13.61894627933359
asVmomentum
p426
(lp427
F0
aF0
aF0
asa(dp428
Vmagmom
p429
F0
sVindex
p430
I37
sVsymbol
p431
VCu
p432
sVcharge
p433
F0
sVtag
p434
I0
sVposition
p435
(lp436
F2.3788076047486442e-15
aF38.848876368351483
aF9.8976993543115004
asVmomentum
p437
(lp438
F0
aF0
aF0
asa(dp439
Vmagmom
p440
F0
sVindex
p441
I38
sVsymbol
p442
VCu
p443
sVcharge
p444
F0
sVtag
p445
I0
sVposition
p446
(lp447
F1.8606234625110469
aF5.649373659966936
aF11.758322816822544
asVmomentum
p448
(lp449
F0
aF0
aF0
asa(dp450
Vmagmom
p451
F0
sVindex
p452
I39
sVsymbol
p453
VCu
p454
sVcharge
p455
F0
sVtag
p456
I0
sVposition
p457
(lp458
F1.8606234625110485
aF31.51891754018185
aF11.758322816822547
asVmomentum
p459
(lp460
F0
aF0
aF0
asa(dp461
Vmagmom
p462
F0
sVindex
p463
I40
sVsymbol
p464
VCu
p465
sVcharge
p466
F0
sVtag
p467
I0
sVposition
p468
(lp469
F9.060555272249522e-16
aF14.797009682396322
aF11.758322816822547
asVmomentum
p470
(lp471
F0
aF0
aF0
asa(dp472
Vmagmom
p473
F0
sVindex
p474
I41
sVsymbol
p475
VCu
p476
sVcharge
p477
F0
sVtag
p478
I0
sVposition
p479
(lp480
F2.490108232640312e-15
aF40.666553562611242
aF11.758322816822549
asVmomentum
p481
(lp482
F0
aF0
aF0
asa(dp483
Vmagmom
p484
F0
sVindex
p485
I42
sVsymbol
p486
VPd
p487
sVcharge
p488
F0
sVtag
p489
I0
sVposition
p490
(lp491
F1.8606234625110474
aF14.8008590705257
aF13.618946279333594
asVmomentum
p492
(lp493
F0
aF0
aF0
asa(dp494
Vmagmom
p495
F0
sVindex
p496
I43
sVsymbol
p497
VPd
p498
sVcharge
p499
F0
sVtag
p500
I0
sVposition
p501
(lp502
F1.8606234625110489
aF40.670402950740609
aF9.8976993543115022
asVmomentum
p503
(lp504
F0
aF0
aF0
asa(dp505
Vmagmom
p506
F0
sVindex
p507
I44
sVsymbol
p508
VPd
p509
sVcharge
p510
F0
sVtag
p511
I0
sVposition
p512
(lp513
F1.8606234625110478
aF22.18713848267695
aF9.8976993543115004
asVmomentum
p514
(lp515
F0
aF0
aF0
asa(dp516
Vmagmom
p517
F0
sVindex
p518
I45
sVsymbol
p519
VPd
p520
sVcharge
p521
F0
sVtag
p522
I0
sVposition
p523
(lp524
F1.8606234625110494
aF48.056682362891863
aF9.8976993543115022
asVmomentum
p525
(lp526
F0
aF0
aF0
asa(dp527
Vmagmom
p528
F0
sVindex
p529
I46
sVsymbol
p530
VPd
p531
sVcharge
p532
F0
sVtag
p533
I0
sVposition
p534
(lp535
F4.591892692612576e-16
aF7.4991298647244751
aF11.758322816822545
asVmomentum
p536
(lp537
F0
aF0
aF0
asa(dp538
Vmagmom
p539
F0
sVindex
p540
I47
sVsymbol
p541
VPd
p542
sVcharge
p543
F0
sVtag
p544
I0
sVposition
p545
(lp546
F2.0432419746766168e-15
aF33.368673744939386
aF11.758322816822547
asVmomentum
p547
(lp548
F0
aF0
aF0
asa(dp549
Vmagmom
p550
F0
sVindex
p551
I48
sVsymbol
p552
VPd
p553
sVcharge
p554
F0
sVtag
p555
I0
sVposition
p556
(lp557
F2.3142709056104392e-16
aF3.77949120876603
aF11.758322816822545
asVmomentum
p558
(lp559
F0
aF0
aF0
asa(dp560
Vmagmom
p561
F0
sVindex
p562
I49
sVsymbol
p563
VPd
p564
sVcharge
p565
F0
sVtag
p566
I0
sVposition
p567
(lp568
F1.8154797959764036e-15
aF29.649035088980952
aF11.758322816822547
asVmomentum
p569
(lp570
F0
aF0
aF0
asa(dp571
Vmagmom
p572
F0
sVindex
p573
I50
sVsymbol
p574
VPd
p575
sVcharge
p576
F0
sVtag
p577
I0
sVposition
p578
(lp579
F6.8374589554468416e-16
aF11.166417876905159
aF11.758322816822545
asVmomentum
p580
(lp581
F0
aF0
aF0
asa(dp582
Vmagmom
p583
F0
sVindex
p584
I51
sVsymbol
p585
VPd
p586
sVcharge
p587
F0
sVtag
p588
I0
sVposition
p589
(lp590
F2.2677986009600439e-15
aF37.035961757120077
aF11.758322816822547
asVmomentum
p591
(lp592
F0
aF0
aF0
asa(dp593
Vmagmom
p594
F0
sVindex
p595
I52
sVsymbol
p596
VPd
p597
sVcharge
p598
F0
sVtag
p599
I0
sVposition
p600
(lp601
F1.8606234625110465
aF0.043075636210385425
aF13.618946279333592
asVmomentum
p602
(lp603
F0
aF0
aF0
asa(dp604
Vmagmom
p605
F0
sVindex
p606
I53
sVsymbol
p607
VPd
p608
sVcharge
p609
F0
sVtag
p610
I0
sVposition
p611
(lp612
F1.860623462511048
aF25.912619516425298
aF9.8976993543115022
asVmomentum
p613
(lp614
F0
aF0
aF0
asa(dp615
Vmagmom
p616
F0
sVindex
p617
I54
sVsymbol
p618
VPd
p619
sVcharge
p620
F0
sVtag
p621
I0
sVposition
p622
(lp623
F1.8606234625110476
aF18.473721193326252
aF9.8976993543115004
asVmomentum
p624
(lp625
F0
aF0
aF0
asa(dp626
Vmagmom
p627
F0
sVindex
p628
I55
sVsymbol
p629
VPd
p630
sVcharge
p631
F0
sVtag
p632
I0
sVposition
p633
(lp634
F1.8606234625110492
aF44.343265073541161
aF9.8976993543115022
asVmomentum
p635
(lp636
F0
aF0
aF0
asa(dp637
Vmagmom
p638
F0
sVindex
p639
I56
sVsymbol
p640
VCu
p641
sVcharge
p642
F0
sVtag
p643
I0
sVposition
p644
(lp645
F2.2097693645816158e-18
aF0.036088272408340817
aF15.479569741844639
asVmomentum
p646
(lp647
F0
aF0
aF0
asa(dp648
Vmagmom
p649
F0
sVindex
p650
I57
sVsymbol
p651
VCu
p652
sVcharge
p653
F0
sVtag
p654
I0
sVposition
p655
(lp656
F1.5862624747799411e-15
aF25.905632152623259
aF15.479569741844644
asVmomentum
p657
(lp658
F0
aF0
aF0
asa(dp659
Vmagmom
p660
F0
sVindex
p661
I58
sVsymbol
p662
VCu
p663
sVcharge
p664
F0
sVtag
p665
I0
sVposition
p666
(lp667
F1.1315050681778952e-15
aF18.478880097766854
aF15.479569741844642
asVmomentum
p668
(lp669
F0
aF0
aF0
asa(dp670
Vmagmom
p671
F0
sVindex
p672
I59
sVsymbol
p673
VCu
p674
sVcharge
p675
F0
sVtag
p676
I0
sVposition
p677
(lp678
F2.7155577735932546e-15
aF44.348423977981767
aF11.758322816822549
asVmomentum
p679
(lp680
F0
aF0
aF0
asa(dp681
Vmagmom
p682
F0
sVindex
p683
I60
sVsymbol
p684
VCu
p685
sVcharge
p686
F0
sVtag
p687
I0
sVposition
p688
(lp689
F1.8606234625110472
aF9.3377437982373621
aF15.479569741844639
asVmomentum
p690
(lp691
F0
aF0
aF0
asa(dp692
Vmagmom
p693
F0
sVindex
p694
I61
sVsymbol
p695
VCu
p696
sVcharge
p697
F0
sVtag
p698
I0
sVposition
p699
(lp700
F1.8606234625110487
aF35.207287678452275
aF15.479569741844641
asVmomentum
p701
(lp702
F0
aF0
aF0
asa(dp703
Vmagmom
p704
F0
sVindex
p705
I62
sVsymbol
p706
VCu
p707
sVcharge
p708
F0
sVtag
p709
I0
sVposition
p710
(lp711
F1.8606234625110467
aF1.9101297701788702
aF15.479569741844637
asVmomentum
p712
(lp713
F0
aF0
aF0
asa(dp714
Vmagmom
p715
F0
sVindex
p716
I63
sVsymbol
p717
VCu
p718
sVcharge
p719
F0
sVtag
p720
I0
sVposition
p721
(lp722
F1.8606234625110483
aF27.779673650393786
aF15.479569741844641
asVmomentum
p723
(lp724
F0
aF0
aF0
asa(dp725
Vmagmom
p726
F0
sVindex
p727
I64
sVsymbol
p728
VCu
p729
sVcharge
p730
F0
sVtag
p731
I0
sVposition
p732
(lp733
F5.7177190268847137e-16
aF9.3377437982373586
aF17.340193204355685
asVmomentum
p734
(lp735
F0
aF0
aF0
asa(dp736
Vmagmom
p737
F0
sVindex
p738
I65
sVsymbol
p739
VCu
p740
sVcharge
p741
F0
sVtag
p742
I0
sVposition
p743
(lp744
F2.1558246081038308e-15
aF35.207287678452275
aF13.618946279333594
asVmomentum
p745
(lp746
F0
aF0
aF0
asa(dp747
Vmagmom
p748
F0
sVindex
p749
I66
sVsymbol
p750
VCu
p751
sVcharge
p752
F0
sVtag
p753
I0
sVposition
p754
(lp755
F1.8606234625110472
aF11.165264612638978
aF17.340193204355682
asVmomentum
p756
(lp757
F0
aF0
aF0
asa(dp758
Vmagmom
p759
F0
sVindex
p760
I67
sVsymbol
p761
VCu
p762
sVcharge
p763
F0
sVtag
p764
I0
sVposition
p765
(lp766
F1.8606234625110487
aF37.034808492853891
aF13.618946279333592
asVmomentum
p767
(lp768
F0
aF0
aF0
asa(dp769
Vmagmom
p770
F0
sVindex
p771
I68
sVsymbol
p772
VCu
p773
sVcharge
p774
F0
sVtag
p775
I0
sVposition
p776
(lp777
F1.1696171545028094e-16
aF1.9101297701788673
aF17.340193204355685
asVmomentum
p778
(lp779
F0
aF0
aF0
asa(dp780
Vmagmom
p781
F0
sVindex
p782
I69
sVsymbol
p783
VCu
p784
sVcharge
p785
F0
sVtag
p786
I0
sVposition
p787
(lp788
F1.7010144208656405e-15
aF27.779673650393786
aF13.618946279333592
asVmomentum
p789
(lp790
F0
aF0
aF0
asa(dp791
Vmagmom
p792
F0
sVindex
p793
I70
sVsymbol
p794
VCu
p795
sVcharge
p796
F0
sVtag
p797
I0
sVposition
p798
(lp799
F3.4592436849329358e-16
aF5.6493736599669333
aF17.340193204355682
asVmomentum
p800
(lp801
F0
aF0
aF0
asa(dp802
Vmagmom
p803
F0
sVindex
p804
I71
sVsymbol
p805
VCu
p806
sVcharge
p807
F0
sVtag
p808
I0
sVposition
p809
(lp810
F1.9299770739086531e-15
aF31.51891754018185
aF13.618946279333592
asVmomentum
p811
(lp812
F0
aF0
aF0
asa(dp813
Vmagmom
p814
F0
sVindex
p815
I72
sVsymbol
p816
VCu
p817
sVcharge
p818
F0
sVtag
p819
I0
sVposition
p820
(lp821
F1.8606234625110476
aF16.633973915095972
aF15.479569741844641
asVmomentum
p822
(lp823
F0
aF0
aF0
asa(dp824
Vmagmom
p825
F0
sVindex
p826
I73
sVsymbol
p827
VCu
p828
sVcharge
p829
F0
sVtag
p830
I0
sVposition
p831
(lp832
F1.8606234625110492
aF42.503517795310898
aF15.479569741844641
asVmomentum
p833
(lp834
F0
aF0
aF0
asa(dp835
Vmagmom
p836
F0
sVindex
p837
I74
sVsymbol
p838
VCu
p839
sVcharge
p840
F0
sVtag
p841
I0
sVposition
p842
(lp843
F1.2447097907835796e-15
aF20.327653518552374
aF13.618946279333594
asVmomentum
p844
(lp845
F0
aF0
aF0
asa(dp846
Vmagmom
p847
F0
sVindex
p848
I75
sVsymbol
p849
VCu
p850
sVcharge
p851
F0
sVtag
p852
I0
sVposition
p853
(lp854
F2.8287624961989394e-15
aF46.197197398767294
aF13.618946279333597
asVmomentum
p855
(lp856
F0
aF0
aF0
asa(dp857
Vmagmom
p858
F0
sVindex
p859
I76
sVsymbol
p860
VCu
p861
sVcharge
p862
F0
sVtag
p863
I0
sVposition
p864
(lp865
F1.8606234625110474
aF12.979332488136572
aF15.479569741844639
asVmomentum
p866
(lp867
F0
aF0
aF0
asa(dp868
Vmagmom
p869
F0
sVindex
p870
I77
sVsymbol
p871
VCu
p872
sVcharge
p873
F0
sVtag
p874
I0
sVposition
p875
(lp876
F1.8606234625110489
aF38.848876368351483
aF15.479569741844642
asVmomentum
p877
(lp878
F0
aF0
aF0
asa(dp879
Vmagmom
p880
F0
sVindex
p881
I78
sVsymbol
p882
VCu
p883
sVcharge
p884
F0
sVtag
p885
I0
sVposition
p886
(lp887
F1.4722286906692955e-15
aF24.043319129961695
aF13.618946279333596
asVmomentum
p888
(lp889
F0
aF0
aF0
asa(dp890
Vmagmom
p891
F0
sVindex
p892
I79
sVsymbol
p893
VCu
p894
sVcharge
p895
F0
sVtag
p896
I0
sVposition
p897
(lp898
F3.0562813960846555e-15
aF49.912863010176622
aF13.618946279333597
asVmomentum
p899
(lp900
F0
aF0
aF0
asa(dp901
Vmagmom
p902
F0
sVindex
p903
I80
sVsymbol
p904
VCu
p905
sVcharge
p906
F0
sVtag
p907
I0
sVposition
p908
(lp909
F1.860623462511048
aF24.043319129961699
aF15.479569741844642
asVmomentum
p910
(lp911
F0
aF0
aF0
asa(dp912
Vmagmom
p913
F0
sVindex
p914
I81
sVsymbol
p915
VCu
p916
sVcharge
p917
F0
sVtag
p918
I0
sVposition
p919
(lp920
F1.8606234625110496
aF49.912863010176622
aF11.758322816822551
asVmomentum
p921
(lp922
F0
aF0
aF0
asa(dp923
Vmagmom
p924
F0
sVindex
p925
I82
sVsymbol
p926
VCu
p927
sVcharge
p928
F0
sVtag
p929
I0
sVposition
p930
(lp931
F1.8606234625110469
aF7.5109341375970127
aF17.340193204355685
asVmomentum
p932
(lp933
F0
aF0
aF0
asa(dp934
Vmagmom
p935
F0
sVindex
p936
I83
sVsymbol
p937
VCu
p938
sVcharge
p939
F0
sVtag
p940
I0
sVposition
p941
(lp942
F1.8606234625110485
aF33.380478017811932
aF13.618946279333596
asVmomentum
p943
(lp944
F0
aF0
aF0
asa(dp945
Vmagmom
p946
F0
sVindex
p947
I84
sVsymbol
p948
VCu
p949
sVcharge
p950
F0
sVtag
p951
I0
sVposition
p952
(lp953
F1.0185371456111423e-15
aF16.633973915095972
aF17.340193204355685
asVmomentum
p954
(lp955
F0
aF0
aF0
asa(dp956
Vmagmom
p957
F0
sVindex
p958
I85
sVsymbol
p959
VCu
p960
sVcharge
p961
F0
sVtag
p962
I0
sVposition
p963
(lp964
F2.6025898510265025e-15
aF42.503517795310898
aF13.618946279333594
asVmomentum
p965
(lp966
F0
aF0
aF0
asa(dp967
Vmagmom
p968
F0
sVindex
p969
I86
sVsymbol
p970
VCu
p971
sVcharge
p972
F0
sVtag
p973
I0
sVposition
p974
(lp975
F1.8606234625110478
aF20.327653518552378
aF15.479569741844642
asVmomentum
p976
(lp977
F0
aF0
aF0
asa(dp978
Vmagmom
p979
F0
sVindex
p980
I87
sVsymbol
p981
VCu
p982
sVcharge
p983
F0
sVtag
p984
I0
sVposition
p985
(lp986
F1.8606234625110494
aF46.197197398767294
aF11.758322816822549
asVmomentum
p987
(lp988
F0
aF0
aF0
asa(dp989
Vmagmom
p990
F0
sVindex
p991
I88
sVsymbol
p992
VCu
p993
sVcharge
p994
F0
sVtag
p995
I0
sVposition
p996
(lp997
F1.3578469377008518e-15
aF22.175323344595977
aF15.479569741844641
asVmomentum
p998
(lp999
F0
aF0
aF0
asa(dp1000
Vmagmom
p1001
F0
sVindex
p1002
I89
sVsymbol
p1003
VCu
p1004
sVcharge
p1005
F0
sVtag
p1006
I0
sVposition
p1007
(lp1008
F2.9418996431162112e-15
aF48.044867224810893
aF11.758322816822551
asVmomentum
p1009
(lp1010
F0
aF0
aF0
asa(dp1011
Vmagmom
p1012
F0
sVindex
p1013
I90
sVsymbol
p1014
VCu
p1015
sVcharge
p1016
F0
sVtag
p1017
I0
sVposition
p1018
(lp1019
F1.8606234625110467
aF3.7807086295010297
aF17.340193204355689
asVmomentum
p1020
(lp1021
F0
aF0
aF0
asa(dp1022
Vmagmom
p1023
F0
sVindex
p1024
I91
sVsymbol
p1025
VCu
p1026
sVcharge
p1027
F0
sVtag
p1028
I0
sVposition
p1029
(lp1030
F1.8606234625110483
aF29.650252509715948
aF13.618946279333596
asVmomentum
p1031
(lp1032
F0
aF0
aF0
asa(dp1033
Vmagmom
p1034
F0
sVindex
p1035
I92
sVsymbol
p1036
VCu
p1037
sVcharge
p1038
F0
sVtag
p1039
I0
sVposition
p1040
(lp1041
F7.9475489933328489e-16
aF12.979332488136569
aF17.340193204355685
asVmomentum
p1042
(lp1043
F0
aF0
aF0
asa(dp1044
Vmagmom
p1045
F0
sVindex
p1046
I93
sVsymbol
p1047
VCu
p1048
sVcharge
p1049
F0
sVtag
p1050
I0
sVposition
p1051
(lp1052
F2.3788076047486442e-15
aF38.848876368351483
aF13.618946279333594
asVmomentum
p1053
(lp1054
F0
aF0
aF0
asa(dp1055
Vmagmom
p1056
F0
sVindex
p1057
I94
sVsymbol
p1058
VCu
p1059
sVcharge
p1060
F0
sVtag
p1061
I0
sVposition
p1062
(lp1063
F1.8606234625110469
aF5.649373659966936
aF15.479569741844637
asVmomentum
p1064
(lp1065
F0
aF0
aF0
asa(dp1066
Vmagmom
p1067
F0
sVindex
p1068
I95
sVsymbol
p1069
VCu
p1070
sVcharge
p1071
F0
sVtag
p1072
I0
sVposition
p1073
(lp1074
F1.8606234625110485
aF31.51891754018185
aF15.479569741844637
asVmomentum
p1075
(lp1076
F0
aF0
aF0
asa(dp1077
Vmagmom
p1078
F0
sVindex
p1079
I96
sVsymbol
p1080
VCu
p1081
sVcharge
p1082
F0
sVtag
p1083
I0
sVposition
p1084
(lp1085
F9.060555272249524e-16
aF14.797009682396322
aF15.479569741844641
asVmomentum
p1086
(lp1087
F0
aF0
aF0
asa(dp1088
Vmagmom
p1089
F0
sVindex
p1090
I97
sVsymbol
p1091
VCu
p1092
sVcharge
p1093
F0
sVtag
p1094
I0
sVposition
p1095
(lp1096
F2.490108232640312e-15
aF40.666553562611242
aF15.479569741844642
asVmomentum
p1097
(lp1098
F0
aF0
aF0
asa(dp1099
Vmagmom
p1100
F0
sVindex
p1101
I98
sVsymbol
p1102
VPd
p1103
sVcharge
p1104
F0
sVtag
p1105
I0
sVposition
p1106
(lp1107
F1.8606234625110474
aF14.8008590705257
aF17.340193204355685
asVmomentum
p1108
(lp1109
F0
aF0
aF0
asa(dp1110
Vmagmom
p1111
F0
sVindex
p1112
I99
sVsymbol
p1113
VPd
p1114
sVcharge
p1115
F0
sVtag
p1116
I0
sVposition
p1117
(lp1118
F1.8606234625110489
aF40.670402950740609
aF13.618946279333594
asVmomentum
p1119
(lp1120
F0
aF0
aF0
asa(dp1121
Vmagmom
p1122
F0
sVindex
p1123
I100
sVsymbol
p1124
VPd
p1125
sVcharge
p1126
F0
sVtag
p1127
I0
sVposition
p1128
(lp1129
F1.8606234625110478
aF22.18713848267695
aF13.618946279333594
asVmomentum
p1130
(lp1131
F0
aF0
aF0
asa(dp1132
Vmagmom
p1133
F0
sVindex
p1134
I101
sVsymbol
p1135
VPd
p1136
sVcharge
p1137
F0
sVtag
p1138
I0
sVposition
p1139
(lp1140
F1.8606234625110494
aF48.056682362891863
aF13.618946279333597
asVmomentum
p1141
(lp1142
F0
aF0
aF0
asa(dp1143
Vmagmom
p1144
F0
sVindex
p1145
I102
sVsymbol
p1146
VPd
p1147
sVcharge
p1148
F0
sVtag
p1149
I0
sVposition
p1150
(lp1151
F4.591892692612575e-16
aF7.4991298647244751
aF15.479569741844641
asVmomentum
p1152
(lp1153
F0
aF0
aF0
asa(dp1154
Vmagmom
p1155
F0
sVindex
p1156
I103
sVsymbol
p1157
VPd
p1158
sVcharge
p1159
F0
sVtag
p1160
I0
sVposition
p1161
(lp1162
F2.0432419746766168e-15
aF33.368673744939386
aF15.479569741844642
asVmomentum
p1163
(lp1164
F0
aF0
aF0
asa(dp1165
Vmagmom
p1166
F0
sVindex
p1167
I104
sVsymbol
p1168
VPd
p1169
sVcharge
p1170
F0
sVtag
p1171
I0
sVposition
p1172
(lp1173
F2.3142709056104392e-16
aF3.77949120876603
aF15.479569741844641
asVmomentum
p1174
(lp1175
F0
aF0
aF0
asa(dp1176
Vmagmom
p1177
F0
sVindex
p1178
I105
sVsymbol
p1179
VPd
p1180
sVcharge
p1181
F0
sVtag
p1182
I0
sVposition
p1183
(lp1184
F1.8154797959764036e-15
aF29.649035088980952
aF15.479569741844641
asVmomentum
p1185
(lp1186
F0
aF0
aF0
asa(dp1187
Vmagmom
p1188
F0
sVindex
p1189
I106
sVsymbol
p1190
VPd
p1191
sVcharge
p1192
F0
sVtag
p1193
I0
sVposition
p1194
(lp1195
F6.8374589554468416e-16
aF11.166417876905159
aF15.479569741844637
asVmomentum
p1196
(lp1197
F0
aF0
aF0
asa(dp1198
Vmagmom
p1199
F0
sVindex
p1200
I107
sVsymbol
p1201
VPd
p1202
sVcharge
p1203
F0
sVtag
p1204
I0
sVposition
p1205
(lp1206
F2.2677986009600439e-15
aF37.035961757120077
aF15.479569741844639
asVmomentum
p1207
(lp1208
F0
aF0
aF0
asa(dp1209
Vmagmom
p1210
F0
sVindex
p1211
I108
sVsymbol
p1212
VPd
p1213
sVcharge
p1214
F0
sVtag
p1215
I0
sVposition
p1216
(lp1217
F1.8606234625110465
aF0.043075636210385432
aF17.340193204355682
asVmomentum
p1218
(lp1219
F0
aF0
aF0
asa(dp1220
Vmagmom
p1221
F0
sVindex
p1222
I109
sVsymbol
p1223
VPd
p1224
sVcharge
p1225
F0
sVtag
p1226
I0
sVposition
p1227
(lp1228
F1.860623462511048
aF25.912619516425298
aF13.618946279333596
asVmomentum
p1229
(lp1230
F0
aF0
aF0
asa(dp1231
Vmagmom
p1232
F0
sVindex
p1233
I110
sVsymbol
p1234
VPd
p1235
sVcharge
p1236
F0
sVtag
p1237
I0
sVposition
p1238
(lp1239
F1.8606234625110476
aF18.473721193326252
aF13.618946279333594
asVmomentum
p1240
(lp1241
F0
aF0
aF0
asa(dp1242
Vmagmom
p1243
F0
sVindex
p1244
I111
sVsymbol
p1245
VPd
p1246
sVcharge
p1247
F0
sVtag
p1248
I0
sVposition
p1249
(lp1250
F1.8606234625110492
aF44.343265073541161
aF13.618946279333596
asVmomentum
p1251
(lp1252
F0
aF0
aF0
asasVcell
p1253
(lp1254
(lp1255
F3.7212469250220934
aF0
aF1.39524411987556e-32
aa(lp1256
F3.1681054108307196e-15
aF51.73908776042984
aF-3.7212469250220903
aa(lp1257
F0
aF0
aF29.769975400176747
aasVmass
p1258
F8317.6240000000125
sVpbc
p1259
(lp1260
I01
aI01
aI01
asVspacegroup
p1261
VPm (6)
p1262
sVconstraints
p1263
(lp1264
(dp1265
Vname
p1266
VFixAtoms
p1267
sVkwargs
p1268
(dp1269
Vindices
p1270
(lp1271
I0
aI1
aI2
aI3
aI4
aI5
aI6
aI7
aI8
aI9
aI10
aI11
aI12
aI13
aI14
aI15
aI16
aI17
aI18
aI19
aI20
aI21
aI22
aI23
aI24
aI25
aI26
aI27
aI28
aI29
aI30
aI31
aI32
aI33
aI34
aI35
aI36
aI37
aI38
aI39
aI40
aI41
aI42
aI43
aI44
aI45
aI46
aI47
aI48
aI49
aI50
aI51
aI52
aI53
aI54
aI55
aI56
aI59
aI74
aI78
aI81
aI87
aI89
aI100
aI109
aI110
assasaa(lp1272
S'results'
p1273
ag2
((ltRp1274
aa(lp1275
S'user'
p1276
aS'ktran'
p1277
aa(lp1278
S'inserted-hash'
p1279
aS'8d74b6534a3e3e1b5ae79f643ce0bc6b58b52052'
p1280
aa(lp1281
S'ctime'
p1282
acdatetime
datetime
p1283
(S'\x07\xe1\x03\x1f\x13)3\n\xbd\xe5'
tRp1284
aa(lp1285
S'mtime'
p1286
ag1283
(S'\x07\xe1\x03\x1f\x13)3\n\xbe\x0b'
tRp1287
aa(lp1288
S'tags'
p1289
a(dp1290
S'get_slab_settings'
p1291
g2
((lp1292
(lp1293
S'max_broken_bonds'
p1294
aI0
aa(lp1295
S'bonds'
p1296
aNaa(lp1297
S'tol'
p1298
aF0.29999999999999999
aa(lp1299
S'symmetrize'
p1300
aI00
aatRp1301
sS'relaxed'
p1302
I00
sS'mpid'
p1303
Vmp-680639
p1304
sS'shift'
p1305
I0
sS'slab_generate_settings'
p1306
g2
((lp1307
(lp1308
S'primitive'
p1309
aI01
aa(lp1310
S'min_vacuum_size'
p1311
aF20
aa(lp1312
S'lll_reduce'
p1313
aI00
aa(lp1314
S'max_normal_search'
p1315
aI1
aa(lp1316
S'min_slab_size'
p1317
aF7
aa(lp1318
S'center_slab'
p1319
aI01
aatRp1320
sS'miller'
p1321
(I2
I0
I1
tp1322
sS'top'
p1323
I01
sS'type'
p1324
S'slab'
p1325
sS'num_slab_atoms'
p1326
I112
saatRp1327
ag2
((lp1328
(lp1329
g5
a(dp1330
Vinfo
p1331
(dp1332
sVvolume
p1333
F5731.7300987746539
sVnatoms
p1334
I112
sVsymbol_counts
p1335
(dp1336
VCu
p1337
I84
sVPd
p1338
I28
ssVchemical_symbols
p1339
(lp1340
VPd
p1341
aVCu
p1342
asVatoms
p1343
(lp1344
(dp1345
Vmagmom
p1346
F0
sVindex
p1347
I0
sVsymbol
p1348
VCu
p1349
sVcharge
p1350
F0
sVtag
p1351
I0
sVposition
p1352
(lp1353
F2.2097693645816162e-18
aF-0.03608827240834226
aF-11.758322816822544
asVmomentum
p1354
(lp1355
F0
aF0
aF0
asa(dp1356
Vmagmom
p1357
F0
sVindex
p1358
I1
sVsymbol
p1359
VCu
p1360
sVcharge
p1361
F0
sVtag
p1362
I0
sVposition
p1363
(lp1364
F1.5862624747799411e-15
aF-25.905632152623259
aF-11.758322816822544
asVmomentum
p1365
(lp1366
F0
aF0
aF0
asa(dp1367
Vmagmom
p1368
F0
sVindex
p1369
I2
sVsymbol
p1370
VCu
p1371
sVcharge
p1372
F0
sVtag
p1373
I0
sVposition
p1374
(lp1375
F1.1315050681778952e-15
aF-18.478880097766854
aF-11.758322816822544
asVmomentum
p1376
(lp1377
F0
aF0
aF0
asa(dp1378
Vmagmom
p1379
F0
sVindex
p1380
I3
sVsymbol
p1381
VCu
p1382
sVcharge
p1383
F0
sVtag
p1384
I0
sVposition
p1385
(lp1386
F2.7155577735932546e-15
aF-44.348423977981767
aF-8.0370758918004501
asVmomentum
p1387
(lp1388
F0
aF0
aF0
asa(dp1389
Vmagmom
p1390
F0
sVindex
p1391
I4
sVsymbol
p1392
VCu
p1393
sVcharge
p1394
F0
sVtag
p1395
I0
sVposition
p1396
(lp1397
F1.8606234625110472
aF-9.3377437982373639
aF-11.758322816822542
asVmomentum
p1398
(lp1399
F0
aF0
aF0
asa(dp1400
Vmagmom
p1401
F0
sVindex
p1402
I5
sVsymbol
p1403
VCu
p1404
sVcharge
p1405
F0
sVtag
p1406
I0
sVposition
p1407
(lp1408
F1.8606234625110487
aF-35.207287678452275
aF-11.758322816822542
asVmomentum
p1409
(lp1410
F0
aF0
aF0
asa(dp1411
Vmagmom
p1412
F0
sVindex
p1413
I6
sVsymbol
p1414
VCu
p1415
sVcharge
p1416
F0
sVtag
p1417
I0
sVposition
p1418
(lp1419
F1.8606234625110467
aF-1.9101297701788715
aF-11.758322816822544
asVmomentum
p1420
(lp1421
F0
aF0
aF0
asa(dp1422
Vmagmom
p1423
F0
sVindex
p1424
I7
sVsymbol
p1425
VCu
p1426
sVcharge
p1427
F0
sVtag
p1428
I0
sVposition
p1429
(lp1430
F1.8606234625110483
aF-27.779673650393786
aF-11.758322816822544
asVmomentum
p1431
(lp1432
F0
aF0
aF0
asa(dp1433
Vmagmom
p1434
F0
sVindex
p1435
I8
sVsymbol
p1436
VCu
p1437
sVcharge
p1438
F0
sVtag
p1439
I0
sVposition
p1440
(lp1441
F5.7177190268847127e-16
aF-9.3377437982373603
aF-13.618946279333588
asVmomentum
p1442
(lp1443
F0
aF0
aF0
asa(dp1444
Vmagmom
p1445
F0
sVindex
p1446
I9
sVsymbol
p1447
VCu
p1448
sVcharge
p1449
F0
sVtag
p1450
I0
sVposition
p1451
(lp1452
F2.1558246081038308e-15
aF-35.207287678452275
aF-9.8976993543114951
asVmomentum
p1453
(lp1454
F0
aF0
aF0
asa(dp1455
Vmagmom
p1456
F0
sVindex
p1457
I10
sVsymbol
p1458
VCu
p1459
sVcharge
p1460
F0
sVtag
p1461
I0
sVposition
p1462
(lp1463
F1.8606234625110472
aF-11.165264612638978
aF-13.61894627933359
asVmomentum
p1464
(lp1465
F0
aF0
aF0
asa(dp1466
Vmagmom
p1467
F0
sVindex
p1468
I11
sVsymbol
p1469
VCu
p1470
sVcharge
p1471
F0
sVtag
p1472
I0
sVposition
p1473
(lp1474
F1.8606234625110487
aF-37.034808492853891
aF-9.8976993543114951
asVmomentum
p1475
(lp1476
F0
aF0
aF0
asa(dp1477
Vmagmom
p1478
F0
sVindex
p1479
I12
sVsymbol
p1480
VCu
p1481
sVcharge
p1482
F0
sVtag
p1483
I0
sVposition
p1484
(lp1485
F1.1696171545028094e-16
aF-1.9101297701788691
aF-13.61894627933359
asVmomentum
p1486
(lp1487
F0
aF0
aF0
asa(dp1488
Vmagmom
p1489
F0
sVindex
p1490
I13
sVsymbol
p1491
VCu
p1492
sVcharge
p1493
F0
sVtag
p1494
I0
sVposition
p1495
(lp1496
F1.7010144208656405e-15
aF-27.779673650393786
aF-9.8976993543114951
asVmomentum
p1497
(lp1498
F0
aF0
aF0
asa(dp1499
Vmagmom
p1500
F0
sVindex
p1501
I14
sVsymbol
p1502
VCu
p1503
sVcharge
p1504
F0
sVtag
p1505
I0
sVposition
p1506
(lp1507
F3.4592436849329358e-16
aF-5.6493736599669351
aF-13.61894627933359
asVmomentum
p1508
(lp1509
F0
aF0
aF0
asa(dp1510
Vmagmom
p1511
F0
sVindex
p1512
I15
sVsymbol
p1513
VCu
p1514
sVcharge
p1515
F0
sVtag
p1516
I0
sVposition
p1517
(lp1518
F1.9299770739086531e-15
aF-31.51891754018185
aF-9.8976993543114951
asVmomentum
p1519
(lp1520
F0
aF0
aF0
asa(dp1521
Vmagmom
p1522
F0
sVindex
p1523
I16
sVsymbol
p1524
VCu
p1525
sVcharge
p1526
F0
sVtag
p1527
I0
sVposition
p1528
(lp1529
F1.8606234625110476
aF-16.633973915095972
aF-11.758322816822545
asVmomentum
p1530
(lp1531
F0
aF0
aF0
asa(dp1532
Vmagmom
p1533
F0
sVindex
p1534
I17
sVsymbol
p1535
VCu
p1536
sVcharge
p1537
F0
sVtag
p1538
I0
sVposition
p1539
(lp1540
F1.8606234625110492
aF-42.503517795310898
aF-11.758322816822542
asVmomentum
p1541
(lp1542
F0
aF0
aF0
asa(dp1543
Vmagmom
p1544
F0
sVindex
p1545
I18
sVsymbol
p1546
VCu
p1547
sVcharge
p1548
F0
sVtag
p1549
I0
sVposition
p1550
(lp1551
F1.2447097907835796e-15
aF-20.327653518552374
aF-9.8976993543114986
asVmomentum
p1552
(lp1553
F0
aF0
aF0
asa(dp1554
Vmagmom
p1555
F0
sVindex
p1556
I19
sVsymbol
p1557
VCu
p1558
sVcharge
p1559
F0
sVtag
p1560
I0
sVposition
p1561
(lp1562
F2.8287624961989394e-15
aF-46.197197398767294
aF-9.8976993543114968
asVmomentum
p1563
(lp1564
F0
aF0
aF0
asa(dp1565
Vmagmom
p1566
F0
sVindex
p1567
I20
sVsymbol
p1568
VCu
p1569
sVcharge
p1570
F0
sVtag
p1571
I0
sVposition
p1572
(lp1573
F1.8606234625110474
aF-12.979332488136574
aF-11.758322816822542
asVmomentum
p1574
(lp1575
F0
aF0
aF0
asa(dp1576
Vmagmom
p1577
F0
sVindex
p1578
I21
sVsymbol
p1579
VCu
p1580
sVcharge
p1581
F0
sVtag
p1582
I0
sVposition
p1583
(lp1584
F1.8606234625110489
aF-38.848876368351483
aF-11.758322816822542
asVmomentum
p1585
(lp1586
F0
aF0
aF0
asa(dp1587
Vmagmom
p1588
F0
sVindex
p1589
I22
sVsymbol
p1590
VCu
p1591
sVcharge
p1592
F0
sVtag
p1593
I0
sVposition
p1594
(lp1595
F1.4722286906692955e-15
aF-24.043319129961695
aF-9.8976993543114968
asVmomentum
p1596
(lp1597
F0
aF0
aF0
asa(dp1598
Vmagmom
p1599
F0
sVindex
p1600
I23
sVsymbol
p1601
VCu
p1602
sVcharge
p1603
F0
sVtag
p1604
I0
sVposition
p1605
(lp1606
F3.0562813960846555e-15
aF-49.912863010176622
aF-9.8976993543114968
asVmomentum
p1607
(lp1608
F0
aF0
aF0
asa(dp1609
Vmagmom
p1610
F0
sVindex
p1611
I24
sVsymbol
p1612
VCu
p1613
sVcharge
p1614
F0
sVtag
p1615
I0
sVposition
p1616
(lp1617
F1.860623462511048
aF-24.043319129961699
aF-11.758322816822544
asVmomentum
p1618
(lp1619
F0
aF0
aF0
asa(dp1620
Vmagmom
p1621
F0
sVindex
p1622
I25
sVsymbol
p1623
VCu
p1624
sVcharge
p1625
F0
sVtag
p1626
I0
sVposition
p1627
(lp1628
F1.8606234625110496
aF-49.912863010176622
aF-8.0370758918004501
asVmomentum
p1629
(lp1630
F0
aF0
aF0
asa(dp1631
Vmagmom
p1632
F0
sVindex
p1633
I26
sVsymbol
p1634
VCu
p1635
sVcharge
p1636
F0
sVtag
p1637
I0
sVposition
p1638
(lp1639
F1.8606234625110469
aF-7.5109341375970144
aF-13.61894627933359
asVmomentum
p1640
(lp1641
F0
aF0
aF0
asa(dp1642
Vmagmom
p1643
F0
sVindex
p1644
I27
sVsymbol
p1645
VCu
p1646
sVcharge
p1647
F0
sVtag
p1648
I0
sVposition
p1649
(lp1650
F1.8606234625110485
aF-33.380478017811932
aF-9.8976993543114986
asVmomentum
p1651
(lp1652
F0
aF0
aF0
asa(dp1653
Vmagmom
p1654
F0
sVindex
p1655
I28
sVsymbol
p1656
VCu
p1657
sVcharge
p1658
F0
sVtag
p1659
I0
sVposition
p1660
(lp1661
F1.0185371456111423e-15
aF-16.633973915095972
aF-13.618946279333592
asVmomentum
p1662
(lp1663
F0
aF0
aF0
asa(dp1664
Vmagmom
p1665
F0
sVindex
p1666
I29
sVsymbol
p1667
VCu
p1668
sVcharge
p1669
F0
sVtag
p1670
I0
sVposition
p1671
(lp1672
F2.6025898510265025e-15
aF-42.503517795310898
aF-9.8976993543114951
asVmomentum
p1673
(lp1674
F0
aF0
aF0
asa(dp1675
Vmagmom
p1676
F0
sVindex
p1677
I30
sVsymbol
p1678
VCu
p1679
sVcharge
p1680
F0
sVtag
p1681
I0
sVposition
p1682
(lp1683
F1.8606234625110478
aF-20.327653518552378
aF-11.758322816822545
asVmomentum
p1684
(lp1685
F0
aF0
aF0
asa(dp1686
Vmagmom
p1687
F0
sVindex
p1688
I31
sVsymbol
p1689
VCu
p1690
sVcharge
p1691
F0
sVtag
p1692
I0
sVposition
p1693
(lp1694
F1.8606234625110494
aF-46.197197398767294
aF-8.0370758918004501
asVmomentum
p1695
(lp1696
F0
aF0
aF0
asa(dp1697
Vmagmom
p1698
F0
sVindex
p1699
I32
sVsymbol
p1700
VCu
p1701
sVcharge
p1702
F0
sVtag
p1703
I0
sVposition
p1704
(lp1705
F1.3578469377008518e-15
aF-22.175323344595977
aF-11.758322816822544
asVmomentum
p1706
(lp1707
F0
aF0
aF0
asa(dp1708
Vmagmom
p1709
F0
sVindex
p1710
I33
sVsymbol
p1711
VCu
p1712
sVcharge
p1713
F0
sVtag
p1714
I0
sVposition
p1715
(lp1716
F2.9418996431162112e-15
aF-48.044867224810893
aF-8.0370758918004519
asVmomentum
p1717
(lp1718
F0
aF0
aF0
asa(dp1719
Vmagmom
p1720
F0
sVindex
p1721
I34
sVsymbol
p1722
VCu
p1723
sVcharge
p1724
F0
sVtag
p1725
I0
sVposition
p1726
(lp1727
F1.8606234625110467
aF-3.7807086295010319
aF-13.618946279333592
asVmomentum
p1728
(lp1729
F0
aF0
aF0
asa(dp1730
Vmagmom
p1731
F0
sVindex
p1732
I35
sVsymbol
p1733
VCu
p1734
sVcharge
p1735
F0
sVtag
p1736
I0
sVposition
p1737
(lp1738
F1.8606234625110483
aF-29.650252509715948
aF-9.8976993543114968
asVmomentum
p1739
(lp1740
F0
aF0
aF0
asa(dp1741
Vmagmom
p1742
F0
sVindex
p1743
I36
sVsymbol
p1744
VCu
p1745
sVcharge
p1746
F0
sVtag
p1747
I0
sVposition
p1748
(lp1749
F7.9475489933328489e-16
aF-12.979332488136572
aF-13.618946279333588
asVmomentum
p1750
(lp1751
F0
aF0
aF0
asa(dp1752
Vmagmom
p1753
F0
sVindex
p1754
I37
sVsymbol
p1755
VCu
p1756
sVcharge
p1757
F0
sVtag
p1758
I0
sVposition
p1759
(lp1760
F2.3788076047486442e-15
aF-38.848876368351483
aF-9.8976993543114951
asVmomentum
p1761
(lp1762
F0
aF0
aF0
asa(dp1763
Vmagmom
p1764
F0
sVindex
p1765
I38
sVsymbol
p1766
VCu
p1767
sVcharge
p1768
F0
sVtag
p1769
I0
sVposition
p1770
(lp1771
F1.8606234625110469
aF-5.6493736599669377
aF-11.758322816822544
asVmomentum
p1772
(lp1773
F0
aF0
aF0
asa(dp1774
Vmagmom
p1775
F0
sVindex
p1776
I39
sVsymbol
p1777
VCu
p1778
sVcharge
p1779
F0
sVtag
p1780
I0
sVposition
p1781
(lp1782
F1.8606234625110485
aF-31.51891754018185
aF-11.758322816822544
asVmomentum
p1783
(lp1784
F0
aF0
aF0
asa(dp1785
Vmagmom
p1786
F0
sVindex
p1787
I40
sVsymbol
p1788
VCu
p1789
sVcharge
p1790
F0
sVtag
p1791
I0
sVposition
p1792
(lp1793
F9.060555272249522e-16
aF-14.797009682396324
aF-11.758322816822545
asVmomentum
p1794
(lp1795
F0
aF0
aF0
asa(dp1796
Vmagmom
p1797
F0
sVindex
p1798
I41
sVsymbol
p1799
VCu
p1800
sVcharge
p1801
F0
sVtag
p1802
I0
sVposition
p1803
(lp1804
F2.490108232640312e-15
aF-40.666553562611242
aF-11.758322816822544
asVmomentum
p1805
(lp1806
F0
aF0
aF0
asa(dp1807
Vmagmom
p1808
F0
sVindex
p1809
I42
sVsymbol
p1810
VPd
p1811
sVcharge
p1812
F0
sVtag
p1813
I0
sVposition
p1814
(lp1815
F1.8606234625110474
aF-14.800859070525702
aF-13.618946279333592
asVmomentum
p1816
(lp1817
F0
aF0
aF0
asa(dp1818
Vmagmom
p1819
F0
sVindex
p1820
I43
sVsymbol
p1821
VPd
p1822
sVcharge
p1823
F0
sVtag
p1824
I0
sVposition
p1825
(lp1826
F1.8606234625110489
aF-40.670402950740609
aF-9.8976993543114968
asVmomentum
p1827
(lp1828
F0
aF0
aF0
asa(dp1829
Vmagmom
p1830
F0
sVindex
p1831
I44
sVsymbol
p1832
VPd
p1833
sVcharge
p1834
F0
sVtag
p1835
I0
sVposition
p1836
(lp1837
F1.8606234625110478
aF-22.18713848267695
aF-9.8976993543114968
asVmomentum
p1838
(lp1839
F0
aF0
aF0
asa(dp1840
Vmagmom
p1841
F0
sVindex
p1842
I45
sVsymbol
p1843
VPd
p1844
sVcharge
p1845
F0
sVtag
p1846
I0
sVposition
p1847
(lp1848
F1.8606234625110494
aF-48.056682362891863
aF-9.8976993543114968
asVmomentum
p1849
(lp1850
F0
aF0
aF0
asa(dp1851
Vmagmom
p1852
F0
sVindex
p1853
I46
sVsymbol
p1854
VPd
p1855
sVcharge
p1856
F0
sVtag
p1857
I0
sVposition
p1858
(lp1859
F4.591892692612576e-16
aF-7.4991298647244768
aF-11.758322816822544
asVmomentum
p1860
(lp1861
F0
aF0
aF0
asa(dp1862
Vmagmom
p1863
F0
sVindex
p1864
I47
sVsymbol
p1865
VPd
p1866
sVcharge
p1867
F0
sVtag
p1868
I0
sVposition
p1869
(lp1870
F2.0432419746766168e-15
aF-33.368673744939386
aF-11.758322816822544
asVmomentum
p1871
(lp1872
F0
aF0
aF0
asa(dp1873
Vmagmom
p1874
F0
sVindex
p1875
I48
sVsymbol
p1876
VPd
p1877
sVcharge
p1878
F0
sVtag
p1879
I0
sVposition
p1880
(lp1881
F2.3142709056104392e-16
aF-3.7794912087660313
aF-11.758322816822545
asVmomentum
p1882
(lp1883
F0
aF0
aF0
asa(dp1884
Vmagmom
p1885
F0
sVindex
p1886
I49
sVsymbol
p1887
VPd
p1888
sVcharge
p1889
F0
sVtag
p1890
I0
sVposition
p1891
(lp1892
F1.8154797959764036e-15
aF-29.649035088980952
aF-11.758322816822544
asVmomentum
p1893
(lp1894
F0
aF0
aF0
asa(dp1895
Vmagmom
p1896
F0
sVindex
p1897
I50
sVsymbol
p1898
VPd
p1899
sVcharge
p1900
F0
sVtag
p1901
I0
sVposition
p1902
(lp1903
F6.8374589554468416e-16
aF-11.166417876905161
aF-11.758322816822544
asVmomentum
p1904
(lp1905
F0
aF0
aF0
asa(dp1906
Vmagmom
p1907
F0
sVindex
p1908
I51
sVsymbol
p1909
VPd
p1910
sVcharge
p1911
F0
sVtag
p1912
I0
sVposition
p1913
(lp1914
F2.2677986009600439e-15
aF-37.035961757120077
aF-11.758322816822542
asVmomentum
p1915
(lp1916
F0
aF0
aF0
asa(dp1917
Vmagmom
p1918
F0
sVindex
p1919
I52
sVsymbol
p1920
VPd
p1921
sVcharge
p1922
F0
sVtag
p1923
I0
sVposition
p1924
(lp1925
F1.8606234625110465
aF-0.04307563621038709
aF-13.618946279333592
asVmomentum
p1926
(lp1927
F0
aF0
aF0
asa(dp1928
Vmagmom
p1929
F0
sVindex
p1930
I53
sVsymbol
p1931
VPd
p1932
sVcharge
p1933
F0
sVtag
p1934
I0
sVposition
p1935
(lp1936
F1.860623462511048
aF-25.912619516425298
aF-9.8976993543114986
asVmomentum
p1937
(lp1938
F0
aF0
aF0
asa(dp1939
Vmagmom
p1940
F0
sVindex
p1941
I54
sVsymbol
p1942
VPd
p1943
sVcharge
p1944
F0
sVtag
p1945
I0
sVposition
p1946
(lp1947
F1.8606234625110476
aF-18.473721193326252
aF-9.8976993543114986
asVmomentum
p1948
(lp1949
F0
aF0
aF0
asa(dp1950
Vmagmom
p1951
F0
sVindex
p1952
I55
sVsymbol
p1953
VPd
p1954
sVcharge
p1955
F0
sVtag
p1956
I0
sVposition
p1957
(lp1958
F1.8606234625110492
aF-44.343265073541161
aF-9.8976993543114968
asVmomentum
p1959
(lp1960
F0
aF0
aF0
asa(dp1961
Vmagmom
p1962
F0
sVindex
p1963
I56
sVsymbol
p1964
VCu
p1965
sVcharge
p1966
F0
sVtag
p1967
I0
sVposition
p1968
(lp1969
F2.2097693645816158e-18
aF-0.036088272408342711
aF-15.479569741844639
asVmomentum
p1970
(lp1971
F0
aF0
aF0
asa(dp1972
Vmagmom
p1973
F0
sVindex
p1974
I57
sVsymbol
p1975
VCu
p1976
sVcharge
p1977
F0
sVtag
p1978
I0
sVposition
p1979
(lp1980
F1.5862624747799411e-15
aF-25.905632152623262
aF-15.479569741844641
asVmomentum
p1981
(lp1982
F0
aF0
aF0
asa(dp1983
Vmagmom
p1984
F0
sVindex
p1985
I58
sVsymbol
p1986
VCu
p1987
sVcharge
p1988
F0
sVtag
p1989
I0
sVposition
p1990
(lp1991
F1.1315050681778952e-15
aF-18.478880097766858
aF-15.479569741844641
asVmomentum
p1992
(lp1993
F0
aF0
aF0
asa(dp1994
Vmagmom
p1995
F0
sVindex
p1996
I59
sVsymbol
p1997
VCu
p1998
sVcharge
p1999
F0
sVtag
p2000
I0
sVposition
p2001
(lp2002
F2.7155577735932546e-15
aF-44.348423977981767
aF-11.758322816822544
asVmomentum
p2003
(lp2004
F0
aF0
aF0
asa(dp2005
Vmagmom
p2006
F0
sVindex
p2007
I60
sVsymbol
p2008
VCu
p2009
sVcharge
p2010
F0
sVtag
p2011
I0
sVposition
p2012
(lp2013
F1.8606234625110472
aF-9.3377437982373639
aF-15.479569741844637
asVmomentum
p2014
(lp2015
F0
aF0
aF0
asa(dp2016
Vmagmom
p2017
F0
sVindex
p2018
I61
sVsymbol
p2019
VCu
p2020
sVcharge
p2021
F0
sVtag
p2022
I0
sVposition
p2023
(lp2024
F1.8606234625110487
aF-35.207287678452275
aF-15.479569741844637
asVmomentum
p2025
(lp2026
F0
aF0
aF0
asa(dp2027
Vmagmom
p2028
F0
sVindex
p2029
I62
sVsymbol
p2030
VCu
p2031
sVcharge
p2032
F0
sVtag
p2033
I0
sVposition
p2034
(lp2035
F1.8606234625110467
aF-1.9101297701788722
aF-15.479569741844637
asVmomentum
p2036
(lp2037
F0
aF0
aF0
asa(dp2038
Vmagmom
p2039
F0
sVindex
p2040
I63
sVsymbol
p2041
VCu
p2042
sVcharge
p2043
F0
sVtag
p2044
I0
sVposition
p2045
(lp2046
F1.8606234625110483
aF-27.779673650393789
aF-15.479569741844637
asVmomentum
p2047
(lp2048
F0
aF0
aF0
asa(dp2049
Vmagmom
p2050
F0
sVindex
p2051
I64
sVsymbol
p2052
VCu
p2053
sVcharge
p2054
F0
sVtag
p2055
I0
sVposition
p2056
(lp2057
F5.7177190268847137e-16
aF-9.3377437982373603
aF-17.340193204355685
asVmomentum
p2058
(lp2059
F0
aF0
aF0
asa(dp2060
Vmagmom
p2061
F0
sVindex
p2062
I65
sVsymbol
p2063
VCu
p2064
sVcharge
p2065
F0
sVtag
p2066
I0
sVposition
p2067
(lp2068
F2.1558246081038308e-15
aF-35.207287678452275
aF-13.61894627933359
asVmomentum
p2069
(lp2070
F0
aF0
aF0
asa(dp2071
Vmagmom
p2072
F0
sVindex
p2073
I66
sVsymbol
p2074
VCu
p2075
sVcharge
p2076
F0
sVtag
p2077
I0
sVposition
p2078
(lp2079
F1.8606234625110472
aF-11.16526461263898
aF-17.340193204355682
asVmomentum
p2080
(lp2081
F0
aF0
aF0
asa(dp2082
Vmagmom
p2083
F0
sVindex
p2084
I67
sVsymbol
p2085
VCu
p2086
sVcharge
p2087
F0
sVtag
p2088
I0
sVposition
p2089
(lp2090
F1.8606234625110487
aF-37.034808492853891
aF-13.618946279333587
asVmomentum
p2091
(lp2092
F0
aF0
aF0
asa(dp2093
Vmagmom
p2094
F0
sVindex
p2095
I68
sVsymbol
p2096
VCu
p2097
sVcharge
p2098
F0
sVtag
p2099
I0
sVposition
p2100
(lp2101
F1.1696171545028094e-16
aF-1.9101297701788695
aF-17.340193204355685
asVmomentum
p2102
(lp2103
F0
aF0
aF0
asa(dp2104
Vmagmom
p2105
F0
sVindex
p2106
I69
sVsymbol
p2107
VCu
p2108
sVcharge
p2109
F0
sVtag
p2110
I0
sVposition
p2111
(lp2112
F1.7010144208656405e-15
aF-27.779673650393786
aF-13.618946279333588
asVmomentum
p2113
(lp2114
F0
aF0
aF0
asa(dp2115
Vmagmom
p2116
F0
sVindex
p2117
I70
sVsymbol
p2118
VCu
p2119
sVcharge
p2120
F0
sVtag
p2121
I0
sVposition
p2122
(lp2123
F3.4592436849329358e-16
aF-5.6493736599669351
aF-17.340193204355682
asVmomentum
p2124
(lp2125
F0
aF0
aF0
asa(dp2126
Vmagmom
p2127
F0
sVindex
p2128
I71
sVsymbol
p2129
VCu
p2130
sVcharge
p2131
F0
sVtag
p2132
I0
sVposition
p2133
(lp2134
F1.9299770739086531e-15
aF-31.51891754018185
aF-13.618946279333588
asVmomentum
p2135
(lp2136
F0
aF0
aF0
asa(dp2137
Vmagmom
p2138
F0
sVindex
p2139
I72
sVsymbol
p2140
VCu
p2141
sVcharge
p2142
F0
sVtag
p2143
I0
sVposition
p2144
(lp2145
F1.8606234625110476
aF-16.633973915095975
aF-15.479569741844639
asVmomentum
p2146
(lp2147
F0
aF0
aF0
asa(dp2148
Vmagmom
p2149
F0
sVindex
p2150
I73
sVsymbol
p2151
VCu
p2152
sVcharge
p2153
F0
sVtag
p2154
I0
sVposition
p2155
(lp2156
F1.8606234625110492
aF-42.503517795310898
aF-15.479569741844635
asVmomentum
p2157
(lp2158
F0
aF0
aF0
asa(dp2159
Vmagmom
p2160
F0
sVindex
p2161
I74
sVsymbol
p2162
VCu
p2163
sVcharge
p2164
F0
sVtag
p2165
I0
sVposition
p2166
(lp2167
F1.2447097907835796e-15
aF-20.327653518552374
aF-13.618946279333592
asVmomentum
p2168
(lp2169
F0
aF0
aF0
asa(dp2170
Vmagmom
p2171
F0
sVindex
p2172
I75
sVsymbol
p2173
VCu
p2174
sVcharge
p2175
F0
sVtag
p2176
I0
sVposition
p2177
(lp2178
F2.8287624961989394e-15
aF-46.197197398767294
aF-13.618946279333592
asVmomentum
p2179
(lp2180
F0
aF0
aF0
asa(dp2181
Vmagmom
p2182
F0
sVindex
p2183
I76
sVsymbol
p2184
VCu
p2185
sVcharge
p2186
F0
sVtag
p2187
I0
sVposition
p2188
(lp2189
F1.8606234625110474
aF-12.979332488136574
aF-15.479569741844637
asVmomentum
p2190
(lp2191
F0
aF0
aF0
asa(dp2192
Vmagmom
p2193
F0
sVindex
p2194
I77
sVsymbol
p2195
VCu
p2196
sVcharge
p2197
F0
sVtag
p2198
I0
sVposition
p2199
(lp2200
F1.8606234625110489
aF-38.848876368351483
aF-15.479569741844637
asVmomentum
p2201
(lp2202
F0
aF0
aF0
asa(dp2203
Vmagmom
p2204
F0
sVindex
p2205
I78
sVsymbol
p2206
VCu
p2207
sVcharge
p2208
F0
sVtag
p2209
I0
sVposition
p2210
(lp2211
F1.4722286906692955e-15
aF-24.043319129961695
aF-13.618946279333592
asVmomentum
p2212
(lp2213
F0
aF0
aF0
asa(dp2214
Vmagmom
p2215
F0
sVindex
p2216
I79
sVsymbol
p2217
VCu
p2218
sVcharge
p2219
F0
sVtag
p2220
I0
sVposition
p2221
(lp2222
F3.0562813960846555e-15
aF-49.912863010176622
aF-13.618946279333592
asVmomentum
p2223
(lp2224
F0
aF0
aF0
asa(dp2225
Vmagmom
p2226
F0
sVindex
p2227
I80
sVsymbol
p2228
VCu
p2229
sVcharge
p2230
F0
sVtag
p2231
I0
sVposition
p2232
(lp2233
F1.860623462511048
aF-24.043319129961702
aF-15.479569741844639
asVmomentum
p2234
(lp2235
F0
aF0
aF0
asa(dp2236
Vmagmom
p2237
F0
sVindex
p2238
I81
sVsymbol
p2239
VCu
p2240
sVcharge
p2241
F0
sVtag
p2242
I0
sVposition
p2243
(lp2244
F1.8606234625110496
aF-49.912863010176622
aF-11.758322816822545
asVmomentum
p2245
(lp2246
F0
aF0
aF0
asa(dp2247
Vmagmom
p2248
F0
sVindex
p2249
I82
sVsymbol
p2250
VCu
p2251
sVcharge
p2252
F0
sVtag
p2253
I0
sVposition
p2254
(lp2255
F1.8606234625110469
aF-7.5109341375970144
aF-17.340193204355685
asVmomentum
p2256
(lp2257
F0
aF0
aF0
asa(dp2258
Vmagmom
p2259
F0
sVindex
p2260
I83
sVsymbol
p2261
VCu
p2262
sVcharge
p2263
F0
sVtag
p2264
I0
sVposition
p2265
(lp2266
F1.8606234625110485
aF-33.380478017811932
aF-13.618946279333592
asVmomentum
p2267
(lp2268
F0
aF0
aF0
asa(dp2269
Vmagmom
p2270
F0
sVindex
p2271
I84
sVsymbol
p2272
VCu
p2273
sVcharge
p2274
F0
sVtag
p2275
I0
sVposition
p2276
(lp2277
F1.0185371456111423e-15
aF-16.633973915095975
aF-17.340193204355682
asVmomentum
p2278
(lp2279
F0
aF0
aF0
asa(dp2280
Vmagmom
p2281
F0
sVindex
p2282
I85
sVsymbol
p2283
VCu
p2284
sVcharge
p2285
F0
sVtag
p2286
I0
sVposition
p2287
(lp2288
F2.6025898510265025e-15
aF-42.503517795310898
aF-13.618946279333588
asVmomentum
p2289
(lp2290
F0
aF0
aF0
asa(dp2291
Vmagmom
p2292
F0
sVindex
p2293
I86
sVsymbol
p2294
VCu
p2295
sVcharge
p2296
F0
sVtag
p2297
I0
sVposition
p2298
(lp2299
F1.8606234625110478
aF-20.327653518552381
aF-15.479569741844641
asVmomentum
p2300
(lp2301
F0
aF0
aF0
asa(dp2302
Vmagmom
p2303
F0
sVindex
p2304
I87
sVsymbol
p2305
VCu
p2306
sVcharge
p2307
F0
sVtag
p2308
I0
sVposition
p2309
(lp2310
F1.8606234625110494
aF-46.197197398767294
aF-11.758322816822544
asVmomentum
p2311
(lp2312
F0
aF0
aF0
asa(dp2313
Vmagmom
p2314
F0
sVindex
p2315
I88
sVsymbol
p2316
VCu
p2317
sVcharge
p2318
F0
sVtag
p2319
I0
sVposition
p2320
(lp2321
F1.3578469377008518e-15
aF-22.175323344595981
aF-15.479569741844637
asVmomentum
p2322
(lp2323
F0
aF0
aF0
asa(dp2324
Vmagmom
p2325
F0
sVindex
p2326
I89
sVsymbol
p2327
VCu
p2328
sVcharge
p2329
F0
sVtag
p2330
I0
sVposition
p2331
(lp2332
F2.9418996431162112e-15
aF-48.044867224810893
aF-11.758322816822545
asVmomentum
p2333
(lp2334
F0
aF0
aF0
asa(dp2335
Vmagmom
p2336
F0
sVindex
p2337
I90
sVsymbol
p2338
VCu
p2339
sVcharge
p2340
F0
sVtag
p2341
I0
sVposition
p2342
(lp2343
F1.8606234625110467
aF-3.7807086295010319
aF-17.340193204355689
asVmomentum
p2344
(lp2345
F0
aF0
aF0
asa(dp2346
Vmagmom
p2347
F0
sVindex
p2348
I91
sVsymbol
p2349
VCu
p2350
sVcharge
p2351
F0
sVtag
p2352
I0
sVposition
p2353
(lp2354
F1.8606234625110483
aF-29.650252509715948
aF-13.618946279333592
asVmomentum
p2355
(lp2356
F0
aF0
aF0
asa(dp2357
Vmagmom
p2358
F0
sVindex
p2359
I92
sVsymbol
p2360
VCu
p2361
sVcharge
p2362
F0
sVtag
p2363
I0
sVposition
p2364
(lp2365
F7.9475489933328489e-16
aF-12.979332488136571
aF-17.340193204355685
asVmomentum
p2366
(lp2367
F0
aF0
aF0
asa(dp2368
Vmagmom
p2369
F0
sVindex
p2370
I93
sVsymbol
p2371
VCu
p2372
sVcharge
p2373
F0
sVtag
p2374
I0
sVposition
p2375
(lp2376
F2.3788076047486442e-15
aF-38.848876368351483
aF-13.618946279333588
asVmomentum
p2377
(lp2378
F0
aF0
aF0
asa(dp2379
Vmagmom
p2380
F0
sVindex
p2381
I94
sVsymbol
p2382
VCu
p2383
sVcharge
p2384
F0
sVtag
p2385
I0
sVposition
p2386
(lp2387
F1.8606234625110469
aF-5.6493736599669377
aF-15.479569741844637
asVmomentum
p2388
(lp2389
F0
aF0
aF0
asa(dp2390
Vmagmom
p2391
F0
sVindex
p2392
I95
sVsymbol
p2393
VCu
p2394
sVcharge
p2395
F0
sVtag
p2396
I0
sVposition
p2397
(lp2398
F1.8606234625110485
aF-31.518917540181853
aF-15.479569741844633
asVmomentum
p2399
(lp2400
F0
aF0
aF0
asa(dp2401
Vmagmom
p2402
F0
sVindex
p2403
I96
sVsymbol
p2404
VCu
p2405
sVcharge
p2406
F0
sVtag
p2407
I0
sVposition
p2408
(lp2409
F9.060555272249524e-16
aF-14.797009682396324
aF-15.479569741844639
asVmomentum
p2410
(lp2411
F0
aF0
aF0
asa(dp2412
Vmagmom
p2413
F0
sVindex
p2414
I97
sVsymbol
p2415
VCu
p2416
sVcharge
p2417
F0
sVtag
p2418
I0
sVposition
p2419
(lp2420
F2.490108232640312e-15
aF-40.666553562611242
aF-15.479569741844637
asVmomentum
p2421
(lp2422
F0
aF0
aF0
asa(dp2423
Vmagmom
p2424
F0
sVindex
p2425
I98
sVsymbol
p2426
VPd
p2427
sVcharge
p2428
F0
sVtag
p2429
I0
sVposition
p2430
(lp2431
F1.8606234625110474
aF-14.800859070525702
aF-17.340193204355682
asVmomentum
p2432
(lp2433
F0
aF0
aF0
asa(dp2434
Vmagmom
p2435
F0
sVindex
p2436
I99
sVsymbol
p2437
VPd
p2438
sVcharge
p2439
F0
sVtag
p2440
I0
sVposition
p2441
(lp2442
F1.8606234625110489
aF-40.670402950740609
aF-13.618946279333588
asVmomentum
p2443
(lp2444
F0
aF0
aF0
asa(dp2445
Vmagmom
p2446
F0
sVindex
p2447
I100
sVsymbol
p2448
VPd
p2449
sVcharge
p2450
F0
sVtag
p2451
I0
sVposition
p2452
(lp2453
F1.8606234625110478
aF-22.18713848267695
aF-13.61894627933359
asVmomentum
p2454
(lp2455
F0
aF0
aF0
asa(dp2456
Vmagmom
p2457
F0
sVindex
p2458
I101
sVsymbol
p2459
VPd
p2460
sVcharge
p2461
F0
sVtag
p2462
I0
sVposition
p2463
(lp2464
F1.8606234625110494
aF-48.056682362891863
aF-13.618946279333592
asVmomentum
p2465
(lp2466
F0
aF0
aF0
asa(dp2467
Vmagmom
p2468
F0
sVindex
p2469
I102
sVsymbol
p2470
VPd
p2471
sVcharge
p2472
F0
sVtag
p2473
I0
sVposition
p2474
(lp2475
F4.591892692612575e-16
aF-7.4991298647244768
aF-15.479569741844639
asVmomentum
p2476
(lp2477
F0
aF0
aF0
asa(dp2478
Vmagmom
p2479
F0
sVindex
p2480
I103
sVsymbol
p2481
VPd
p2482
sVcharge
p2483
F0
sVtag
p2484
I0
sVposition
p2485
(lp2486
F2.0432419746766168e-15
aF-33.368673744939386
aF-15.479569741844639
asVmomentum
p2487
(lp2488
F0
aF0
aF0
asa(dp2489
Vmagmom
p2490
F0
sVindex
p2491
I104
sVsymbol
p2492
VPd
p2493
sVcharge
p2494
F0
sVtag
p2495
I0
sVposition
p2496
(lp2497
F2.3142709056104392e-16
aF-3.7794912087660317
aF-15.479569741844641
asVmomentum
p2498
(lp2499
F0
aF0
aF0
asa(dp2500
Vmagmom
p2501
F0
sVindex
p2502
I105
sVsymbol
p2503
VPd
p2504
sVcharge
p2505
F0
sVtag
p2506
I0
sVposition
p2507
(lp2508
F1.8154797959764036e-15
aF-29.649035088980956
aF-15.479569741844637
asVmomentum
p2509
(lp2510
F0
aF0
aF0
asa(dp2511
Vmagmom
p2512
F0
sVindex
p2513
I106
sVsymbol
p2514
VPd
p2515
sVcharge
p2516
F0
sVtag
p2517
I0
sVposition
p2518
(lp2519
F6.8374589554468416e-16
aF-11.166417876905161
aF-15.479569741844635
asVmomentum
p2520
(lp2521
F0
aF0
aF0
asa(dp2522
Vmagmom
p2523
F0
sVindex
p2524
I107
sVsymbol
p2525
VPd
p2526
sVcharge
p2527
F0
sVtag
p2528
I0
sVposition
p2529
(lp2530
F2.2677986009600439e-15
aF-37.035961757120077
aF-15.479569741844633
asVmomentum
p2531
(lp2532
F0
aF0
aF0
asa(dp2533
Vmagmom
p2534
F0
sVindex
p2535
I108
sVsymbol
p2536
VPd
p2537
sVcharge
p2538
F0
sVtag
p2539
I0
sVposition
p2540
(lp2541
F1.8606234625110465
aF-0.043075636210387555
aF-17.340193204355682
asVmomentum
p2542
(lp2543
F0
aF0
aF0
asa(dp2544
Vmagmom
p2545
F0
sVindex
p2546
I109
sVsymbol
p2547
VPd
p2548
sVcharge
p2549
F0
sVtag
p2550
I0
sVposition
p2551
(lp2552
F1.860623462511048
aF-25.912619516425298
aF-13.618946279333592
asVmomentum
p2553
(lp2554
F0
aF0
aF0
asa(dp2555
Vmagmom
p2556
F0
sVindex
p2557
I110
sVsymbol
p2558
VPd
p2559
sVcharge
p2560
F0
sVtag
p2561
I0
sVposition
p2562
(lp2563
F1.8606234625110476
aF-18.473721193326252
aF-13.618946279333592
asVmomentum
p2564
(lp2565
F0
aF0
aF0
asa(dp2566
Vmagmom
p2567
F0
sVindex
p2568
I111
sVsymbol
p2569
VPd
p2570
sVcharge
p2571
F0
sVtag
p2572
I0
sVposition
p2573
(lp2574
F1.8606234625110492
aF-44.343265073541161
aF-13.61894627933359
asVmomentum
p2575
(lp2576
F0
aF0
aF0
asasVcell
p2577
(lp2578
(lp2579
F3.7212469250220934
aF-1.7086812454347705e-48
aF-1.39524411987556e-32
aa(lp2580
F3.1681054108307196e-15
aF-51.73908776042984
aF3.7212469250220965
aa(lp2581
F0
aF-3.6457705084521902e-15
aF-29.769975400176747
aasVmass
p2582
F8317.6240000000125
sVpbc
p2583
(lp2584
I01
aI01
aI01
asVspacegroup
p2585
VPm (6)
p2586
sVconstraints
p2587
(lp2588
(dp2589
Vname
p2590
VFixAtoms
p2591
sVkwargs
p2592
(dp2593
Vindices
p2594
(lp2595
I5
aI8
aI10
aI17
aI21
aI28
aI36
aI41
aI42
aI51
aI56
aI57
aI58
aI59
aI60
aI61
aI62
aI63
aI64
aI65
aI66
aI67
aI68
aI69
aI70
aI71
aI72
aI73
aI74
aI75
aI76
aI77
aI78
aI79
aI80
aI81
aI82
aI83
aI84
aI85
aI86
aI87
aI88
aI89
aI90
aI91
aI92
aI93
aI94
aI95
aI96
aI97
aI98
aI99
aI100
aI101
aI102
aI103
aI104
aI105
aI106
aI107
aI108
aI109
aI110
aI111
assasaa(lp2596
g1273
ag2
((ltRp2597
aa(lp2598
g1276
ag1277
aa(lp2599
g1279
aS'1cafff71d7cd7a4116f4e748e4a1e988668cebad'
p2600
aa(lp2601
g1282
ag1283
(S'\x07\xe1\x03\x1f\x13)3\x0bU\xcc'
tRp2602
aa(lp2603
g1286
ag1283
(S'\x07\xe1\x03\x1f\x13)3\x0bU\xd5'
tRp2604
aa(lp2605
g1289
a(dp2606
g1291
g1301
sg1302
I00
sg1303
g1304
sg1305
I0
sg1306
g1320
sg1321
g1322
sg1323
I00
sg1324
g1325
sg1326
I112
saatRp2607
a.