(lp1
ccollections
OrderedDict
p2
((lp3
(lp4
S'atoms'
p5
a(dp6
Vinfo
p7
(dp8
sVvolume
p9
F1230.2302562212121
sVnatoms
p10
I32
sVsymbol_counts
p11
(dp12
VCu
p13
I24
sVPd
p14
I8
ssVchemical_symbols
p15
(lp16
VPd
p17
aVCu
p18
asVatoms
p19
(lp20
(dp21
Vmagmom
p22
F0
sVindex
p23
I0
sVsymbol
p24
VCu
p25
sVcharge
p26
F0
sVtag
p27
I0
sVposition
p28
(lp29
F-8.8817841970012523e-16
aF0.13404309409426141
aF13.269589312739223
asVmomentum
p30
(lp31
F0
aF0
aF0
asa(dp32
Vmagmom
p33
F0
sVindex
p34
I1
sVsymbol
p35
VCu
p36
sVcharge
p37
F0
sVtag
p38
I0
sVposition
p39
(lp40
F2.6266974725985497
aF4.4234221051106921
aF14.7861138056237
asVmomentum
p41
(lp42
F0
aF0
aF0
asa(dp43
Vmagmom
p44
F0
sVindex
p45
I2
sVsymbol
p46
VCu
p47
sVcharge
p48
F0
sVtag
p49
I0
sVposition
p50
(lp51
F5.2533949451970967
aF2.2787325996024776
aF16.302638298508185
asVmomentum
p52
(lp53
F0
aF0
aF0
asa(dp54
Vmagmom
p55
F0
sVindex
p56
I3
sVsymbol
p57
VCu
p58
sVcharge
p59
F0
sVtag
p60
I0
sVposition
p61
(lp62
F2.6266974725985479
aF0.13404309409426141
aF17.819162791392667
asVmomentum
p63
(lp64
F0
aF0
aF0
asa(dp65
Vmagmom
p66
F0
sVindex
p67
I4
sVsymbol
p68
VCu
p69
sVcharge
p70
F0
sVtag
p71
I0
sVposition
p72
(lp73
F3.9400462088978223
aF2.2787325996024785
aF14.027851559181459
asVmomentum
p74
(lp75
F0
aF0
aF0
asa(dp76
Vmagmom
p77
F0
sVindex
p78
I5
sVsymbol
p79
VCu
p80
sVcharge
p81
F0
sVtag
p82
I0
sVposition
p83
(lp84
F1.3133487362992722
aF0.13404309409426229
aF15.544376052065944
asVmomentum
p85
(lp86
F0
aF0
aF0
asa(dp87
Vmagmom
p88
F0
sVindex
p89
I6
sVsymbol
p90
VCu
p91
sVcharge
p92
F0
sVtag
p93
I0
sVposition
p94
(lp95
F3.9400462088978232
aF4.423422105110693
aF17.060900544950421
asVmomentum
p96
(lp97
F0
aF0
aF0
asa(dp98
Vmagmom
p99
F0
sVindex
p100
I7
sVsymbol
p101
VCu
p102
sVcharge
p103
F0
sVtag
p104
I0
sVposition
p105
(lp106
F1.3133487362992735
aF4.4234221051106921
aF12.511327066296978
asVmomentum
p107
(lp108
F0
aF0
aF0
asa(dp109
Vmagmom
p110
F0
sVindex
p111
I8
sVsymbol
p112
VCu
p113
sVcharge
p114
F0
sVtag
p115
I0
sVposition
p116
(lp117
F1.3133487362992744
aF2.278732599602479
aF14.027851559181459
asVmomentum
p118
(lp119
F0
aF0
aF0
asa(dp120
Vmagmom
p121
F0
sVindex
p122
I9
sVsymbol
p123
VCu
p124
sVcharge
p125
F0
sVtag
p126
I0
sVposition
p127
(lp128
F3.9400462088978232
aF0.13404309409426141
aF15.544376052065942
asVmomentum
p129
(lp130
F0
aF0
aF0
asa(dp131
Vmagmom
p132
F0
sVindex
p133
I10
sVsymbol
p134
VCu
p135
sVcharge
p136
F0
sVtag
p137
I0
sVposition
p138
(lp139
F1.313348736299274
aF4.4234221051106939
aF17.060900544950425
asVmomentum
p140
(lp141
F0
aF0
aF0
asa(dp142
Vmagmom
p143
F0
sVindex
p144
I11
sVsymbol
p145
VCu
p146
sVcharge
p147
F0
sVtag
p148
I0
sVposition
p149
(lp150
F3.9400462088978223
aF4.423422105110693
aF12.511327066296975
asVmomentum
p151
(lp152
F0
aF0
aF0
asa(dp153
Vmagmom
p154
F0
sVindex
p155
I12
sVsymbol
p156
VCu
p157
sVcharge
p158
F0
sVtag
p159
I0
sVposition
p160
(lp161
F-8.8817841970012523e-16
aF4.4234221051106912
aF19.335687284277149
asVmomentum
p162
(lp163
F0
aF0
aF0
asa(dp164
Vmagmom
p165
F0
sVindex
p166
I13
sVsymbol
p167
VCu
p168
sVcharge
p169
F0
sVtag
p170
I0
sVposition
p171
(lp172
F2.6266974725985466
aF2.2787325996024768
aF20.852211777161635
asVmomentum
p173
(lp174
F0
aF0
aF0
asa(dp175
Vmagmom
p176
F0
sVindex
p177
I14
sVsymbol
p178
VCu
p179
sVcharge
p180
F0
sVtag
p181
I0
sVposition
p182
(lp183
F5.2533949451970949
aF0.13404309409426318
aF22.368736270046107
asVmomentum
p184
(lp185
F0
aF0
aF0
asa(dp186
Vmagmom
p187
F0
sVindex
p188
I15
sVsymbol
p189
VCu
p190
sVcharge
p191
F0
sVtag
p192
I0
sVposition
p193
(lp194
F2.6266974725985501
aF4.4234221051106912
aF23.885260762930592
asVmomentum
p195
(lp196
F0
aF0
aF0
asa(dp197
Vmagmom
p198
F0
sVindex
p199
I16
sVsymbol
p200
VCu
p201
sVcharge
p202
F0
sVtag
p203
I0
sVposition
p204
(lp205
F3.9400462088978188
aF0.13404309409426318
aF20.093949530719389
asVmomentum
p206
(lp207
F0
aF0
aF0
asa(dp208
Vmagmom
p209
F0
sVindex
p210
I17
sVsymbol
p211
VCu
p212
sVcharge
p213
F0
sVtag
p214
I0
sVposition
p215
(lp216
F1.3133487362992731
aF4.4234221051106895
aF21.610474023603874
asVmomentum
p217
(lp218
F0
aF0
aF0
asa(dp219
Vmagmom
p220
F0
sVindex
p221
I18
sVsymbol
p222
VCu
p223
sVcharge
p224
F0
sVtag
p225
I0
sVposition
p226
(lp227
F3.9400462088978214
aF2.2787325996024776
aF23.126998516488356
asVmomentum
p228
(lp229
F0
aF0
aF0
asa(dp230
Vmagmom
p231
F0
sVindex
p232
I19
sVsymbol
p233
VCu
p234
sVcharge
p235
F0
sVtag
p236
I0
sVposition
p237
(lp238
F1.3133487362992713
aF2.2787325996024776
aF18.577425037834914
asVmomentum
p239
(lp240
F0
aF0
aF0
asa(dp241
Vmagmom
p242
F0
sVindex
p243
I20
sVsymbol
p244
VCu
p245
sVcharge
p246
F0
sVtag
p247
I0
sVposition
p248
(lp249
F1.3133487362992726
aF0.13404309409426407
aF20.093949530719392
asVmomentum
p250
(lp251
F0
aF0
aF0
asa(dp252
Vmagmom
p253
F0
sVindex
p254
I21
sVsymbol
p255
VCu
p256
sVcharge
p257
F0
sVtag
p258
I0
sVposition
p259
(lp260
F3.9400462088978214
aF4.423422105110693
aF21.610474023603871
asVmomentum
p261
(lp262
F0
aF0
aF0
asa(dp263
Vmagmom
p264
F0
sVindex
p265
I22
sVsymbol
p266
VCu
p267
sVcharge
p268
F0
sVtag
p269
I0
sVposition
p270
(lp271
F1.3133487362992735
aF2.2787325996024768
aF23.12699851648836
asVmomentum
p272
(lp273
F0
aF0
aF0
asa(dp274
Vmagmom
p275
F0
sVindex
p276
I23
sVsymbol
p277
VCu
p278
sVcharge
p279
F0
sVtag
p280
I0
sVposition
p281
(lp282
F3.9400462088978219
aF2.2787325996024776
aF18.57742503783491
asVmomentum
p283
(lp284
F0
aF0
aF0
asa(dp285
Vmagmom
p286
F0
sVindex
p287
I24
sVsymbol
p288
VPd
p289
sVcharge
p290
F0
sVtag
p291
I0
sVposition
p292
(lp293
F-8.8817841970012523e-16
aF0.13404309409426141
aF17.819162791392671
asVmomentum
p294
(lp295
F0
aF0
aF0
asa(dp296
Vmagmom
p297
F0
sVindex
p298
I25
sVsymbol
p299
VPd
p300
sVcharge
p301
F0
sVtag
p302
I0
sVposition
p303
(lp304
F2.6266974725985484
aF0.13404309409426229
aF13.269589312739221
asVmomentum
p305
(lp306
F0
aF0
aF0
asa(dp307
Vmagmom
p308
F0
sVindex
p309
I26
sVsymbol
p310
VPd
p311
sVcharge
p312
F0
sVtag
p313
I0
sVposition
p314
(lp315
F0
aF4.423422105110693
aF14.786113805623698
asVmomentum
p316
(lp317
F0
aF0
aF0
asa(dp318
Vmagmom
p319
F0
sVindex
p320
I27
sVsymbol
p321
VPd
p322
sVcharge
p323
F0
sVtag
p324
I0
sVposition
p325
(lp326
F2.6266974725985461
aF2.2787325996024776
aF16.302638298508185
asVmomentum
p327
(lp328
F0
aF0
aF0
asa(dp329
Vmagmom
p330
F0
sVindex
p331
I28
sVsymbol
p332
VPd
p333
sVcharge
p334
F0
sVtag
p335
I0
sVposition
p336
(lp337
F-1.7763568394002505e-15
aF4.423422105110693
aF23.885260762930592
asVmomentum
p338
(lp339
F0
aF0
aF0
asa(dp340
Vmagmom
p341
F0
sVindex
p342
I29
sVsymbol
p343
VPd
p344
sVcharge
p345
F0
sVtag
p346
I0
sVposition
p347
(lp348
F2.6266974725985479
aF4.4234221051106921
aF19.335687284277153
asVmomentum
p349
(lp350
F0
aF0
aF0
asa(dp351
Vmagmom
p352
F0
sVindex
p353
I30
sVsymbol
p354
VPd
p355
sVcharge
p356
F0
sVtag
p357
I0
sVposition
p358
(lp359
F5.2533949451970967
aF2.2787325996024776
aF20.852211777161635
asVmomentum
p360
(lp361
F0
aF0
aF0
asa(dp362
Vmagmom
p363
F0
sVindex
p364
I31
sVsymbol
p365
VPd
p366
sVcharge
p367
F0
sVtag
p368
I0
sVposition
p369
(lp370
F2.6266974725985488
aF0.13404309409426141
aF22.368736270046114
asVmomentum
p371
(lp372
F0
aF0
aF0
asasVcell
p373
(lp374
(lp375
F5.2533949451970994
aF-4.4408920985006262e-16
aF-1.5543122344752192e-15
aa(lp376
F0
aF6.4340685165246452
aF-1.1102230246251565e-15
aa(lp377
F0
aF0
aF36.396587829227578
aasVmass
p378
F2376.4640000000013
sVpbc
p379
(lp380
I01
aI01
aI01
asVspacegroup
p381
VPm (6)
p382
sVconstraints
p383
(lp384
(dp385
Vname
p386
VFixAtoms
p387
sVkwargs
p388
(dp389
Vindices
p390
(lp391
I0
aI1
aI2
aI3
aI4
aI5
aI6
aI7
aI8
aI9
aI10
aI11
aI12
aI13
aI16
aI19
aI20
aI23
aI24
aI25
aI26
aI27
aI29
aI30
assasaa(lp392
S'results'
p393
ag2
((ltRp394
aa(lp395
S'user'
p396
aS'ktran'
p397
aa(lp398
S'inserted-hash'
p399
aS'06de06adc9cba11ff0f060e76f8d975b075f126e'
p400
aa(lp401
S'ctime'
p402
acdatetime
datetime
p403
(S'\x07\xe1\x03\x1f\x13,\x05\x0bD\x7f'
tRp404
aa(lp405
S'mtime'
p406
ag403
(S'\x07\xe1\x03\x1f\x13,\x05\x0bD\xaf'
tRp407
aa(lp408
S'tags'
p409
a(dp410
S'get_slab_settings'
p411
g2
((lp412
(lp413
S'max_broken_bonds'
p414
aI0
aa(lp415
S'bonds'
p416
aNaa(lp417
S'tol'
p418
aF0.29999999999999999
aa(lp419
S'symmetrize'
p420
aI00
aatRp421
sS'relaxed'
p422
I00
sS'mpid'
p423
Vmp-580357
p424
sS'shift'
p425
I0
sS'slab_generate_settings'
p426
g2
((lp427
(lp428
S'primitive'
p429
aI01
aa(lp430
S'min_vacuum_size'
p431
aF20
aa(lp432
S'lll_reduce'
p433
aI00
aa(lp434
S'max_normal_search'
p435
aI1
aa(lp436
S'min_slab_size'
p437
aF7
aa(lp438
S'center_slab'
p439
aI01
aatRp440
sS'miller'
p441
(I2
I1
I1
tp442
sS'top'
p443
I01
sS'type'
p444
S'slab'
p445
sS'num_slab_atoms'
p446
I32
saatRp447
ag2
((lp448
(lp449
g5
a(dp450
Vinfo
p451
(dp452
sVvolume
p453
F1230.2302562212121
sVnatoms
p454
I32
sVsymbol_counts
p455
(dp456
VCu
p457
I24
sVPd
p458
I8
ssVchemical_symbols
p459
(lp460
VPd
p461
aVCu
p462
asVatoms
p463
(lp464
(dp465
Vmagmom
p466
F0
sVindex
p467
I0
sVsymbol
p468
VCu
p469
sVcharge
p470
F0
sVtag
p471
I0
sVposition
p472
(lp473
F-8.8817841970012523e-16
aF-0.13404309409426304
aF-13.269589312739223
asVmomentum
p474
(lp475
F0
aF0
aF0
asa(dp476
Vmagmom
p477
F0
sVindex
p478
I1
sVsymbol
p479
VCu
p480
sVcharge
p481
F0
sVtag
p482
I0
sVposition
p483
(lp484
F2.6266974725985497
aF-4.4234221051106939
aF-14.7861138056237
asVmomentum
p485
(lp486
F0
aF0
aF0
asa(dp487
Vmagmom
p488
F0
sVindex
p489
I2
sVsymbol
p490
VCu
p491
sVcharge
p492
F0
sVtag
p493
I0
sVposition
p494
(lp495
F5.2533949451970967
aF-2.2787325996024794
aF-16.302638298508185
asVmomentum
p496
(lp497
F0
aF0
aF0
asa(dp498
Vmagmom
p499
F0
sVindex
p500
I3
sVsymbol
p501
VCu
p502
sVcharge
p503
F0
sVtag
p504
I0
sVposition
p505
(lp506
F2.6266974725985479
aF-0.1340430940942636
aF-17.819162791392667
asVmomentum
p507
(lp508
F0
aF0
aF0
asa(dp509
Vmagmom
p510
F0
sVindex
p511
I4
sVsymbol
p512
VCu
p513
sVcharge
p514
F0
sVtag
p515
I0
sVposition
p516
(lp517
F3.9400462088978223
aF-2.2787325996024803
aF-14.027851559181459
asVmomentum
p518
(lp519
F0
aF0
aF0
asa(dp520
Vmagmom
p521
F0
sVindex
p522
I5
sVsymbol
p523
VCu
p524
sVcharge
p525
F0
sVtag
p526
I0
sVposition
p527
(lp528
F1.3133487362992722
aF-0.13404309409426421
aF-15.544376052065944
asVmomentum
p529
(lp530
F0
aF0
aF0
asa(dp531
Vmagmom
p532
F0
sVindex
p533
I6
sVsymbol
p534
VCu
p535
sVcharge
p536
F0
sVtag
p537
I0
sVposition
p538
(lp539
F3.9400462088978232
aF-4.4234221051106948
aF-17.060900544950421
asVmomentum
p540
(lp541
F0
aF0
aF0
asa(dp542
Vmagmom
p543
F0
sVindex
p544
I7
sVsymbol
p545
VCu
p546
sVcharge
p547
F0
sVtag
p548
I0
sVposition
p549
(lp550
F1.3133487362992735
aF-4.4234221051106939
aF-12.511327066296978
asVmomentum
p551
(lp552
F0
aF0
aF0
asa(dp553
Vmagmom
p554
F0
sVindex
p555
I8
sVsymbol
p556
VCu
p557
sVcharge
p558
F0
sVtag
p559
I0
sVposition
p560
(lp561
F1.3133487362992744
aF-2.2787325996024808
aF-14.027851559181459
asVmomentum
p562
(lp563
F0
aF0
aF0
asa(dp564
Vmagmom
p565
F0
sVindex
p566
I9
sVsymbol
p567
VCu
p568
sVcharge
p569
F0
sVtag
p570
I0
sVposition
p571
(lp572
F3.9400462088978232
aF-0.13404309409426332
aF-15.544376052065942
asVmomentum
p573
(lp574
F0
aF0
aF0
asa(dp575
Vmagmom
p576
F0
sVindex
p577
I10
sVsymbol
p578
VCu
p579
sVcharge
p580
F0
sVtag
p581
I0
sVposition
p582
(lp583
F1.313348736299274
aF-4.4234221051106957
aF-17.060900544950425
asVmomentum
p584
(lp585
F0
aF0
aF0
asa(dp586
Vmagmom
p587
F0
sVindex
p588
I11
sVsymbol
p589
VCu
p590
sVcharge
p591
F0
sVtag
p592
I0
sVposition
p593
(lp594
F3.9400462088978223
aF-4.4234221051106948
aF-12.511327066296975
asVmomentum
p595
(lp596
F0
aF0
aF0
asa(dp597
Vmagmom
p598
F0
sVindex
p599
I12
sVsymbol
p600
VCu
p601
sVcharge
p602
F0
sVtag
p603
I0
sVposition
p604
(lp605
F-8.8817841970012523e-16
aF-4.4234221051106939
aF-19.335687284277149
asVmomentum
p606
(lp607
F0
aF0
aF0
asa(dp608
Vmagmom
p609
F0
sVindex
p610
I13
sVsymbol
p611
VCu
p612
sVcharge
p613
F0
sVtag
p614
I0
sVposition
p615
(lp616
F2.6266974725985466
aF-2.2787325996024794
aF-20.852211777161635
asVmomentum
p617
(lp618
F0
aF0
aF0
asa(dp619
Vmagmom
p620
F0
sVindex
p621
I14
sVsymbol
p622
VCu
p623
sVcharge
p624
F0
sVtag
p625
I0
sVposition
p626
(lp627
F5.2533949451970949
aF-0.13404309409426593
aF-22.368736270046107
asVmomentum
p628
(lp629
F0
aF0
aF0
asa(dp630
Vmagmom
p631
F0
sVindex
p632
I15
sVsymbol
p633
VCu
p634
sVcharge
p635
F0
sVtag
p636
I0
sVposition
p637
(lp638
F2.6266974725985501
aF-4.4234221051106939
aF-23.885260762930592
asVmomentum
p639
(lp640
F0
aF0
aF0
asa(dp641
Vmagmom
p642
F0
sVindex
p643
I16
sVsymbol
p644
VCu
p645
sVcharge
p646
F0
sVtag
p647
I0
sVposition
p648
(lp649
F3.9400462088978188
aF-0.13404309409426565
aF-20.093949530719389
asVmomentum
p650
(lp651
F0
aF0
aF0
asa(dp652
Vmagmom
p653
F0
sVindex
p654
I17
sVsymbol
p655
VCu
p656
sVcharge
p657
F0
sVtag
p658
I0
sVposition
p659
(lp660
F1.3133487362992731
aF-4.4234221051106921
aF-21.610474023603874
asVmomentum
p661
(lp662
F0
aF0
aF0
asa(dp663
Vmagmom
p664
F0
sVindex
p665
I18
sVsymbol
p666
VCu
p667
sVcharge
p668
F0
sVtag
p669
I0
sVposition
p670
(lp671
F3.9400462088978214
aF-2.2787325996024803
aF-23.126998516488356
asVmomentum
p672
(lp673
F0
aF0
aF0
asa(dp674
Vmagmom
p675
F0
sVindex
p676
I19
sVsymbol
p677
VCu
p678
sVcharge
p679
F0
sVtag
p680
I0
sVposition
p681
(lp682
F1.3133487362992713
aF-2.2787325996024799
aF-18.577425037834914
asVmomentum
p683
(lp684
F0
aF0
aF0
asa(dp685
Vmagmom
p686
F0
sVindex
p687
I20
sVsymbol
p688
VCu
p689
sVcharge
p690
F0
sVtag
p691
I0
sVposition
p692
(lp693
F1.3133487362992726
aF-0.13404309409426654
aF-20.093949530719392
asVmomentum
p694
(lp695
F0
aF0
aF0
asa(dp696
Vmagmom
p697
F0
sVindex
p698
I21
sVsymbol
p699
VCu
p700
sVcharge
p701
F0
sVtag
p702
I0
sVposition
p703
(lp704
F3.9400462088978214
aF-4.4234221051106957
aF-21.610474023603871
asVmomentum
p705
(lp706
F0
aF0
aF0
asa(dp707
Vmagmom
p708
F0
sVindex
p709
I22
sVsymbol
p710
VCu
p711
sVcharge
p712
F0
sVtag
p713
I0
sVposition
p714
(lp715
F1.3133487362992735
aF-2.2787325996024794
aF-23.12699851648836
asVmomentum
p716
(lp717
F0
aF0
aF0
asa(dp718
Vmagmom
p719
F0
sVindex
p720
I23
sVsymbol
p721
VCu
p722
sVcharge
p723
F0
sVtag
p724
I0
sVposition
p725
(lp726
F3.9400462088978219
aF-2.2787325996024799
aF-18.57742503783491
asVmomentum
p727
(lp728
F0
aF0
aF0
asa(dp729
Vmagmom
p730
F0
sVindex
p731
I24
sVsymbol
p732
VPd
p733
sVcharge
p734
F0
sVtag
p735
I0
sVposition
p736
(lp737
F-8.8817841970012523e-16
aF-0.1340430940942636
aF-17.819162791392671
asVmomentum
p738
(lp739
F0
aF0
aF0
asa(dp740
Vmagmom
p741
F0
sVindex
p742
I25
sVsymbol
p743
VPd
p744
sVcharge
p745
F0
sVtag
p746
I0
sVposition
p747
(lp748
F2.6266974725985484
aF-0.13404309409426393
aF-13.269589312739221
asVmomentum
p749
(lp750
F0
aF0
aF0
asa(dp751
Vmagmom
p752
F0
sVindex
p753
I26
sVsymbol
p754
VPd
p755
sVcharge
p756
F0
sVtag
p757
I0
sVposition
p758
(lp759
F0
aF-4.4234221051106948
aF-14.786113805623698
asVmomentum
p760
(lp761
F0
aF0
aF0
asa(dp762
Vmagmom
p763
F0
sVindex
p764
I27
sVsymbol
p765
VPd
p766
sVcharge
p767
F0
sVtag
p768
I0
sVposition
p769
(lp770
F2.6266974725985461
aF-2.2787325996024794
aF-16.302638298508185
asVmomentum
p771
(lp772
F0
aF0
aF0
asa(dp773
Vmagmom
p774
F0
sVindex
p775
I28
sVsymbol
p776
VPd
p777
sVcharge
p778
F0
sVtag
p779
I0
sVposition
p780
(lp781
F-1.7763568394002505e-15
aF-4.4234221051106957
aF-23.885260762930592
asVmomentum
p782
(lp783
F0
aF0
aF0
asa(dp784
Vmagmom
p785
F0
sVindex
p786
I29
sVsymbol
p787
VPd
p788
sVcharge
p789
F0
sVtag
p790
I0
sVposition
p791
(lp792
F2.6266974725985479
aF-4.4234221051106948
aF-19.335687284277153
asVmomentum
p793
(lp794
F0
aF0
aF0
asa(dp795
Vmagmom
p796
F0
sVindex
p797
I30
sVsymbol
p798
VPd
p799
sVcharge
p800
F0
sVtag
p801
I0
sVposition
p802
(lp803
F5.2533949451970967
aF-2.2787325996024803
aF-20.852211777161635
asVmomentum
p804
(lp805
F0
aF0
aF0
asa(dp806
Vmagmom
p807
F0
sVindex
p808
I31
sVsymbol
p809
VPd
p810
sVcharge
p811
F0
sVtag
p812
I0
sVposition
p813
(lp814
F2.6266974725985488
aF-0.13404309409426415
aF-22.368736270046114
asVmomentum
p815
(lp816
F0
aF0
aF0
asasVcell
p817
(lp818
(lp819
F5.2533949451970994
aF4.4408920985006281e-16
aF1.5543122344752192e-15
aa(lp820
F0
aF-6.4340685165246452
aF1.8981691660508231e-15
aa(lp821
F0
aF-4.4572964784949062e-15
aF-36.396587829227578
aasVmass
p822
F2376.4640000000013
sVpbc
p823
(lp824
I01
aI01
aI01
asVspacegroup
p825
VPm (6)
p826
sVconstraints
p827
(lp828
(dp829
Vname
p830
VFixAtoms
p831
sVkwargs
p832
(dp833
Vindices
p834
(lp835
I2
aI3
aI5
aI6
aI9
aI10
aI12
aI13
aI14
aI15
aI16
aI17
aI18
aI19
aI20
aI21
aI22
aI23
aI24
aI27
aI28
aI29
aI30
aI31
assasaa(lp836
g393
ag2
((ltRp837
aa(lp838
g396
ag397
aa(lp839
g399
aS'fa0b00a59a9071ff82f4bbcf0bea770397a0b1fc'
p840
aa(lp841
g402
ag403
(S'\x07\xe1\x03\x1f\x13,\x05\x0by5'
tRp842
aa(lp843
g406
ag403
(S'\x07\xe1\x03\x1f\x13,\x05\x0by>'
tRp844
aa(lp845
g409
a(dp846
g411
g421
sg422
I00
sg423
g424
sg425
I0
sg426
g440
sg441
g442
sg443
I00
sg444
g445
sg446
I32
saatRp847
a.