(lp1
ccollections
OrderedDict
p2
((lp3
(lp4
S'atoms'
p5
a(dp6
Vinfo
p7
(dp8
sVvolume
p9
F926.79239805663622
sVnatoms
p10
I20
sVsymbol_counts
p11
(dp12
VPd
p13
I20
ssVchemical_symbols
p14
(lp15
VPd
p16
asVatoms
p17
(lp18
(dp19
Vmagmom
p20
F0
sVindex
p21
I0
sVsymbol
p22
VPd
p23
sVcharge
p24
F0
sVtag
p25
I0
sVposition
p26
(lp27
F-2.1128982889474366e-16
aF6.343765297850287
aF24.982006840806658
asVmomentum
p28
(lp29
F0
aF0
aF0
asa(dp30
Vmagmom
p31
F0
sVindex
p32
I1
sVsymbol
p33
VPd
p34
sVcharge
p35
F0
sVtag
p36
I0
sVposition
p37
(lp38
F2.7954307412020607
aF1.6033692511050175
aF23.99613443193504
asVmomentum
p39
(lp40
F0
aF0
aF0
asa(dp41
Vmagmom
p42
F0
sVindex
p43
I2
sVsymbol
p44
VPd
p45
sVcharge
p46
F0
sVtag
p47
I0
sVposition
p48
(lp49
F-2.1128982889474361e-16
aF4.11299068761722
aF19.855470314674271
asVmomentum
p50
(lp51
F0
aF0
aF0
asa(dp52
Vmagmom
p53
F0
sVindex
p54
I3
sVsymbol
p55
VPd
p56
sVcharge
p57
F0
sVtag
p58
I0
sVposition
p59
(lp60
F1.565067010505507e-15
aF5.2283779927337566
aF22.41873857774047
asVmomentum
p61
(lp62
F0
aF0
aF0
asa(dp63
Vmagmom
p64
F0
sVindex
p65
I4
sVsymbol
p66
VPd
p67
sVcharge
p68
F0
sVtag
p69
I0
sVposition
p70
(lp71
F2.7954307412020589
aF0.48798194598848177
aF21.432866168868852
asVmomentum
p72
(lp73
F0
aF0
aF0
asa(dp74
Vmagmom
p75
F0
sVindex
p76
I5
sVsymbol
p77
VPd
p78
sVcharge
p79
F0
sVtag
p80
I0
sVposition
p81
(lp82
F1.3977153706010323
aF7.5985760161063887
aF22.911674782176277
asVmomentum
p83
(lp84
F0
aF0
aF0
asa(dp85
Vmagmom
p86
F0
sVindex
p87
I6
sVsymbol
p88
VPd
p89
sVcharge
p90
F0
sVtag
p91
I0
sVposition
p92
(lp93
F1.3977153706010303
aF2.858179969361121
aF21.925802373304663
asVmomentum
p94
(lp95
F0
aF0
aF0
asa(dp96
Vmagmom
p97
F0
sVindex
p98
I7
sVsymbol
p99
VPd
p100
sVcharge
p101
F0
sVtag
p102
I0
sVposition
p103
(lp104
F1.3977153706010321
aF3.973567274477654
aF24.489070636370855
asVmomentum
p105
(lp106
F0
aF0
aF0
asa(dp107
Vmagmom
p108
F0
sVindex
p109
I8
sVsymbol
p110
VPd
p111
sVcharge
p112
F0
sVtag
p113
I0
sVposition
p114
(lp115
F1.3977153706010323
aF6.4831887109898556
aF20.348406519110082
asVmomentum
p116
(lp117
F0
aF0
aF0
asa(dp118
Vmagmom
p119
F0
sVindex
p120
I9
sVsymbol
p121
VPd
p122
sVcharge
p123
F0
sVtag
p124
I0
sVposition
p125
(lp126
F1.3977153706010301
aF0.34855853284891225
aF26.066466490565432
asVmomentum
p127
(lp128
F0
aF0
aF0
asa(dp129
Vmagmom
p130
F0
sVindex
p131
I10
sVsymbol
p132
VPd
p133
sVcharge
p134
F0
sVtag
p135
I0
sVposition
p136
(lp137
F1.7662954189766912e-15
aF7.7379994292459546
aF18.278074460479694
asVmomentum
p138
(lp139
F0
aF0
aF0
asa(dp140
Vmagmom
p141
F0
sVindex
p142
I11
sVsymbol
p143
VPd
p144
sVcharge
p145
F0
sVtag
p146
I0
sVposition
p147
(lp148
F1.5650670105055068e-15
aF2.9976033825006834
aF17.292202051608079
asVmomentum
p149
(lp150
F0
aF0
aF0
asa(dp151
Vmagmom
p152
F0
sVindex
p153
I12
sVsymbol
p154
VPd
p155
sVcharge
p156
F0
sVtag
p157
I0
sVposition
p158
(lp159
F3.5426522583769416e-15
aF5.5072248190128876
aF13.151537934347312
asVmomentum
p160
(lp161
F0
aF0
aF0
asa(dp162
Vmagmom
p163
F0
sVindex
p164
I13
sVsymbol
p165
VPd
p166
sVcharge
p167
F0
sVtag
p168
I0
sVposition
p169
(lp170
F-1.0061420423559276e-17
aF6.6226121241294216
aF15.714806197413504
asVmomentum
p171
(lp172
F0
aF0
aF0
asa(dp173
Vmagmom
p174
F0
sVindex
p175
I14
sVsymbol
p176
VPd
p177
sVcharge
p178
F0
sVtag
p179
I0
sVposition
p180
(lp181
F6.7688859080538133e-16
aF1.8822160773841463
aF14.728933788541889
asVmomentum
p182
(lp183
F0
aF0
aF0
asa(dp184
Vmagmom
p185
F0
sVindex
p186
I15
sVsymbol
p187
VPd
p188
sVcharge
p189
F0
sVtag
p190
I0
sVposition
p191
(lp192
F1.3977153706010303
aF0.62740535912804773
aF16.799265847172279
asVmomentum
p193
(lp194
F0
aF0
aF0
asa(dp195
Vmagmom
p196
F0
sVindex
p197
I16
sVsymbol
p198
VPd
p199
sVcharge
p200
F0
sVtag
p201
I0
sVposition
p202
(lp203
F1.3977153706010288
aF4.2524141007567859
aF15.221869992977693
asVmomentum
p204
(lp205
F0
aF0
aF0
asa(dp206
Vmagmom
p207
F0
sVindex
p208
I17
sVsymbol
p209
VPd
p210
sVcharge
p211
F0
sVtag
p212
I0
sVposition
p213
(lp214
F1.3977153706010323
aF5.3678014058733181
aF17.785138256043886
asVmomentum
p215
(lp216
F0
aF0
aF0
asa(dp217
Vmagmom
p218
F0
sVindex
p219
I18
sVsymbol
p220
VPd
p221
sVcharge
p222
F0
sVtag
p223
I0
sVposition
p224
(lp225
F1.3977153706010306
aF7.8774228423855188
aF13.644474138783119
asVmomentum
p226
(lp227
F0
aF0
aF0
asa(dp228
Vmagmom
p229
F0
sVindex
p230
I19
sVsymbol
p231
VPd
p232
sVcharge
p233
F0
sVtag
p234
I0
sVposition
p235
(lp236
F1.3977153706010303
aF1.7427926642445817
aF19.362534110238471
asVmomentum
p237
(lp238
F0
aF0
aF0
asasVcell
p239
(lp240
(lp241
F2.7954307412020603
aF0
aF-2.2204460492503131e-16
aa(lp242
F4.0245681694236884e-16
aF8.3654047883740077
aF-0.59152344532296786
aa(lp243
F-8.0491363388473777e-16
aF-1.7763568394002505e-15
aF39.632070836638817
aasVmass
p244
F2128.4000000000005
sVpbc
p245
(lp246
I01
aI01
aI01
asVspacegroup
p247
VP2_1/m (11)
p248
sVconstraints
p249
(lp250
(dp251
Vname
p252
VFixAtoms
p253
sVkwargs
p254
(dp255
Vindices
p256
(lp257
I2
aI3
aI4
aI6
aI8
aI10
aI11
aI12
aI13
aI14
aI15
aI16
aI17
aI18
aI19
assasaa(lp258
S'results'
p259
ag2
((ltRp260
aa(lp261
S'user'
p262
aS'ktran'
p263
aa(lp264
S'inserted-hash'
p265
aS'74bfe60f9f28be4d7c51d6d622c4642d4fdb36dd'
p266
aa(lp267
S'ctime'
p268
acdatetime
datetime
p269
(S'\x07\xe1\x03\x1f\x13/\x1d\x0c\x19Z'
tRp270
aa(lp271
S'mtime'
p272
ag269
(S'\x07\xe1\x03\x1f\x13/\x1d\x0c\x19}'
tRp273
aa(lp274
S'tags'
p275
a(dp276
S'get_slab_settings'
p277
g2
((lp278
(lp279
S'max_broken_bonds'
p280
aI0
aa(lp281
S'bonds'
p282
aNaa(lp283
S'tol'
p284
aF0.29999999999999999
aa(lp285
S'symmetrize'
p286
aI00
aatRp287
sS'relaxed'
p288
I00
sS'mpid'
p289
Vmp-2
p290
sS'shift'
p291
I0
sS'slab_generate_settings'
p292
g2
((lp293
(lp294
S'primitive'
p295
aI01
aa(lp296
S'min_vacuum_size'
p297
aF20
aa(lp298
S'lll_reduce'
p299
aI00
aa(lp300
S'max_normal_search'
p301
aI1
aa(lp302
S'min_slab_size'
p303
aF7
aa(lp304
S'center_slab'
p305
aI01
aatRp306
sS'miller'
p307
(I2
I2
I1
tp308
sS'top'
p309
I01
sS'type'
p310
S'slab'
p311
sS'num_slab_atoms'
p312
I20
saatRp313
a.