(lp1
ccollections
OrderedDict
p2
((lp3
(lp4
S'atoms'
p5
a(dp6
Vinfo
p7
(dp8
sVvolume
p9
F556.07543883398182
sVnatoms
p10
I12
sVsymbol_counts
p11
(dp12
VPd
p13
I12
ssVchemical_symbols
p14
(lp15
VPd
p16
asVatoms
p17
(lp18
(dp19
Vmagmom
p20
F0
sVindex
p21
I0
sVsymbol
p22
VPd
p23
sVcharge
p24
F0
sVtag
p25
I0
sVposition
p26
(lp27
F1.9766680334413145
aF3.5550446760335541
aF13.525514801920774
asVmomentum
p28
(lp29
F0
aF0
aF0
asa(dp30
Vmagmom
p31
F0
sVindex
p32
I1
sVsymbol
p33
VPd
p34
sVcharge
p35
F0
sVtag
p36
I0
sVposition
p37
(lp38
F4.3214078331993001e-16
aF2.5743426964380913
aF11.809286337628713
asVmomentum
p39
(lp40
F0
aF0
aF0
asa(dp41
Vmagmom
p42
F0
sVindex
p43
I2
sVsymbol
p44
VPd
p45
sVcharge
p46
F0
sVtag
p47
I0
sVposition
p48
(lp49
F1.9766680334413145
aF0.12258774744942968
aF15.486918761111703
asVmomentum
p50
(lp51
F0
aF0
aF0
asa(dp52
Vmagmom
p53
F0
sVindex
p54
I3
sVsymbol
p55
VPd
p56
sVcharge
p57
F0
sVtag
p58
I0
sVposition
p59
(lp60
F1.9766680334413136
aF0.85811423214603
aF12.789988317224175
asVmomentum
p61
(lp62
F0
aF0
aF0
asa(dp63
Vmagmom
p64
F0
sVindex
p65
I4
sVsymbol
p66
VPd
p67
sVcharge
p68
F0
sVtag
p69
I0
sVposition
p70
(lp71
F1.9766680334413145
aF4.2905711607301544
aF10.828584358033247
asVmomentum
p72
(lp73
F0
aF0
aF0
asa(dp74
Vmagmom
p75
F0
sVindex
p76
I5
sVsymbol
p77
VPd
p78
sVcharge
p79
F0
sVtag
p80
I0
sVposition
p81
(lp82
F9.9066613178397451e-16
aF1.8388162117414923
aF14.506216781516237
asVmomentum
p83
(lp84
F0
aF0
aF0
asa(dp85
Vmagmom
p86
F0
sVindex
p87
I6
sVsymbol
p88
VPd
p89
sVcharge
p90
F0
sVtag
p91
I0
sVposition
p92
(lp93
F1.9766680334413138
aF2.0839917066403615
aF18.919375689695826
asVmomentum
p94
(lp95
F0
aF0
aF0
asa(dp96
Vmagmom
p97
F0
sVindex
p98
I7
sVsymbol
p99
VPd
p100
sVcharge
p101
F0
sVtag
p102
I0
sVposition
p103
(lp104
F4.944796068541209e-16
aF1.1032897270448956
aF17.203147225403765
asVmomentum
p105
(lp106
F0
aF0
aF0
asa(dp107
Vmagmom
p108
F0
sVindex
p109
I8
sVsymbol
p110
VPd
p111
sVcharge
p112
F0
sVtag
p113
I0
sVposition
p114
(lp115
F6.5190949747731677e-16
aF3.0646936862358212
aF20.635604153987885
asVmomentum
p116
(lp117
F0
aF0
aF0
asa(dp118
Vmagmom
p119
F0
sVindex
p120
I9
sVsymbol
p121
VPd
p122
sVcharge
p123
F0
sVtag
p124
I0
sVposition
p125
(lp126
F1.7587186859510067e-15
aF3.8002201709324206
aF17.93867371010036
asVmomentum
p127
(lp128
F0
aF0
aF0
asa(dp129
Vmagmom
p130
F0
sVindex
p131
I10
sVsymbol
p132
VPd
p133
sVcharge
p134
F0
sVtag
p135
I0
sVposition
p136
(lp137
F1.9766680334413136
aF2.81951819133696
aF16.222445245808299
asVmomentum
p138
(lp139
F0
aF0
aF0
asa(dp140
Vmagmom
p141
F0
sVindex
p142
I11
sVsymbol
p143
VPd
p144
sVcharge
p145
F0
sVtag
p146
I0
sVposition
p147
(lp148
F2.6048657539895599e-17
aF0.36776324234829616
aF19.900077669291282
asVmomentum
p149
(lp150
F0
aF0
aF0
asasVcell
p151
(lp152
(lp153
F3.9533360668826272
aF0
aF-8.778169451068301e-16
aa(lp154
F-1.9766680334413134
aF4.4131589081795868
aF-0.24517549489886536
aa(lp155
F0
aF0
aF31.872814336852578
aasVmass
p156
F1277.04
sVpbc
p157
(lp158
I01
aI01
aI01
asVspacegroup
p159
VC2/m (12)
p160
sVconstraints
p161
(lp162
(dp163
Vname
p164
VFixAtoms
p165
sVkwargs
p166
(dp167
Vindices
p168
(lp169
I0
aI1
aI2
aI3
aI4
aI5
aI7
aI10
assasaa(lp170
S'results'
p171
ag2
((ltRp172
aa(lp173
S'user'
p174
aS'ktran'
p175
aa(lp176
S'inserted-hash'
p177
aS'42de0af44c070e6f42dfe21eeac17aefc21fda7e'
p178
aa(lp179
S'ctime'
p180
acdatetime
datetime
p181
(S'\x07\xe1\x03\x1f\x13/\x1f\x00\x07\xd1'
tRp182
aa(lp183
S'mtime'
p184
ag181
(S'\x07\xe1\x03\x1f\x13/\x1f\x00\x07\xfa'
tRp185
aa(lp186
S'tags'
p187
a(dp188
S'get_slab_settings'
p189
g2
((lp190
(lp191
S'max_broken_bonds'
p192
aI0
aa(lp193
S'bonds'
p194
aNaa(lp195
S'tol'
p196
aF0.29999999999999999
aa(lp197
S'symmetrize'
p198
aI00
aatRp199
sS'relaxed'
p200
I00
sS'mpid'
p201
Vmp-2
p202
sS'shift'
p203
I0
sS'slab_generate_settings'
p204
g2
((lp205
(lp206
S'primitive'
p207
aI01
aa(lp208
S'min_vacuum_size'
p209
aF20
aa(lp210
S'lll_reduce'
p211
aI00
aa(lp212
S'max_normal_search'
p213
aI1
aa(lp214
S'min_slab_size'
p215
aF7
aa(lp216
S'center_slab'
p217
aI01
aatRp218
sS'miller'
p219
(I2
I1
I0
tp220
sS'top'
p221
I01
sS'type'
p222
S'slab'
p223
sS'num_slab_atoms'
p224
I12
saatRp225
a.