(lp1
ccollections
OrderedDict
p2
((lp3
(lp4
S'atoms'
p5
a(dp6
Vinfo
p7
(dp8
sVvolume
p9
F410.07675207373728
sVnatoms
p10
I8
sVsymbol_counts
p11
(dp12
VCu
p13
I6
sVPd
p14
I2
ssVchemical_symbols
p15
(lp16
VPd
p17
aVCu
p18
asVatoms
p19
(lp20
(dp21
Vmagmom
p22
F0
sVindex
p23
I0
sVsymbol
p24
VCu
p25
sVcharge
p26
F0
sVtag
p27
I0
sVposition
p28
(lp29
F1.857355595
aF1.8573555950000005
aF13.930166962499998
asVmomentum
p30
(lp31
F0
aF0
aF0
asa(dp32
Vmagmom
p33
F0
sVindex
p34
I1
sVsymbol
p35
VCu
p36
sVcharge
p37
F0
sVtag
p38
I0
sVposition
p39
(lp40
F1.8573555949999998
aF9.8607613152626476e-32
aF12.072811367499998
asVmomentum
p41
(lp42
F0
aF0
aF0
asa(dp43
Vmagmom
p44
F0
sVindex
p45
I2
sVsymbol
p46
VCu
p47
sVcharge
p48
F0
sVtag
p49
I0
sVposition
p50
(lp51
F1.1373022921475887e-16
aF1.8573555950000002
aF12.072811367499998
asVmomentum
p52
(lp53
F0
aF0
aF0
asa(dp54
Vmagmom
p55
F0
sVindex
p56
I3
sVsymbol
p57
VPd
p58
sVcharge
p59
F0
sVtag
p60
I0
sVposition
p61
(lp62
F0
aF0
aF13.930166962499998
asVmomentum
p63
(lp64
F0
aF0
aF0
asa(dp65
Vmagmom
p66
F0
sVindex
p67
I4
sVsymbol
p68
VCu
p69
sVcharge
p70
F0
sVtag
p71
I0
sVposition
p72
(lp73
F1.857355595
aF1.8573555950000005
aF17.644878152499999
asVmomentum
p74
(lp75
F0
aF0
aF0
asa(dp76
Vmagmom
p77
F0
sVindex
p78
I5
sVsymbol
p79
VCu
p80
sVcharge
p81
F0
sVtag
p82
I0
sVposition
p83
(lp84
F1.8573555949999998
aF-1.9721522630525295e-31
aF15.787522557499999
asVmomentum
p85
(lp86
F0
aF0
aF0
asa(dp87
Vmagmom
p88
F0
sVindex
p89
I6
sVsymbol
p90
VCu
p91
sVcharge
p92
F0
sVtag
p93
I0
sVposition
p94
(lp95
F1.1373022921475889e-16
aF1.8573555950000002
aF15.787522557499999
asVmomentum
p96
(lp97
F0
aF0
aF0
asa(dp98
Vmagmom
p99
F0
sVindex
p100
I7
sVsymbol
p101
VPd
p102
sVcharge
p103
F0
sVtag
p104
I0
sVposition
p105
(lp106
F-1.0947644252537633e-47
aF-1.9721522630525295e-31
aF17.644878152499999
asVmomentum
p107
(lp108
F0
aF0
aF0
asasVcell
p109
(lp110
(lp111
F3.7147111899999996
aF0
aF1.3927936117414922e-32
aa(lp112
F2.2746045842951768e-16
aF3.7147111899999996
aF2.2746045842951768e-16
aa(lp113
F0
aF0
aF29.717689519999997
aasVmass
p114
F594.11599999999999
sVpbc
p115
(lp116
I01
aI01
aI01
asVspacegroup
p117
VP4mm (99)
p118
sVconstraints
p119
(lp120
(dp121
Vname
p122
VFixAtoms
p123
sVkwargs
p124
(dp125
Vindices
p126
(lp127
I0
aI1
aI2
aI3
assasaa(lp128
S'results'
p129
ag2
((ltRp130
aa(lp131
S'user'
p132
aS'ktran'
p133
aa(lp134
S'inserted-hash'
p135
aS'79844d6dc64a185ceec739f7be76291e7b1fe094'
p136
aa(lp137
S'ctime'
p138
acdatetime
datetime
p139
(S'\x07\xe1\x03\x1f\x13,\x06\x00\xdc\x92'
tRp140
aa(lp141
S'mtime'
p142
ag139
(S'\x07\xe1\x03\x1f\x13,\x06\x00\xdc\xc2'
tRp143
aa(lp144
S'tags'
p145
a(dp146
S'get_slab_settings'
p147
g2
((lp148
(lp149
S'max_broken_bonds'
p150
aI0
aa(lp151
S'bonds'
p152
aNaa(lp153
S'tol'
p154
aF0.29999999999999999
aa(lp155
S'symmetrize'
p156
aI00
aatRp157
sS'relaxed'
p158
I00
sS'mpid'
p159
Vmp-580357
p160
sS'shift'
p161
I0
sS'slab_generate_settings'
p162
g2
((lp163
(lp164
S'primitive'
p165
aI01
aa(lp166
S'min_vacuum_size'
p167
aF20
aa(lp168
S'lll_reduce'
p169
aI00
aa(lp170
S'max_normal_search'
p171
aI1
aa(lp172
S'min_slab_size'
p173
aF7
aa(lp174
S'center_slab'
p175
aI01
aatRp176
sS'miller'
p177
(I1
I0
I0
tp178
sS'top'
p179
I01
sS'type'
p180
S'slab'
p181
sS'num_slab_atoms'
p182
I8
saatRp183
ag2
((lp184
(lp185
g5
a(dp186
Vinfo
p187
(dp188
sVvolume
p189
F410.07675207373728
sVnatoms
p190
I8
sVsymbol_counts
p191
(dp192
VCu
p193
I6
sVPd
p194
I2
ssVchemical_symbols
p195
(lp196
VPd
p197
aVCu
p198
asVatoms
p199
(lp200
(dp201
Vmagmom
p202
F0
sVindex
p203
I0
sVsymbol
p204
VCu
p205
sVcharge
p206
F0
sVtag
p207
I0
sVposition
p208
(lp209
F1.857355595
aF-1.8573555950000022
aF-13.930166962499998
asVmomentum
p210
(lp211
F0
aF0
aF0
asa(dp212
Vmagmom
p213
F0
sVindex
p214
I1
sVsymbol
p215
VCu
p216
sVcharge
p217
F0
sVtag
p218
I0
sVposition
p219
(lp220
F1.8573555949999998
aF-1.4784929797918653e-15
aF-12.072811367499998
asVmomentum
p221
(lp222
F0
aF0
aF0
asa(dp223
Vmagmom
p224
F0
sVindex
p225
I2
sVsymbol
p226
VCu
p227
sVcharge
p228
F0
sVtag
p229
I0
sVposition
p230
(lp231
F1.1373022921475887e-16
aF-1.8573555950000018
aF-12.072811367499998
asVmomentum
p232
(lp233
F0
aF0
aF0
asa(dp234
Vmagmom
p235
F0
sVindex
p236
I3
sVsymbol
p237
VPd
p238
sVcharge
p239
F0
sVtag
p240
I0
sVposition
p241
(lp242
F0
aF-1.7059534382213829e-15
aF-13.930166962499998
asVmomentum
p243
(lp244
F0
aF0
aF0
asa(dp245
Vmagmom
p246
F0
sVindex
p247
I4
sVsymbol
p248
VCu
p249
sVcharge
p250
F0
sVtag
p251
I0
sVposition
p252
(lp253
F1.857355595
aF-1.8573555950000027
aF-17.644878152499999
asVmomentum
p254
(lp255
F0
aF0
aF0
asa(dp256
Vmagmom
p257
F0
sVindex
p258
I5
sVsymbol
p259
VCu
p260
sVcharge
p261
F0
sVtag
p262
I0
sVposition
p263
(lp264
F1.8573555949999998
aF-1.9334138966509006e-15
aF-15.787522557499999
asVmomentum
p265
(lp266
F0
aF0
aF0
asa(dp267
Vmagmom
p268
F0
sVindex
p269
I6
sVsymbol
p270
VCu
p271
sVcharge
p272
F0
sVtag
p273
I0
sVposition
p274
(lp275
F1.1373022921475889e-16
aF-1.8573555950000022
aF-15.787522557499999
asVmomentum
p276
(lp277
F0
aF0
aF0
asa(dp278
Vmagmom
p279
F0
sVindex
p280
I7
sVsymbol
p281
VPd
p282
sVcharge
p283
F0
sVtag
p284
I0
sVposition
p285
(lp286
F-1.0947644252537633e-47
aF-2.1608743550804188e-15
aF-17.644878152499999
asVmomentum
p287
(lp288
F0
aF0
aF0
asasVcell
p289
(lp290
(lp291
F3.7147111899999996
aF-1.7056802384920999e-48
aF-1.3927936117414922e-32
aa(lp292
F2.2746045842951768e-16
aF-3.7147111899999996
aF2.2746045842951778e-16
aa(lp293
F0
aF-3.6393673348722837e-15
aF-29.717689519999997
aasVmass
p294
F594.11599999999999
sVpbc
p295
(lp296
I01
aI01
aI01
asVspacegroup
p297
VP4mm (99)
p298
sVconstraints
p299
(lp300
(dp301
Vname
p302
VFixAtoms
p303
sVkwargs
p304
(dp305
Vindices
p306
(lp307
I4
aI5
aI6
aI7
assasaa(lp308
g129
ag2
((ltRp309
aa(lp310
g132
ag133
aa(lp311
g135
aS'd96f9876320474c8eefa4c1686eab250655ee2cd'
p312
aa(lp313
g138
ag139
(S'\x07\xe1\x03\x1f\x13,\x06\x01\x0fJ'
tRp314
aa(lp315
g142
ag139
(S'\x07\xe1\x03\x1f\x13,\x06\x01\x0fS'
tRp316
aa(lp317
g145
a(dp318
g147
g157
sg158
I00
sg159
g160
sg161
I0
sg162
g176
sg177
g178
sg179
I00
sg180
g181
sg182
I8
saatRp319
a.