(lp1
ccollections
OrderedDict
p2
((lp3
(lp4
S'atoms'
p5
a(dp6
Vinfo
p7
(dp8
sVvolume
p9
F2871.7275206217528
sVnatoms
p10
I56
sVsymbol_counts
p11
(dp12
VCu
p13
I42
sVPd
p14
I14
ssVchemical_symbols
p15
(lp16
VPd
p17
aVCu
p18
asVatoms
p19
(lp20
(dp21
Vmagmom
p22
F0
sVindex
p23
I0
sVsymbol
p24
VCu
p25
sVcharge
p26
F0
sVtag
p27
I0
sVposition
p28
(lp29
F1.3553583908300774e-15
aF22.13468229000771
aF10.252708482500667
asVmomentum
p30
(lp31
F0
aF0
aF0
asa(dp32
Vmagmom
p33
F0
sVindex
p34
I1
sVsymbol
p35
VCu
p36
sVcharge
p37
F0
sVtag
p38
I0
sVposition
p39
(lp40
F1.1285775148126126e-16
aF1.8431069523039172
aF12.116837297500785
asVmomentum
p41
(lp42
F0
aF0
aF0
asa(dp43
Vmagmom
p44
F0
sVindex
p45
I2
sVsymbol
p46
VCu
p47
sVcharge
p48
F0
sVtag
p49
I0
sVposition
p50
(lp51
F1.8641288150001212
aF9.2210799193389974
aF10.252708482500665
asVmomentum
p52
(lp53
F0
aF0
aF0
asa(dp54
Vmagmom
p55
F0
sVindex
p56
I3
sVsymbol
p57
VCu
p58
sVcharge
p59
F0
sVtag
p60
I0
sVposition
p61
(lp62
F3.389107100780597e-16
aF5.5348319256461949
aF12.116837297500785
asVmomentum
p63
(lp64
F0
aF0
aF0
asa(dp65
Vmagmom
p66
F0
sVindex
p67
I4
sVsymbol
p68
VCu
p69
sVcharge
p70
F0
sVtag
p71
I0
sVposition
p72
(lp73
F1.1295134718923474e-15
aF18.446354862132637
aF10.252708482500667
asVmomentum
p74
(lp75
F0
aF0
aF0
asa(dp76
Vmagmom
p77
F0
sVindex
p78
I5
sVsymbol
p79
VCu
p80
sVcharge
p81
F0
sVtag
p82
I0
sVposition
p83
(lp84
F1.864128815000121
aF7.3787094978706218
aF12.116837297500783
asVmomentum
p85
(lp86
F0
aF0
aF0
asa(dp87
Vmagmom
p88
F0
sVindex
p89
I6
sVsymbol
p90
VCu
p91
sVcharge
p92
F0
sVtag
p93
I0
sVposition
p94
(lp95
F2.2597072948254143e-16
aF3.6903820699955454
aF13.980966112500907
asVmomentum
p96
(lp97
F0
aF0
aF0
asa(dp98
Vmagmom
p99
F0
sVindex
p100
I7
sVsymbol
p101
VCu
p102
sVcharge
p103
F0
sVtag
p104
I0
sVposition
p105
(lp106
F1.4684713688313577e-15
aF23.98195740769934
aF8.3885796675005473
asVmomentum
p107
(lp108
F0
aF0
aF0
asa(dp109
Vmagmom
p110
F0
sVindex
p111
I8
sVsymbol
p112
VCu
p113
sVcharge
p114
F0
sVtag
p115
I0
sVposition
p116
(lp117
F6.7772222338040258e-16
aF11.068043845005093
aF10.252708482500667
asVmomentum
p118
(lp119
F0
aF0
aF0
asa(dp120
Vmagmom
p121
F0
sVindex
p122
I9
sVsymbol
p123
VCu
p124
sVcharge
p125
F0
sVtag
p126
I0
sVposition
p127
(lp128
F1.8641288150001218
aF22.13468229000771
aF8.3885796675005455
asVmomentum
p129
(lp130
F0
aF0
aF0
asa(dp131
Vmagmom
p132
F0
sVindex
p133
I10
sVsymbol
p134
VCu
p135
sVcharge
p136
F0
sVtag
p137
I0
sVposition
p138
(lp139
F1.8641288150001214
aF14.757020514998164
aF12.116837297500787
asVmomentum
p140
(lp141
F0
aF0
aF0
asa(dp142
Vmagmom
p143
F0
sVindex
p144
I11
sVsymbol
p145
VCu
p146
sVcharge
p147
F0
sVtag
p148
I0
sVposition
p149
(lp150
F4.5181564842027163e-16
aF7.3787094978706218
aF10.252708482500664
asVmomentum
p151
(lp152
F0
aF0
aF0
asa(dp153
Vmagmom
p154
F0
sVindex
p155
I12
sVsymbol
p156
VCu
p157
sVcharge
p158
F0
sVtag
p159
I0
sVposition
p160
(lp161
F1.8641288150001207
aF3.6903820699955454
aF12.116837297500785
asVmomentum
p162
(lp163
F0
aF0
aF0
asa(dp164
Vmagmom
p165
F0
sVindex
p166
I13
sVsymbol
p167
VCu
p168
sVcharge
p169
F0
sVtag
p170
I0
sVposition
p171
(lp172
F1.8641288150001212
aF11.068043845005093
aF12.116837297500785
asVmomentum
p173
(lp174
F0
aF0
aF0
asa(dp175
Vmagmom
p176
F0
sVindex
p177
I14
sVsymbol
p178
VCu
p179
sVcharge
p180
F0
sVtag
p181
I0
sVposition
p182
(lp183
F1.8641288150001216
aF16.603984440664259
aF10.252708482500667
asVmomentum
p184
(lp185
F0
aF0
aF0
asa(dp186
Vmagmom
p187
F0
sVindex
p188
I15
sVsymbol
p189
VCu
p190
sVcharge
p191
F0
sVtag
p192
I0
sVposition
p193
(lp194
F9.0360689693221645e-16
aF14.757020514998164
aF10.252708482500667
asVmomentum
p195
(lp196
F0
aF0
aF0
asa(dp197
Vmagmom
p198
F0
sVindex
p199
I16
sVsymbol
p200
VCu
p201
sVcharge
p202
F0
sVtag
p203
I0
sVposition
p204
(lp205
F1.2424184102345592e-15
aF20.290232434357062
aF8.3885796675005455
asVmomentum
p206
(lp207
F0
aF0
aF0
asa(dp208
Vmagmom
p209
F0
sVindex
p210
I17
sVsymbol
p211
VCu
p212
sVcharge
p213
F0
sVtag
p214
I0
sVposition
p215
(lp216
F1.8641288150001216
aF18.446354862132637
aF12.116837297500787
asVmomentum
p217
(lp218
F0
aF0
aF0
asa(dp219
Vmagmom
p220
F0
sVindex
p221
I18
sVsymbol
p222
VCu
p223
sVcharge
p224
F0
sVtag
p225
I0
sVposition
p226
(lp227
F1.8641288150001214
aF12.912532180001628
aF10.252708482500665
asVmomentum
p228
(lp229
F0
aF0
aF0
asa(dp230
Vmagmom
p231
F0
sVindex
p232
I19
sVsymbol
p233
VCu
p234
sVcharge
p235
F0
sVtag
p236
I0
sVposition
p237
(lp238
F1.8641288150001205
aF-1.9721522630525295e-31
aF12.116837297500785
asVmomentum
p239
(lp240
F0
aF0
aF0
asa(dp241
Vmagmom
p242
F0
sVindex
p243
I20
sVsymbol
p244
VCu
p245
sVcharge
p246
F0
sVtag
p247
I0
sVposition
p248
(lp249
F6.9893635660957219e-33
aF1.1414496932441223e-16
aF13.980966112500905
asVmomentum
p250
(lp251
F0
aF0
aF0
asa(dp252
Vmagmom
p253
F0
sVindex
p254
I21
sVsymbol
p255
VPd
p256
sVcharge
p257
F0
sVtag
p258
I0
sVposition
p259
(lp260
F1.0167003771454434e-15
aF16.603977209646239
aF12.116837297500787
asVmomentum
p261
(lp262
F0
aF0
aF0
asa(dp263
Vmagmom
p264
F0
sVindex
p265
I22
sVsymbol
p266
VPd
p267
sVcharge
p268
F0
sVtag
p269
I0
sVposition
p270
(lp271
F1.8641288150001207
aF1.846377438454476
aF13.980966112500905
asVmomentum
p272
(lp273
F0
aF0
aF0
asa(dp274
Vmagmom
p275
F0
sVindex
p276
I23
sVsymbol
p277
VPd
p278
sVcharge
p279
F0
sVtag
p280
I0
sVposition
p281
(lp282
F5.6462874316717546e-16
aF9.2210871503570164
aF12.116837297500783
asVmomentum
p283
(lp284
F0
aF0
aF0
asa(dp285
Vmagmom
p286
F0
sVindex
p287
I24
sVsymbol
p288
VPd
p289
sVcharge
p290
F0
sVtag
p291
I0
sVposition
p292
(lp293
F1.864128815000121
aF5.5365405119042563
aF13.980966112500905
asVmomentum
p294
(lp295
F0
aF0
aF0
asa(dp296
Vmagmom
p297
F0
sVindex
p298
I25
sVsymbol
p299
VPd
p300
sVcharge
p301
F0
sVtag
p302
I0
sVposition
p303
(lp304
F7.9066456015630942e-16
aF12.912532180001628
aF12.116837297500783
asVmomentum
p305
(lp306
F0
aF0
aF0
asa(dp307
Vmagmom
p308
F0
sVindex
p309
I26
sVsymbol
p310
VPd
p311
sVcharge
p312
F0
sVtag
p313
I0
sVposition
p314
(lp315
F1.8641288150001221
aF23.978686921548782
aF10.252708482500667
asVmomentum
p316
(lp317
F0
aF0
aF0
asa(dp318
Vmagmom
p319
F0
sVindex
p320
I27
sVsymbol
p321
VPd
p322
sVcharge
p323
F0
sVtag
p324
I0
sVposition
p325
(lp326
F1.8641288150001218
aF20.288523848099
aF10.252708482500665
asVmomentum
p327
(lp328
F0
aF0
aF0
asa(dp329
Vmagmom
p330
F0
sVindex
p331
I28
sVsymbol
p332
VCu
p333
sVcharge
p334
F0
sVtag
p335
I0
sVposition
p336
(lp337
F1.3553583908300774e-15
aF22.13468229000771
aF13.980966112500907
asVmomentum
p338
(lp339
F0
aF0
aF0
asa(dp340
Vmagmom
p341
F0
sVindex
p342
I29
sVsymbol
p343
VCu
p344
sVcharge
p345
F0
sVtag
p346
I0
sVposition
p347
(lp348
F1.1285775148126129e-16
aF1.8431069523039172
aF15.845094927501025
asVmomentum
p349
(lp350
F0
aF0
aF0
asa(dp351
Vmagmom
p352
F0
sVindex
p353
I30
sVsymbol
p354
VCu
p355
sVcharge
p356
F0
sVtag
p357
I0
sVposition
p358
(lp359
F1.8641288150001212
aF9.2210799193389974
aF13.980966112500907
asVmomentum
p360
(lp361
F0
aF0
aF0
asa(dp362
Vmagmom
p363
F0
sVindex
p364
I31
sVsymbol
p365
VCu
p366
sVcharge
p367
F0
sVtag
p368
I0
sVposition
p369
(lp370
F3.389107100780597e-16
aF5.5348319256461949
aF15.845094927501025
asVmomentum
p371
(lp372
F0
aF0
aF0
asa(dp373
Vmagmom
p374
F0
sVindex
p375
I32
sVsymbol
p376
VCu
p377
sVcharge
p378
F0
sVtag
p379
I0
sVposition
p380
(lp381
F1.1295134718923474e-15
aF18.446354862132637
aF13.980966112500907
asVmomentum
p382
(lp383
F0
aF0
aF0
asa(dp384
Vmagmom
p385
F0
sVindex
p386
I33
sVsymbol
p387
VCu
p388
sVcharge
p389
F0
sVtag
p390
I0
sVposition
p391
(lp392
F1.864128815000121
aF7.3787094978706218
aF15.845094927501027
asVmomentum
p393
(lp394
F0
aF0
aF0
asa(dp395
Vmagmom
p396
F0
sVindex
p397
I34
sVsymbol
p398
VCu
p399
sVcharge
p400
F0
sVtag
p401
I0
sVposition
p402
(lp403
F2.2597072948254143e-16
aF3.6903820699955459
aF17.709223742501148
asVmomentum
p404
(lp405
F0
aF0
aF0
asa(dp406
Vmagmom
p407
F0
sVindex
p408
I35
sVsymbol
p409
VCu
p410
sVcharge
p411
F0
sVtag
p412
I0
sVposition
p413
(lp414
F1.4684713688313577e-15
aF23.98195740769934
aF12.116837297500789
asVmomentum
p415
(lp416
F0
aF0
aF0
asa(dp417
Vmagmom
p418
F0
sVindex
p419
I36
sVsymbol
p420
VCu
p421
sVcharge
p422
F0
sVtag
p423
I0
sVposition
p424
(lp425
F6.7772222338040258e-16
aF11.068043845005095
aF13.980966112500909
asVmomentum
p426
(lp427
F0
aF0
aF0
asa(dp428
Vmagmom
p429
F0
sVindex
p430
I37
sVsymbol
p431
VCu
p432
sVcharge
p433
F0
sVtag
p434
I0
sVposition
p435
(lp436
F1.8641288150001218
aF22.13468229000771
aF12.116837297500785
asVmomentum
p437
(lp438
F0
aF0
aF0
asa(dp439
Vmagmom
p440
F0
sVindex
p441
I38
sVsymbol
p442
VCu
p443
sVcharge
p444
F0
sVtag
p445
I0
sVposition
p446
(lp447
F1.8641288150001214
aF14.757020514998164
aF15.845094927501032
asVmomentum
p448
(lp449
F0
aF0
aF0
asa(dp450
Vmagmom
p451
F0
sVindex
p452
I39
sVsymbol
p453
VCu
p454
sVcharge
p455
F0
sVtag
p456
I0
sVposition
p457
(lp458
F4.5181564842027153e-16
aF7.3787094978706218
aF13.980966112500905
asVmomentum
p459
(lp460
F0
aF0
aF0
asa(dp461
Vmagmom
p462
F0
sVindex
p463
I40
sVsymbol
p464
VCu
p465
sVcharge
p466
F0
sVtag
p467
I0
sVposition
p468
(lp469
F1.8641288150001207
aF3.6903820699955454
aF15.845094927501028
asVmomentum
p470
(lp471
F0
aF0
aF0
asa(dp472
Vmagmom
p473
F0
sVindex
p474
I41
sVsymbol
p475
VCu
p476
sVcharge
p477
F0
sVtag
p478
I0
sVposition
p479
(lp480
F1.8641288150001212
aF11.068043845005093
aF15.845094927501027
asVmomentum
p481
(lp482
F0
aF0
aF0
asa(dp483
Vmagmom
p484
F0
sVindex
p485
I42
sVsymbol
p486
VCu
p487
sVcharge
p488
F0
sVtag
p489
I0
sVposition
p490
(lp491
F1.8641288150001216
aF16.603984440664259
aF13.98096611250091
asVmomentum
p492
(lp493
F0
aF0
aF0
asa(dp494
Vmagmom
p495
F0
sVindex
p496
I43
sVsymbol
p497
VCu
p498
sVcharge
p499
F0
sVtag
p500
I0
sVposition
p501
(lp502
F9.0360689693221645e-16
aF14.757020514998166
aF13.98096611250091
asVmomentum
p503
(lp504
F0
aF0
aF0
asa(dp505
Vmagmom
p506
F0
sVindex
p507
I44
sVsymbol
p508
VCu
p509
sVcharge
p510
F0
sVtag
p511
I0
sVposition
p512
(lp513
F1.2424184102345592e-15
aF20.290232434357062
aF12.116837297500787
asVmomentum
p514
(lp515
F0
aF0
aF0
asa(dp516
Vmagmom
p517
F0
sVindex
p518
I45
sVsymbol
p519
VCu
p520
sVcharge
p521
F0
sVtag
p522
I0
sVposition
p523
(lp524
F1.8641288150001216
aF18.446354862132637
aF15.84509492750103
asVmomentum
p525
(lp526
F0
aF0
aF0
asa(dp527
Vmagmom
p528
F0
sVindex
p529
I46
sVsymbol
p530
VCu
p531
sVcharge
p532
F0
sVtag
p533
I0
sVposition
p534
(lp535
F1.8641288150001214
aF12.912532180001628
aF13.980966112500907
asVmomentum
p536
(lp537
F0
aF0
aF0
asa(dp538
Vmagmom
p539
F0
sVindex
p540
I47
sVsymbol
p541
VCu
p542
sVcharge
p543
F0
sVtag
p544
I0
sVposition
p545
(lp546
F1.8641288150001205
aF-1.9721522630525295e-31
aF15.845094927501027
asVmomentum
p547
(lp548
F0
aF0
aF0
asa(dp549
Vmagmom
p550
F0
sVindex
p551
I48
sVsymbol
p552
VCu
p553
sVcharge
p554
F0
sVtag
p555
I0
sVposition
p556
(lp557
F6.9893635660957219e-33
aF1.1414496932441223e-16
aF17.709223742501148
asVmomentum
p558
(lp559
F0
aF0
aF0
asa(dp560
Vmagmom
p561
F0
sVindex
p562
I49
sVsymbol
p563
VPd
p564
sVcharge
p565
F0
sVtag
p566
I0
sVposition
p567
(lp568
F1.0167003771454434e-15
aF16.603977209646239
aF15.845094927501028
asVmomentum
p569
(lp570
F0
aF0
aF0
asa(dp571
Vmagmom
p572
F0
sVindex
p573
I50
sVsymbol
p574
VPd
p575
sVcharge
p576
F0
sVtag
p577
I0
sVposition
p578
(lp579
F1.8641288150001207
aF1.846377438454476
aF17.709223742501148
asVmomentum
p580
(lp581
F0
aF0
aF0
asa(dp582
Vmagmom
p583
F0
sVindex
p584
I51
sVsymbol
p585
VPd
p586
sVcharge
p587
F0
sVtag
p588
I0
sVposition
p589
(lp590
F5.6462874316717546e-16
aF9.2210871503570164
aF15.845094927501025
asVmomentum
p591
(lp592
F0
aF0
aF0
asa(dp593
Vmagmom
p594
F0
sVindex
p595
I52
sVsymbol
p596
VPd
p597
sVcharge
p598
F0
sVtag
p599
I0
sVposition
p600
(lp601
F1.864128815000121
aF5.5365405119042563
aF17.709223742501148
asVmomentum
p602
(lp603
F0
aF0
aF0
asa(dp604
Vmagmom
p605
F0
sVindex
p606
I53
sVsymbol
p607
VPd
p608
sVcharge
p609
F0
sVtag
p610
I0
sVposition
p611
(lp612
F7.9066456015630942e-16
aF12.912532180001628
aF15.845094927501027
asVmomentum
p613
(lp614
F0
aF0
aF0
asa(dp615
Vmagmom
p616
F0
sVindex
p617
I54
sVsymbol
p618
VPd
p619
sVcharge
p620
F0
sVtag
p621
I0
sVposition
p622
(lp623
F1.8641288150001221
aF23.978686921548782
aF13.98096611250091
asVmomentum
p624
(lp625
F0
aF0
aF0
asa(dp626
Vmagmom
p627
F0
sVindex
p628
I55
sVsymbol
p629
VPd
p630
sVcharge
p631
F0
sVtag
p632
I0
sVposition
p633
(lp634
F1.8641288150001218
aF20.288523848099
aF13.980966112500907
asVmomentum
p635
(lp636
F0
aF0
aF0
asasVcell
p637
(lp638
(lp639
F3.7282576300002415
aF-4.9303806576313238e-32
aF1.3978727132191438e-32
aa(lp640
F1.5813291203126188e-15
aF25.825064360003257
aF-3.7282576300002397
aa(lp641
F0
aF0
aF29.826061040001932
aasVmass
p642
F4158.8119999999972
sVpbc
p643
(lp644
I01
aI01
aI01
asVspacegroup
p645
VPm (6)
p646
sVconstraints
p647
(lp648
(dp649
Vname
p650
VFixAtoms
p651
sVkwargs
p652
(dp653
Vindices
p654
(lp655
I0
aI1
aI2
aI3
aI4
aI5
aI6
aI7
aI8
aI9
aI10
aI11
aI12
aI13
aI14
aI15
aI16
aI17
aI18
aI19
aI20
aI21
aI22
aI23
aI24
aI25
aI26
aI27
aI30
aI37
aI39
aI44
assasaa(lp656
S'results'
p657
ag2
((ltRp658
aa(lp659
S'user'
p660
aS'ktran'
p661
aa(lp662
S'inserted-hash'
p663
aS'597dbd408f5d2bd948ee120aed1e4062411eff5b'
p664
aa(lp665
S'ctime'
p666
acdatetime
datetime
p667
(S'\x07\xe1\x03\x1f\x13+#\x0e\xc4\xf0'
tRp668
aa(lp669
S'mtime'
p670
ag667
(S'\x07\xe1\x03\x1f\x13+#\x0e\xc5\x1f'
tRp671
aa(lp672
S'tags'
p673
a(dp674
S'get_slab_settings'
p675
g2
((lp676
(lp677
S'max_broken_bonds'
p678
aI0
aa(lp679
S'bonds'
p680
aNaa(lp681
S'tol'
p682
aF0.29999999999999999
aa(lp683
S'symmetrize'
p684
aI00
aatRp685
sS'relaxed'
p686
I00
sS'mpid'
p687
Vmp-672265
p688
sS'shift'
p689
I0
sS'slab_generate_settings'
p690
g2
((lp691
(lp692
S'primitive'
p693
aI01
aa(lp694
S'min_vacuum_size'
p695
aF20
aa(lp696
S'lll_reduce'
p697
aI00
aa(lp698
S'max_normal_search'
p699
aI1
aa(lp700
S'min_slab_size'
p701
aF7
aa(lp702
S'center_slab'
p703
aI01
aatRp704
sS'miller'
p705
(I1
I0
I1
tp706
sS'top'
p707
I01
sS'type'
p708
S'slab'
p709
sS'num_slab_atoms'
p710
I56
saatRp711
ag2
((lp712
(lp713
g5
a(dp714
Vinfo
p715
(dp716
sVvolume
p717
F2871.7275206217528
sVnatoms
p718
I56
sVsymbol_counts
p719
(dp720
VCu
p721
I42
sVPd
p722
I14
ssVchemical_symbols
p723
(lp724
VPd
p725
aVCu
p726
asVatoms
p727
(lp728
(dp729
Vmagmom
p730
F0
sVindex
p731
I0
sVsymbol
p732
VCu
p733
sVcharge
p734
F0
sVtag
p735
I0
sVposition
p736
(lp737
F1.3553583908300774e-15
aF-22.13468229000771
aF-10.252708482500664
asVmomentum
p738
(lp739
F0
aF0
aF0
asa(dp740
Vmagmom
p741
F0
sVindex
p742
I1
sVsymbol
p743
VCu
p744
sVcharge
p745
F0
sVtag
p746
I0
sVposition
p747
(lp748
F1.1285775148126126e-16
aF-1.8431069523039187
aF-12.116837297500785
asVmomentum
p749
(lp750
F0
aF0
aF0
asa(dp751
Vmagmom
p752
F0
sVindex
p753
I2
sVsymbol
p754
VCu
p755
sVcharge
p756
F0
sVtag
p757
I0
sVposition
p758
(lp759
F1.8641288150001212
aF-9.2210799193389992
aF-10.252708482500664
asVmomentum
p760
(lp761
F0
aF0
aF0
asa(dp762
Vmagmom
p763
F0
sVindex
p764
I3
sVsymbol
p765
VCu
p766
sVcharge
p767
F0
sVtag
p768
I0
sVposition
p769
(lp770
F3.389107100780597e-16
aF-5.5348319256461966
aF-12.116837297500785
asVmomentum
p771
(lp772
F0
aF0
aF0
asa(dp773
Vmagmom
p774
F0
sVindex
p775
I4
sVsymbol
p776
VCu
p777
sVcharge
p778
F0
sVtag
p779
I0
sVposition
p780
(lp781
F1.1295134718923474e-15
aF-18.446354862132637
aF-10.252708482500665
asVmomentum
p782
(lp783
F0
aF0
aF0
asa(dp784
Vmagmom
p785
F0
sVindex
p786
I5
sVsymbol
p787
VCu
p788
sVcharge
p789
F0
sVtag
p790
I0
sVposition
p791
(lp792
F1.864128815000121
aF-7.3787094978706236
aF-12.116837297500782
asVmomentum
p793
(lp794
F0
aF0
aF0
asa(dp795
Vmagmom
p796
F0
sVindex
p797
I6
sVsymbol
p798
VCu
p799
sVcharge
p800
F0
sVtag
p801
I0
sVposition
p802
(lp803
F2.2597072948254143e-16
aF-3.6903820699955472
aF-13.980966112500907
asVmomentum
p804
(lp805
F0
aF0
aF0
asa(dp806
Vmagmom
p807
F0
sVindex
p808
I7
sVsymbol
p809
VCu
p810
sVcharge
p811
F0
sVtag
p812
I0
sVposition
p813
(lp814
F1.4684713688313577e-15
aF-23.98195740769934
aF-8.3885796675005437
asVmomentum
p815
(lp816
F0
aF0
aF0
asa(dp817
Vmagmom
p818
F0
sVindex
p819
I8
sVsymbol
p820
VCu
p821
sVcharge
p822
F0
sVtag
p823
I0
sVposition
p824
(lp825
F6.7772222338040258e-16
aF-11.068043845005095
aF-10.252708482500665
asVmomentum
p826
(lp827
F0
aF0
aF0
asa(dp828
Vmagmom
p829
F0
sVindex
p830
I9
sVsymbol
p831
VCu
p832
sVcharge
p833
F0
sVtag
p834
I0
sVposition
p835
(lp836
F1.8641288150001218
aF-22.13468229000771
aF-8.388579667500542
asVmomentum
p837
(lp838
F0
aF0
aF0
asa(dp839
Vmagmom
p840
F0
sVindex
p841
I10
sVsymbol
p842
VCu
p843
sVcharge
p844
F0
sVtag
p845
I0
sVposition
p846
(lp847
F1.8641288150001214
aF-14.757020514998166
aF-12.116837297500785
asVmomentum
p848
(lp849
F0
aF0
aF0
asa(dp850
Vmagmom
p851
F0
sVindex
p852
I11
sVsymbol
p853
VCu
p854
sVcharge
p855
F0
sVtag
p856
I0
sVposition
p857
(lp858
F4.5181564842027163e-16
aF-7.3787094978706227
aF-10.252708482500662
asVmomentum
p859
(lp860
F0
aF0
aF0
asa(dp861
Vmagmom
p862
F0
sVindex
p863
I12
sVsymbol
p864
VCu
p865
sVcharge
p866
F0
sVtag
p867
I0
sVposition
p868
(lp869
F1.8641288150001207
aF-3.6903820699955467
aF-12.116837297500785
asVmomentum
p870
(lp871
F0
aF0
aF0
asa(dp872
Vmagmom
p873
F0
sVindex
p874
I13
sVsymbol
p875
VCu
p876
sVcharge
p877
F0
sVtag
p878
I0
sVposition
p879
(lp880
F1.8641288150001212
aF-11.068043845005095
aF-12.116837297500783
asVmomentum
p881
(lp882
F0
aF0
aF0
asa(dp883
Vmagmom
p884
F0
sVindex
p885
I14
sVsymbol
p886
VCu
p887
sVcharge
p888
F0
sVtag
p889
I0
sVposition
p890
(lp891
F1.8641288150001216
aF-16.603984440664259
aF-10.252708482500665
asVmomentum
p892
(lp893
F0
aF0
aF0
asa(dp894
Vmagmom
p895
F0
sVindex
p896
I15
sVsymbol
p897
VCu
p898
sVcharge
p899
F0
sVtag
p900
I0
sVposition
p901
(lp902
F9.0360689693221645e-16
aF-14.757020514998166
aF-10.252708482500665
asVmomentum
p903
(lp904
F0
aF0
aF0
asa(dp905
Vmagmom
p906
F0
sVindex
p907
I16
sVsymbol
p908
VCu
p909
sVcharge
p910
F0
sVtag
p911
I0
sVposition
p912
(lp913
F1.2424184102345592e-15
aF-20.290232434357062
aF-8.3885796675005437
asVmomentum
p914
(lp915
F0
aF0
aF0
asa(dp916
Vmagmom
p917
F0
sVindex
p918
I17
sVsymbol
p919
VCu
p920
sVcharge
p921
F0
sVtag
p922
I0
sVposition
p923
(lp924
F1.8641288150001216
aF-18.446354862132637
aF-12.116837297500785
asVmomentum
p925
(lp926
F0
aF0
aF0
asa(dp927
Vmagmom
p928
F0
sVindex
p929
I18
sVsymbol
p930
VCu
p931
sVcharge
p932
F0
sVtag
p933
I0
sVposition
p934
(lp935
F1.8641288150001214
aF-12.91253218000163
aF-10.252708482500664
asVmomentum
p936
(lp937
F0
aF0
aF0
asa(dp938
Vmagmom
p939
F0
sVindex
p940
I19
sVsymbol
p941
VCu
p942
sVcharge
p943
F0
sVtag
p944
I0
sVposition
p945
(lp946
F1.8641288150001205
aF-1.48388460121736e-15
aF-12.116837297500785
asVmomentum
p947
(lp948
F0
aF0
aF0
asa(dp949
Vmagmom
p950
F0
sVindex
p951
I20
sVsymbol
p952
VCu
p953
sVcharge
p954
F0
sVtag
p955
I0
sVposition
p956
(lp957
F6.9893635660957219e-33
aF-1.8263195091905969e-15
aF-13.980966112500905
asVmomentum
p958
(lp959
F0
aF0
aF0
asa(dp960
Vmagmom
p961
F0
sVindex
p962
I21
sVsymbol
p963
VPd
p964
sVcharge
p965
F0
sVtag
p966
I0
sVposition
p967
(lp968
F1.0167003771454434e-15
aF-16.603977209646239
aF-12.116837297500785
asVmomentum
p969
(lp970
F0
aF0
aF0
asa(dp971
Vmagmom
p972
F0
sVindex
p973
I22
sVsymbol
p974
VPd
p975
sVcharge
p976
F0
sVtag
p977
I0
sVposition
p978
(lp979
F1.8641288150001207
aF-1.8463774384544778
aF-13.980966112500905
asVmomentum
p980
(lp981
F0
aF0
aF0
asa(dp982
Vmagmom
p983
F0
sVindex
p984
I23
sVsymbol
p985
VPd
p986
sVcharge
p987
F0
sVtag
p988
I0
sVposition
p989
(lp990
F5.6462874316717546e-16
aF-9.2210871503570182
aF-12.116837297500782
asVmomentum
p991
(lp992
F0
aF0
aF0
asa(dp993
Vmagmom
p994
F0
sVindex
p995
I24
sVsymbol
p996
VPd
p997
sVcharge
p998
F0
sVtag
p999
I0
sVposition
p1000
(lp1001
F1.864128815000121
aF-5.5365405119042581
aF-13.980966112500905
asVmomentum
p1002
(lp1003
F0
aF0
aF0
asa(dp1004
Vmagmom
p1005
F0
sVindex
p1006
I25
sVsymbol
p1007
VPd
p1008
sVcharge
p1009
F0
sVtag
p1010
I0
sVposition
p1011
(lp1012
F7.9066456015630942e-16
aF-12.91253218000163
aF-12.116837297500782
asVmomentum
p1013
(lp1014
F0
aF0
aF0
asa(dp1015
Vmagmom
p1016
F0
sVindex
p1017
I26
sVsymbol
p1018
VPd
p1019
sVcharge
p1020
F0
sVtag
p1021
I0
sVposition
p1022
(lp1023
F1.8641288150001221
aF-23.978686921548782
aF-10.252708482500664
asVmomentum
p1024
(lp1025
F0
aF0
aF0
asa(dp1026
Vmagmom
p1027
F0
sVindex
p1028
I27
sVsymbol
p1029
VPd
p1030
sVcharge
p1031
F0
sVtag
p1032
I0
sVposition
p1033
(lp1034
F1.8641288150001218
aF-20.288523848099
aF-10.252708482500664
asVmomentum
p1035
(lp1036
F0
aF0
aF0
asa(dp1037
Vmagmom
p1038
F0
sVindex
p1039
I28
sVsymbol
p1040
VCu
p1041
sVcharge
p1042
F0
sVtag
p1043
I0
sVposition
p1044
(lp1045
F1.3553583908300774e-15
aF-22.13468229000771
aF-13.980966112500903
asVmomentum
p1046
(lp1047
F0
aF0
aF0
asa(dp1048
Vmagmom
p1049
F0
sVindex
p1050
I29
sVsymbol
p1051
VCu
p1052
sVcharge
p1053
F0
sVtag
p1054
I0
sVposition
p1055
(lp1056
F1.1285775148126129e-16
aF-1.8431069523039192
aF-15.845094927501025
asVmomentum
p1057
(lp1058
F0
aF0
aF0
asa(dp1059
Vmagmom
p1060
F0
sVindex
p1061
I30
sVsymbol
p1062
VCu
p1063
sVcharge
p1064
F0
sVtag
p1065
I0
sVposition
p1066
(lp1067
F1.8641288150001212
aF-9.2210799193389992
aF-13.980966112500905
asVmomentum
p1068
(lp1069
F0
aF0
aF0
asa(dp1070
Vmagmom
p1071
F0
sVindex
p1072
I31
sVsymbol
p1073
VCu
p1074
sVcharge
p1075
F0
sVtag
p1076
I0
sVposition
p1077
(lp1078
F3.389107100780597e-16
aF-5.5348319256461966
aF-15.845094927501025
asVmomentum
p1079
(lp1080
F0
aF0
aF0
asa(dp1081
Vmagmom
p1082
F0
sVindex
p1083
I32
sVsymbol
p1084
VCu
p1085
sVcharge
p1086
F0
sVtag
p1087
I0
sVposition
p1088
(lp1089
F1.1295134718923474e-15
aF-18.446354862132637
aF-13.980966112500905
asVmomentum
p1090
(lp1091
F0
aF0
aF0
asa(dp1092
Vmagmom
p1093
F0
sVindex
p1094
I33
sVsymbol
p1095
VCu
p1096
sVcharge
p1097
F0
sVtag
p1098
I0
sVposition
p1099
(lp1100
F1.864128815000121
aF-7.3787094978706236
aF-15.845094927501025
asVmomentum
p1101
(lp1102
F0
aF0
aF0
asa(dp1103
Vmagmom
p1104
F0
sVindex
p1105
I34
sVsymbol
p1106
VCu
p1107
sVcharge
p1108
F0
sVtag
p1109
I0
sVposition
p1110
(lp1111
F2.2597072948254143e-16
aF-3.6903820699955481
aF-17.709223742501148
asVmomentum
p1112
(lp1113
F0
aF0
aF0
asa(dp1114
Vmagmom
p1115
F0
sVindex
p1116
I35
sVsymbol
p1117
VCu
p1118
sVcharge
p1119
F0
sVtag
p1120
I0
sVposition
p1121
(lp1122
F1.4684713688313577e-15
aF-23.98195740769934
aF-12.116837297500785
asVmomentum
p1123
(lp1124
F0
aF0
aF0
asa(dp1125
Vmagmom
p1126
F0
sVindex
p1127
I36
sVsymbol
p1128
VCu
p1129
sVcharge
p1130
F0
sVtag
p1131
I0
sVposition
p1132
(lp1133
F6.7772222338040258e-16
aF-11.068043845005096
aF-13.980966112500907
asVmomentum
p1134
(lp1135
F0
aF0
aF0
asa(dp1136
Vmagmom
p1137
F0
sVindex
p1138
I37
sVsymbol
p1139
VCu
p1140
sVcharge
p1141
F0
sVtag
p1142
I0
sVposition
p1143
(lp1144
F1.8641288150001218
aF-22.13468229000771
aF-12.116837297500782
asVmomentum
p1145
(lp1146
F0
aF0
aF0
asa(dp1147
Vmagmom
p1148
F0
sVindex
p1149
I38
sVsymbol
p1150
VCu
p1151
sVcharge
p1152
F0
sVtag
p1153
I0
sVposition
p1154
(lp1155
F1.8641288150001214
aF-14.757020514998166
aF-15.84509492750103
asVmomentum
p1156
(lp1157
F0
aF0
aF0
asa(dp1158
Vmagmom
p1159
F0
sVindex
p1160
I39
sVsymbol
p1161
VCu
p1162
sVcharge
p1163
F0
sVtag
p1164
I0
sVposition
p1165
(lp1166
F4.5181564842027153e-16
aF-7.3787094978706236
aF-13.980966112500903
asVmomentum
p1167
(lp1168
F0
aF0
aF0
asa(dp1169
Vmagmom
p1170
F0
sVindex
p1171
I40
sVsymbol
p1172
VCu
p1173
sVcharge
p1174
F0
sVtag
p1175
I0
sVposition
p1176
(lp1177
F1.8641288150001207
aF-3.6903820699955472
aF-15.845094927501028
asVmomentum
p1178
(lp1179
F0
aF0
aF0
asa(dp1180
Vmagmom
p1181
F0
sVindex
p1182
I41
sVsymbol
p1183
VCu
p1184
sVcharge
p1185
F0
sVtag
p1186
I0
sVposition
p1187
(lp1188
F1.8641288150001212
aF-11.068043845005095
aF-15.845094927501025
asVmomentum
p1189
(lp1190
F0
aF0
aF0
asa(dp1191
Vmagmom
p1192
F0
sVindex
p1193
I42
sVsymbol
p1194
VCu
p1195
sVcharge
p1196
F0
sVtag
p1197
I0
sVposition
p1198
(lp1199
F1.8641288150001216
aF-16.603984440664259
aF-13.980966112500909
asVmomentum
p1200
(lp1201
F0
aF0
aF0
asa(dp1202
Vmagmom
p1203
F0
sVindex
p1204
I43
sVsymbol
p1205
VCu
p1206
sVcharge
p1207
F0
sVtag
p1208
I0
sVposition
p1209
(lp1210
F9.0360689693221645e-16
aF-14.757020514998167
aF-13.980966112500909
asVmomentum
p1211
(lp1212
F0
aF0
aF0
asa(dp1213
Vmagmom
p1214
F0
sVindex
p1215
I44
sVsymbol
p1216
VCu
p1217
sVcharge
p1218
F0
sVtag
p1219
I0
sVposition
p1220
(lp1221
F1.2424184102345592e-15
aF-20.290232434357062
aF-12.116837297500785
asVmomentum
p1222
(lp1223
F0
aF0
aF0
asa(dp1224
Vmagmom
p1225
F0
sVindex
p1226
I45
sVsymbol
p1227
VCu
p1228
sVcharge
p1229
F0
sVtag
p1230
I0
sVposition
p1231
(lp1232
F1.8641288150001216
aF-18.44635486213264
aF-15.845094927501028
asVmomentum
p1233
(lp1234
F0
aF0
aF0
asa(dp1235
Vmagmom
p1236
F0
sVindex
p1237
I46
sVsymbol
p1238
VCu
p1239
sVcharge
p1240
F0
sVtag
p1241
I0
sVposition
p1242
(lp1243
F1.8641288150001214
aF-12.91253218000163
aF-13.980966112500905
asVmomentum
p1244
(lp1245
F0
aF0
aF0
asa(dp1246
Vmagmom
p1247
F0
sVindex
p1248
I47
sVsymbol
p1249
VCu
p1250
sVcharge
p1251
F0
sVtag
p1252
I0
sVposition
p1253
(lp1254
F1.8641288150001205
aF-1.9404644785150095e-15
aF-15.845094927501027
asVmomentum
p1255
(lp1256
F0
aF0
aF0
asa(dp1257
Vmagmom
p1258
F0
sVindex
p1259
I48
sVsymbol
p1260
VCu
p1261
sVcharge
p1262
F0
sVtag
p1263
I0
sVposition
p1264
(lp1265
F6.9893635660957219e-33
aF-2.2828993864882466e-15
aF-17.709223742501148
asVmomentum
p1266
(lp1267
F0
aF0
aF0
asa(dp1268
Vmagmom
p1269
F0
sVindex
p1270
I49
sVsymbol
p1271
VPd
p1272
sVcharge
p1273
F0
sVtag
p1274
I0
sVposition
p1275
(lp1276
F1.0167003771454434e-15
aF-16.603977209646242
aF-15.845094927501027
asVmomentum
p1277
(lp1278
F0
aF0
aF0
asa(dp1279
Vmagmom
p1280
F0
sVindex
p1281
I50
sVsymbol
p1282
VPd
p1283
sVcharge
p1284
F0
sVtag
p1285
I0
sVposition
p1286
(lp1287
F1.8641288150001207
aF-1.8463774384544782
aF-17.709223742501148
asVmomentum
p1288
(lp1289
F0
aF0
aF0
asa(dp1290
Vmagmom
p1291
F0
sVindex
p1292
I51
sVsymbol
p1293
VPd
p1294
sVcharge
p1295
F0
sVtag
p1296
I0
sVposition
p1297
(lp1298
F5.6462874316717546e-16
aF-9.2210871503570182
aF-15.845094927501023
asVmomentum
p1299
(lp1300
F0
aF0
aF0
asa(dp1301
Vmagmom
p1302
F0
sVindex
p1303
I52
sVsymbol
p1304
VPd
p1305
sVcharge
p1306
F0
sVtag
p1307
I0
sVposition
p1308
(lp1309
F1.864128815000121
aF-5.5365405119042581
aF-17.709223742501148
asVmomentum
p1310
(lp1311
F0
aF0
aF0
asa(dp1312
Vmagmom
p1313
F0
sVindex
p1314
I53
sVsymbol
p1315
VPd
p1316
sVcharge
p1317
F0
sVtag
p1318
I0
sVposition
p1319
(lp1320
F7.9066456015630942e-16
aF-12.91253218000163
aF-15.845094927501025
asVmomentum
p1321
(lp1322
F0
aF0
aF0
asa(dp1323
Vmagmom
p1324
F0
sVindex
p1325
I54
sVsymbol
p1326
VPd
p1327
sVcharge
p1328
F0
sVtag
p1329
I0
sVposition
p1330
(lp1331
F1.8641288150001221
aF-23.978686921548782
aF-13.980966112500907
asVmomentum
p1332
(lp1333
F0
aF0
aF0
asa(dp1334
Vmagmom
p1335
F0
sVindex
p1336
I55
sVsymbol
p1337
VPd
p1338
sVcharge
p1339
F0
sVtag
p1340
I0
sVposition
p1341
(lp1342
F1.8641288150001218
aF-20.288523848099
aF-13.980966112500905
asVmomentum
p1343
(lp1344
F0
aF0
aF0
asasVcell
p1345
(lp1346
(lp1347
F3.7282576300002415
aF4.9303806576313238e-32
aF-1.3978727132191444e-32
aa(lp1348
F1.5813291203126188e-15
aF-25.825064360003257
aF3.7282576300002428
aa(lp1349
F0
aF-3.6526390183811946e-15
aF-29.826061040001932
aasVmass
p1350
F4158.8119999999972
sVpbc
p1351
(lp1352
I01
aI01
aI01
asVspacegroup
p1353
VPm (6)
p1354
sVconstraints
p1355
(lp1356
(dp1357
Vname
p1358
VFixAtoms
p1359
sVkwargs
p1360
(dp1361
Vindices
p1362
(lp1363
I6
aI17
aI21
aI24
aI28
aI29
aI30
aI31
aI32
aI33
aI34
aI35
aI36
aI37
aI38
aI39
aI40
aI41
aI42
aI43
aI44
aI45
aI46
aI47
aI48
aI49
aI50
aI51
aI52
aI53
aI54
aI55
assasaa(lp1364
g657
ag2
((ltRp1365
aa(lp1366
g660
ag661
aa(lp1367
g663
aS'9f02616ddd8370d1ba7acee5ad382488ae1a6549'
p1368
aa(lp1369
g666
ag667
(S'\x07\xe1\x03\x1f\x13+$\x00_\xe7'
tRp1370
aa(lp1371
g670
ag667
(S'\x07\xe1\x03\x1f\x13+$\x00_\xf1'
tRp1372
aa(lp1373
g673
a(dp1374
g675
g685
sg686
I00
sg687
g688
sg689
I0
sg690
g704
sg705
g706
sg707
I00
sg708
g709
sg710
I56
saatRp1375
a.