(lp1
ccollections
OrderedDict
p2
((lp3
(lp4
S'atoms'
p5
a(dp6
Vinfo
p7
(dp8
sVvolume
p9
F15.446539967610608
sVnatoms
p10
I1
sVsymbol_counts
p11
(dp12
VPd
p13
I1
ssVchemical_symbols
p14
(lp15
VPd
p16
asVatoms
p17
(lp18
(dp19
Vmagmom
p20
F0
sVindex
p21
I0
sVsymbol
p22
VPd
p23
sVcharge
p24
F0
sVtag
p25
I0
sVposition
p26
(lp27
F0
aF0
aF0
asVmomentum
p28
(lp29
F0
aF0
aF0
asasVcell
p30
(lp31
(lp32
F2.42091404
aF0
aF1.39771537
aa(lp33
F0.80697134999999998
aF2.2824596399999999
aF1.39771537
aa(lp34
F0
aF0
aF2.79543074
aasVmass
p35
F106.42
sVpbc
p36
(lp37
I01
aI01
aI01
asVspacegroup
p38
VFm-3m (225)
p39
sVconstraints
p40
(lp41
saa(lp42
S'results'
p43
ag2
((ltRp44
aa(lp45
S'user'
p46
aS'ktran'
p47
aa(lp48
S'inserted-hash'
p49
aS'833b9a478ae4f78d01225749b9cfaf98ab2e620b'
p50
aa(lp51
S'ctime'
p52
acdatetime
datetime
p53
(S'\x07\xe1\x03\x1f\x13/\x1c\x07\x83\x80'
tRp54
aa(lp55
S'mtime'
p56
ag53
(S'\x07\xe1\x03\x1f\x13/\x1c\x07\x83\x91'
tRp57
aatRp58
a.