(lp1
ccollections
OrderedDict
p2
((lp3
(lp4
S'atoms'
p5
a(dp6
Vinfo
p7
(dp8
sVvolume
p9
F370.71695922265451
sVnatoms
p10
I8
sVsymbol_counts
p11
(dp12
VPd
p13
I8
ssVchemical_symbols
p14
(lp15
VPd
p16
asVatoms
p17
(lp18
(dp19
Vmagmom
p20
F0
sVindex
p21
I0
sVsymbol
p22
VPd
p23
sVcharge
p24
F0
sVtag
p25
I0
sVposition
p26
(lp27
F2.7954307412020576
aF3.9533360668826272
aF20.266872873714938
asVmomentum
p28
(lp29
F0
aF0
aF0
asa(dp30
Vmagmom
p31
F0
sVindex
p32
I1
sVsymbol
p33
VPd
p34
sVcharge
p35
F0
sVtag
p36
I0
sVposition
p37
(lp38
F0
aF1.9721522630525295e-31
aF17.471442132512877
asVmomentum
p39
(lp40
F0
aF0
aF0
asa(dp41
Vmagmom
p42
F0
sVindex
p43
I2
sVsymbol
p44
VPd
p45
sVcharge
p46
F0
sVtag
p47
I0
sVposition
p48
(lp49
F1.3977153706010288
aF1.9766680334413131
aF21.664588244315965
asVmomentum
p50
(lp51
F0
aF0
aF0
asa(dp52
Vmagmom
p53
F0
sVindex
p54
I3
sVsymbol
p55
VPd
p56
sVcharge
p57
F0
sVtag
p58
I0
sVposition
p59
(lp60
F1.3977153706010306
aF1.976668033441314
aF18.869157503113907
asVmomentum
p61
(lp62
F0
aF0
aF0
asa(dp63
Vmagmom
p64
F0
sVindex
p65
I4
sVsymbol
p66
VPd
p67
sVcharge
p68
F0
sVtag
p69
I0
sVposition
p70
(lp71
F-8.8817841970012523e-16
aF0
aF14.676011391310816
asVmomentum
p72
(lp73
F0
aF0
aF0
asa(dp74
Vmagmom
p75
F0
sVindex
p76
I5
sVsymbol
p77
VPd
p78
sVcharge
p79
F0
sVtag
p80
I0
sVposition
p81
(lp82
F2.7954307412020576
aF3.9533360668826272
aF11.880580650108758
asVmomentum
p83
(lp84
F0
aF0
aF0
asa(dp85
Vmagmom
p86
F0
sVindex
p87
I6
sVsymbol
p88
VPd
p89
sVcharge
p90
F0
sVtag
p91
I0
sVposition
p92
(lp93
F1.3977153706010306
aF1.9766680334413131
aF16.07372676191185
asVmomentum
p94
(lp95
F0
aF0
aF0
asa(dp96
Vmagmom
p97
F0
sVindex
p98
I7
sVsymbol
p99
VPd
p100
sVcharge
p101
F0
sVtag
p102
I0
sVposition
p103
(lp104
F1.3977153706010297
aF1.976668033441314
aF13.278296020709785
asVmomentum
p105
(lp106
F0
aF0
aF0
asasVcell
p107
(lp108
(lp109
F2.7954307412020603
aF2.4651903288156619e-32
aF-2.2204460492503131e-16
aa(lp110
F0
aF3.9533360668826272
aF3.4234153094512156e-16
aa(lp111
F0
aF0
aF33.545168894424719
aasVmass
p112
F851.3599999999999
sVpbc
p113
(lp114
I01
aI01
aI01
asVspacegroup
p115
VPmmn (59)
p116
sVconstraints
p117
(lp118
(dp119
Vname
p120
VFixAtoms
p121
sVkwargs
p122
(dp123
Vindices
p124
(lp125
I1
aI4
aI5
aI6
aI7
assasaa(lp126
S'results'
p127
ag2
((ltRp128
aa(lp129
S'user'
p130
aS'ktran'
p131
aa(lp132
S'inserted-hash'
p133
aS'c442c744349848e9b5cb2faa9040f9debb82f695'
p134
aa(lp135
S'ctime'
p136
acdatetime
datetime
p137
(S'\x07\xe1\x03\x1f\x13/\x1c\x0f\x12\xee'
tRp138
aa(lp139
S'mtime'
p140
ag137
(S'\x07\xe1\x03\x1f\x13/\x1c\x0f\x13\x1a'
tRp141
aa(lp142
S'tags'
p143
a(dp144
S'get_slab_settings'
p145
g2
((lp146
(lp147
S'max_broken_bonds'
p148
aI0
aa(lp149
S'bonds'
p150
aNaa(lp151
S'tol'
p152
aF0.29999999999999999
aa(lp153
S'symmetrize'
p154
aI00
aatRp155
sS'relaxed'
p156
I00
sS'mpid'
p157
Vmp-2
p158
sS'shift'
p159
I0
sS'slab_generate_settings'
p160
g2
((lp161
(lp162
S'primitive'
p163
aI01
aa(lp164
S'min_vacuum_size'
p165
aF20
aa(lp166
S'lll_reduce'
p167
aI00
aa(lp168
S'max_normal_search'
p169
aI1
aa(lp170
S'min_slab_size'
p171
aF7
aa(lp172
S'center_slab'
p173
aI01
aatRp174
sS'miller'
p175
(I1
I1
I0
tp176
sS'top'
p177
I01
sS'type'
p178
S'slab'
p179
sS'num_slab_atoms'
p180
I8
saatRp181
a.