(lp1
ccollections
OrderedDict
p2
((lp3
(lp4
S'atoms'
p5
a(dp6
Vinfo
p7
(dp8
sVvolume
p9
F51.259450036769891
sVnatoms
p10
I4
sVsymbol_counts
p11
(dp12
VCu
p13
I3
sVPd
p14
I1
ssVchemical_symbols
p15
(lp16
VPd
p17
aVCu
p18
asVatoms
p19
(lp20
(dp21
Vmagmom
p22
F0
sVindex
p23
I0
sVsymbol
p24
VCu
p25
sVcharge
p26
F0
sVtag
p27
I0
sVposition
p28
(lp29
F0
aF1.859152175
aF1.859152175
asVmomentum
p30
(lp31
F0
aF0
aF0
asa(dp32
Vmagmom
p33
F0
sVindex
p34
I1
sVsymbol
p35
VCu
p36
sVcharge
p37
F0
sVtag
p38
I0
sVposition
p39
(lp40
F1.8537624349999999
aF1.859152175
aF0
asVmomentum
p41
(lp42
F0
aF0
aF0
asa(dp43
Vmagmom
p44
F0
sVindex
p45
I2
sVsymbol
p46
VCu
p47
sVcharge
p48
F0
sVtag
p49
I0
sVposition
p50
(lp51
F1.8537624349999999
aF0
aF1.859152175
asVmomentum
p52
(lp53
F0
aF0
aF0
asa(dp54
Vmagmom
p55
F0
sVindex
p56
I3
sVsymbol
p57
VPd
p58
sVcharge
p59
F0
sVtag
p60
I0
sVposition
p61
(lp62
F0
aF0
aF0
asVmomentum
p63
(lp64
F0
aF0
aF0
asasVcell
p65
(lp66
(lp67
F3.7075248699999999
aF0
aF0
aa(lp68
F0
aF3.7183043499999999
aF0
aa(lp69
F0
aF0
aF3.7183043499999999
aasVmass
p70
F297.05799999999999
sVpbc
p71
(lp72
I01
aI01
aI01
asVspacegroup
p73
VP4/mmm (123)
p74
sVconstraints
p75
(lp76
saa(lp77
S'results'
p78
ag2
((ltRp79
aa(lp80
S'user'
p81
aS'ktran'
p82
aa(lp83
S'inserted-hash'
p84
aS'5333c53ccadd441ab5349bd9905234a2d58cedfd'
p85
aa(lp86
S'ctime'
p87
acdatetime
datetime
p88
(S'\x07\xe1\x03\x1f\x13,\x04\x07=\xb1'
tRp89
aa(lp90
S'mtime'
p91
ag88
(S'\x07\xe1\x03\x1f\x13,\x04\x07=\xc4'
tRp92
aatRp93
a.