(lp1
ccollections
OrderedDict
p2
((lp3
(lp4
S'atoms'
p5
a(dp6
Vinfo
p7
(dp8
sVvolume
p9
F1009.7915243172857
sVnatoms
p10
I20
sVsymbol_counts
p11
(dp12
VCu
p13
I16
sVPd
p14
I4
ssVchemical_symbols
p15
(lp16
VPd
p17
aVCu
p18
asVatoms
p19
(lp20
(dp21
Vmagmom
p22
F0
sVindex
p23
I0
sVsymbol
p24
VCu
p25
sVcharge
p26
F0
sVtag
p27
I0
sVposition
p28
(lp29
F2.9537612350033147
aF2.9537612350033147
aF17.180056167499998
asVmomentum
p30
(lp31
F0
aF0
aF0
asa(dp32
Vmagmom
p33
F0
sVindex
p34
I1
sVsymbol
p35
VCu
p36
sVcharge
p37
F0
sVtag
p38
I0
sVposition
p39
(lp40
F2.9537612350033147
aF2.9537612350033147
aF13.563202237500001
asVmomentum
p41
(lp42
F0
aF0
aF0
asa(dp43
Vmagmom
p44
F0
sVindex
p45
I2
sVsymbol
p46
VCu
p47
sVcharge
p48
F0
sVtag
p49
I0
sVposition
p50
(lp51
F0
aF0
aF11.7547752725
asVmomentum
p52
(lp53
F0
aF0
aF0
asa(dp54
Vmagmom
p55
F0
sVindex
p56
I3
sVsymbol
p57
VCu
p58
sVcharge
p59
F0
sVtag
p60
I0
sVposition
p61
(lp62
F0
aF0
aF15.371629202499999
asVmomentum
p63
(lp64
F0
aF0
aF0
asa(dp65
Vmagmom
p66
F0
sVindex
p67
I4
sVsymbol
p68
VCu
p69
sVcharge
p70
F0
sVtag
p71
I0
sVposition
p72
(lp73
F4.089511790248765
aF0.61399746179176928
aF17.180056167499998
asVmomentum
p74
(lp75
F0
aF0
aF0
asa(dp76
Vmagmom
p77
F0
sVindex
p78
I5
sVsymbol
p79
VCu
p80
sVcharge
p81
F0
sVtag
p82
I0
sVposition
p83
(lp84
F5.2935250082148606
aF4.089511790248765
aF13.563202237500001
asVmomentum
p85
(lp86
F0
aF0
aF0
asa(dp87
Vmagmom
p88
F0
sVindex
p89
I6
sVsymbol
p90
VCu
p91
sVcharge
p92
F0
sVtag
p93
I0
sVposition
p94
(lp95
F0.61399746179176962
aF1.8180106797578641
aF13.563202237500001
asVmomentum
p96
(lp97
F0
aF0
aF0
asa(dp98
Vmagmom
p99
F0
sVindex
p100
I7
sVsymbol
p101
VCu
p102
sVcharge
p103
F0
sVtag
p104
I0
sVposition
p105
(lp106
F1.818010679757865
aF5.2935250082148597
aF17.180056167499998
asVmomentum
p107
(lp108
F0
aF0
aF0
asa(dp109
Vmagmom
p110
F0
sVindex
p111
I8
sVsymbol
p112
VCu
p113
sVcharge
p114
F0
sVtag
p115
I0
sVposition
p116
(lp117
F3.5253475296288621
aF4.7093488970773612
aF11.749331111627486
asVmomentum
p118
(lp119
F0
aF0
aF0
asa(dp120
Vmagmom
p121
F0
sVindex
p122
I9
sVsymbol
p123
VCu
p124
sVcharge
p125
F0
sVtag
p126
I0
sVposition
p127
(lp128
F1.1981735729292693
aF3.5253475296288608
aF15.366185041627483
asVmomentum
p129
(lp130
F0
aF0
aF0
asa(dp131
Vmagmom
p132
F0
sVindex
p133
I10
sVsymbol
p134
VCu
p135
sVcharge
p136
F0
sVtag
p137
I0
sVposition
p138
(lp139
F4.7093488970773603
aF2.3821749403777681
aF15.366185041627483
asVmomentum
p140
(lp141
F0
aF0
aF0
asa(dp142
Vmagmom
p143
F0
sVindex
p144
I11
sVsymbol
p145
VCu
p146
sVcharge
p147
F0
sVtag
p148
I0
sVposition
p149
(lp150
F2.3821749403777677
aF1.1981735729292686
aF11.749331111627486
asVmomentum
p151
(lp152
F0
aF0
aF0
asa(dp153
Vmagmom
p154
F0
sVindex
p155
I12
sVsymbol
p156
VCu
p157
sVcharge
p158
F0
sVtag
p159
I0
sVposition
p160
(lp161
F2.3821749403777677
aF1.1981735729292686
aF15.377073363372515
asVmomentum
p162
(lp163
F0
aF0
aF0
asa(dp164
Vmagmom
p165
F0
sVindex
p166
I13
sVsymbol
p167
VCu
p168
sVcharge
p169
F0
sVtag
p170
I0
sVposition
p171
(lp172
F4.7093488970773603
aF2.3821749403777681
aF11.760219433372512
asVmomentum
p173
(lp174
F0
aF0
aF0
asa(dp175
Vmagmom
p176
F0
sVindex
p177
I14
sVsymbol
p178
VCu
p179
sVcharge
p180
F0
sVtag
p181
I0
sVposition
p182
(lp183
F1.1981735729292693
aF3.5253475296288608
aF11.760219433372512
asVmomentum
p184
(lp185
F0
aF0
aF0
asa(dp186
Vmagmom
p187
F0
sVindex
p188
I15
sVsymbol
p189
VCu
p190
sVcharge
p191
F0
sVtag
p192
I0
sVposition
p193
(lp194
F3.5253475296288621
aF4.7093488970773612
aF15.377073363372515
asVmomentum
p195
(lp196
F0
aF0
aF0
asa(dp197
Vmagmom
p198
F0
sVindex
p199
I16
sVsymbol
p200
VPd
p201
sVcharge
p202
F0
sVtag
p203
I0
sVposition
p204
(lp205
F5.3032521574883003
aF4.1800760591963826
aF17.180056167499998
asVmomentum
p206
(lp207
F0
aF0
aF0
asa(dp208
Vmagmom
p209
F0
sVindex
p210
I17
sVsymbol
p211
VPd
p212
sVcharge
p213
F0
sVtag
p214
I0
sVposition
p215
(lp216
F1.7274464108102476
aF5.3032521574882985
aF13.563202237500001
asVmomentum
p217
(lp218
F0
aF0
aF0
asa(dp219
Vmagmom
p220
F0
sVindex
p221
I18
sVsymbol
p222
VPd
p223
sVcharge
p224
F0
sVtag
p225
I0
sVposition
p226
(lp227
F4.1800760591963826
aF0.60427031251832963
aF13.563202237500001
asVmomentum
p228
(lp229
F0
aF0
aF0
asa(dp230
Vmagmom
p231
F0
sVindex
p232
I19
sVsymbol
p233
VPd
p234
sVcharge
p235
F0
sVtag
p236
I0
sVposition
p237
(lp238
F0.60427031251833019
aF1.727446410810247
aF17.180056167499998
asVmomentum
p239
(lp240
F0
aF0
aF0
asasVcell
p241
(lp242
(lp243
F5.9075224700066293
aF0
aF0
aa(lp244
F9.5000206874913292e-16
aF5.9075224700066293
aF3.6173142418923416e-16
aa(lp245
F0
aF0
aF28.93483144
aasVmass
p246
F1442.4160000000006
sVpbc
p247
(lp248
I01
aI01
aI01
asVspacegroup
p249
VP2 (3)
p250
sVconstraints
p251
(lp252
(dp253
Vname
p254
VFixAtoms
p255
sVkwargs
p256
(dp257
Vindices
p258
(lp259
I1
aI2
aI5
aI6
aI8
aI11
aI13
aI14
aI17
aI18
assasaa(lp260
S'results'
p261
ag2
((ltRp262
aa(lp263
S'user'
p264
aS'ktran'
p265
aa(lp266
S'inserted-hash'
p267
aS'72725e70f45a05f831256499b3b52bba37b62df5'
p268
aa(lp269
S'ctime'
p270
acdatetime
datetime
p271
(S'\x07\xe1\x03\x1f\x13-\x06\x05/\xed'
tRp272
aa(lp273
S'mtime'
p274
ag271
(S'\x07\xe1\x03\x1f\x13-\x06\x050\x19'
tRp275
aa(lp276
S'tags'
p277
a(dp278
S'get_slab_settings'
p279
g2
((lp280
(lp281
S'max_broken_bonds'
p282
aI0
aa(lp283
S'bonds'
p284
aNaa(lp285
S'tol'
p286
aF0.29999999999999999
aa(lp287
S'symmetrize'
p288
aI00
aatRp289
sS'relaxed'
p290
I00
sS'mpid'
p291
Vmp-30594
p292
sS'shift'
p293
I0
sS'slab_generate_settings'
p294
g2
((lp295
(lp296
S'primitive'
p297
aI01
aa(lp298
S'min_vacuum_size'
p299
aF20
aa(lp300
S'lll_reduce'
p301
aI00
aa(lp302
S'max_normal_search'
p303
aI1
aa(lp304
S'min_slab_size'
p305
aF7
aa(lp306
S'center_slab'
p307
aI01
aatRp308
sS'miller'
p309
(I0
I0
I1
tp310
sS'top'
p311
I01
sS'type'
p312
S'slab'
p313
sS'num_slab_atoms'
p314
I20
saatRp315
ag2
((lp316
(lp317
g5
a(dp318
Vinfo
p319
(dp320
sVvolume
p321
F1009.7915243172857
sVnatoms
p322
I20
sVsymbol_counts
p323
(dp324
VCu
p325
I16
sVPd
p326
I4
ssVchemical_symbols
p327
(lp328
VPd
p329
aVCu
p330
asVatoms
p331
(lp332
(dp333
Vmagmom
p334
F0
sVindex
p335
I0
sVsymbol
p336
VCu
p337
sVcharge
p338
F0
sVtag
p339
I0
sVposition
p340
(lp341
F2.9537612350033147
aF-2.9537612350033169
aF-17.180056167499998
asVmomentum
p342
(lp343
F0
aF0
aF0
asa(dp344
Vmagmom
p345
F0
sVindex
p346
I1
sVsymbol
p347
VCu
p348
sVcharge
p349
F0
sVtag
p350
I0
sVposition
p351
(lp352
F2.9537612350033147
aF-2.9537612350033164
aF-13.563202237500001
asVmomentum
p353
(lp354
F0
aF0
aF0
asa(dp355
Vmagmom
p356
F0
sVindex
p357
I2
sVsymbol
p358
VCu
p359
sVcharge
p360
F0
sVtag
p361
I0
sVposition
p362
(lp363
F0
aF-1.4395447912163581e-15
aF-11.7547752725
asVmomentum
p364
(lp365
F0
aF0
aF0
asa(dp366
Vmagmom
p367
F0
sVindex
p368
I3
sVsymbol
p369
VCu
p370
sVcharge
p371
F0
sVtag
p372
I0
sVposition
p373
(lp374
F0
aF-1.8824816500521605e-15
aF-15.371629202499999
asVmomentum
p375
(lp376
F0
aF0
aF0
asa(dp377
Vmagmom
p378
F0
sVindex
p379
I4
sVsymbol
p380
VCu
p381
sVcharge
p382
F0
sVtag
p383
I0
sVposition
p384
(lp385
F4.089511790248765
aF-0.61399746179177139
aF-17.180056167499998
asVmomentum
p386
(lp387
F0
aF0
aF0
asa(dp388
Vmagmom
p389
F0
sVindex
p390
I5
sVsymbol
p391
VCu
p392
sVcharge
p393
F0
sVtag
p394
I0
sVposition
p395
(lp396
F5.2935250082148606
aF-4.0895117902487668
aF-13.563202237500001
asVmomentum
p397
(lp398
F0
aF0
aF0
asa(dp399
Vmagmom
p400
F0
sVindex
p401
I6
sVsymbol
p402
VCu
p403
sVcharge
p404
F0
sVtag
p405
I0
sVposition
p406
(lp407
F0.61399746179176962
aF-1.8180106797578657
aF-13.563202237500001
asVmomentum
p408
(lp409
F0
aF0
aF0
asa(dp410
Vmagmom
p411
F0
sVindex
p412
I7
sVsymbol
p413
VCu
p414
sVcharge
p415
F0
sVtag
p416
I0
sVposition
p417
(lp418
F1.818010679757865
aF-5.2935250082148615
aF-17.180056167499998
asVmomentum
p419
(lp420
F0
aF0
aF0
asa(dp421
Vmagmom
p422
F0
sVindex
p423
I8
sVsymbol
p424
VCu
p425
sVcharge
p426
F0
sVtag
p427
I0
sVposition
p428
(lp429
F3.5253475296288621
aF-4.7093488970773629
aF-11.749331111627486
asVmomentum
p430
(lp431
F0
aF0
aF0
asa(dp432
Vmagmom
p433
F0
sVindex
p434
I9
sVsymbol
p435
VCu
p436
sVcharge
p437
F0
sVtag
p438
I0
sVposition
p439
(lp440
F1.1981735729292693
aF-3.5253475296288626
aF-15.366185041627483
asVmomentum
p441
(lp442
F0
aF0
aF0
asa(dp443
Vmagmom
p444
F0
sVindex
p445
I10
sVsymbol
p446
VCu
p447
sVcharge
p448
F0
sVtag
p449
I0
sVposition
p450
(lp451
F4.7093488970773603
aF-2.3821749403777699
aF-15.366185041627483
asVmomentum
p452
(lp453
F0
aF0
aF0
asa(dp454
Vmagmom
p455
F0
sVindex
p456
I11
sVsymbol
p457
VCu
p458
sVcharge
p459
F0
sVtag
p460
I0
sVposition
p461
(lp462
F2.3821749403777677
aF-1.19817357292927
aF-11.749331111627486
asVmomentum
p463
(lp464
F0
aF0
aF0
asa(dp465
Vmagmom
p466
F0
sVindex
p467
I12
sVsymbol
p468
VCu
p469
sVcharge
p470
F0
sVtag
p471
I0
sVposition
p472
(lp473
F2.3821749403777677
aF-1.1981735729292704
aF-15.377073363372515
asVmomentum
p474
(lp475
F0
aF0
aF0
asa(dp476
Vmagmom
p477
F0
sVindex
p478
I13
sVsymbol
p479
VCu
p480
sVcharge
p481
F0
sVtag
p482
I0
sVposition
p483
(lp484
F4.7093488970773603
aF-2.3821749403777694
aF-11.760219433372512
asVmomentum
p485
(lp486
F0
aF0
aF0
asa(dp487
Vmagmom
p488
F0
sVindex
p489
I14
sVsymbol
p490
VCu
p491
sVcharge
p492
F0
sVtag
p493
I0
sVposition
p494
(lp495
F1.1981735729292693
aF-3.5253475296288621
aF-11.760219433372512
asVmomentum
p496
(lp497
F0
aF0
aF0
asa(dp498
Vmagmom
p499
F0
sVindex
p500
I15
sVsymbol
p501
VCu
p502
sVcharge
p503
F0
sVtag
p504
I0
sVposition
p505
(lp506
F3.5253475296288621
aF-4.7093488970773629
aF-15.377073363372515
asVmomentum
p507
(lp508
F0
aF0
aF0
asa(dp509
Vmagmom
p510
F0
sVindex
p511
I16
sVsymbol
p512
VPd
p513
sVcharge
p514
F0
sVtag
p515
I0
sVposition
p516
(lp517
F5.3032521574883003
aF-4.1800760591963844
aF-17.180056167499998
asVmomentum
p518
(lp519
F0
aF0
aF0
asa(dp520
Vmagmom
p521
F0
sVindex
p522
I17
sVsymbol
p523
VPd
p524
sVcharge
p525
F0
sVtag
p526
I0
sVposition
p527
(lp528
F1.7274464108102476
aF-5.3032521574883003
aF-13.563202237500001
asVmomentum
p529
(lp530
F0
aF0
aF0
asa(dp531
Vmagmom
p532
F0
sVindex
p533
I18
sVsymbol
p534
VPd
p535
sVcharge
p536
F0
sVtag
p537
I0
sVposition
p538
(lp539
F4.1800760591963826
aF-0.6042703125183313
aF-13.563202237500001
asVmomentum
p540
(lp541
F0
aF0
aF0
asa(dp542
Vmagmom
p543
F0
sVindex
p544
I19
sVsymbol
p545
VPd
p546
sVcharge
p547
F0
sVtag
p548
I0
sVposition
p549
(lp550
F0.60427031251833019
aF-1.727446410810249
aF-17.180056167499998
asVmomentum
p551
(lp552
F0
aF0
aF0
asasVcell
p553
(lp554
(lp555
F5.9075224700066293
aF0
aF0
aa(lp556
F9.5000206874913292e-16
aF-5.9075224700066293
aF3.6173142418923425e-16
aa(lp557
F0
aF-3.54349487068642e-15
aF-28.93483144
aasVmass
p558
F1442.4160000000006
sVpbc
p559
(lp560
I01
aI01
aI01
asVspacegroup
p561
VP2 (3)
p562
sVconstraints
p563
(lp564
(dp565
Vname
p566
VFixAtoms
p567
sVkwargs
p568
(dp569
Vindices
p570
(lp571
I0
aI3
aI4
aI7
aI9
aI10
aI12
aI15
aI16
aI19
assasaa(lp572
g261
ag2
((ltRp573
aa(lp574
g264
ag265
aa(lp575
g267
aS'd25b121ae0d8c625e479de0f2787a44d900e67ae'
p576
aa(lp577
g270
ag271
(S'\x07\xe1\x03\x1f\x13-\x06\x05W\xab'
tRp578
aa(lp579
g274
ag271
(S'\x07\xe1\x03\x1f\x13-\x06\x05W\xb3'
tRp580
aa(lp581
g277
a(dp582
g279
g289
sg290
I00
sg291
g292
sg293
I0
sg294
g308
sg309
g310
sg311
I00
sg312
g313
sg314
I20
saatRp583
a.