(lp1
ccollections
OrderedDict
p2
((lp3
(lp4
S'atoms'
p5
a(dp6
Vinfo
p7
(dp8
sVvolume
p9
F3029.3745729518605
sVnatoms
p10
I80
sVsymbol_counts
p11
(dp12
VCu
p13
I64
sVPd
p14
I16
ssVchemical_symbols
p15
(lp16
VPd
p17
aVCu
p18
asVatoms
p19
(lp20
(dp21
Vmagmom
p22
F0
sVindex
p23
I0
sVsymbol
p24
VCu
p25
sVcharge
p26
F0
sVtag
p27
I0
sVposition
p28
(lp29
F4.1772491985535893
aF5.4686550224151915
aF12.056286984760725
asVmomentum
p30
(lp31
F0
aF0
aF0
asa(dp32
Vmagmom
p33
F0
sVindex
p34
I1
sVsymbol
p35
VCu
p36
sVcharge
p37
F0
sVtag
p38
I0
sVposition
p39
(lp40
F8.3544983971071805
aF2.7343275112075975
aF15.214271140558516
asVmomentum
p41
(lp42
F0
aF0
aF0
asa(dp43
Vmagmom
p44
F0
sVindex
p45
I2
sVsymbol
p46
VCu
p47
sVcharge
p48
F0
sVtag
p49
I0
sVposition
p50
(lp51
F8.3544983971071805
aF8.2029825336227908
aF19.949283458350187
asVmomentum
p52
(lp53
F0
aF0
aF0
asa(dp54
Vmagmom
p55
F0
sVindex
p56
I3
sVsymbol
p57
VCu
p58
sVcharge
p59
F0
sVtag
p60
I0
sVposition
p61
(lp62
F12.53174759566077
aF10.937310044830387
aF16.791299302552396
asVmomentum
p63
(lp64
F0
aF0
aF0
asa(dp65
Vmagmom
p66
F0
sVindex
p67
I4
sVsymbol
p68
VCu
p69
sVcharge
p70
F0
sVtag
p71
I0
sVposition
p72
(lp73
F12.53174759566077
aF8.2029825336227908
aF14.423793143656564
asVmomentum
p74
(lp75
F0
aF0
aF0
asa(dp76
Vmagmom
p77
F0
sVindex
p78
I5
sVsymbol
p79
VCu
p80
sVcharge
p81
F0
sVtag
p82
I0
sVposition
p83
(lp84
F8.3544983971071805
aF5.4686550224151933
aF17.581777299454355
asVmomentum
p85
(lp86
F0
aF0
aF0
asa(dp87
Vmagmom
p88
F0
sVindex
p89
I6
sVsymbol
p90
VCu
p91
sVcharge
p92
F0
sVtag
p93
I0
sVposition
p94
(lp95
F7.0580335615551688e-16
aF0
aF12.84676498166268
asVmomentum
p96
(lp97
F0
aF0
aF0
asa(dp98
Vmagmom
p99
F0
sVindex
p100
I7
sVsymbol
p101
VCu
p102
sVcharge
p103
F0
sVtag
p104
I0
sVposition
p105
(lp106
F4.1772491985535876
aF2.7343275112075958
aF20.739761455252143
asVmomentum
p107
(lp108
F0
aF0
aF0
asa(dp109
Vmagmom
p110
F0
sVindex
p111
I8
sVsymbol
p112
VCu
p113
sVcharge
p114
F0
sVtag
p115
I0
sVposition
p116
(lp117
F12.531747595660772
aF9.5701462892265905
aF10.082055908410855
asVmomentum
p118
(lp119
F0
aF0
aF0
asa(dp120
Vmagmom
p121
F0
sVindex
p122
I9
sVsymbol
p123
VCu
p124
sVcharge
p125
F0
sVtag
p126
I0
sVposition
p127
(lp128
F8.3544983971071805
aF6.8358187780189921
aF13.240040064208642
asVmomentum
p129
(lp130
F0
aF0
aF0
asa(dp131
Vmagmom
p132
F0
sVindex
p133
I10
sVsymbol
p134
VCu
p135
sVcharge
p136
F0
sVtag
p137
I0
sVposition
p138
(lp139
F8.354498397107184
aF1.3671637556037979
aF19.556008375804225
asVmomentum
p140
(lp141
F0
aF0
aF0
asa(dp142
Vmagmom
p143
F0
sVindex
p144
I11
sVsymbol
p145
VCu
p146
sVcharge
p147
F0
sVtag
p148
I0
sVposition
p149
(lp150
F4.1772491985535893
aF4.1014912668113945
aF16.398024220006434
asVmomentum
p151
(lp152
F0
aF0
aF0
asa(dp153
Vmagmom
p154
F0
sVindex
p155
I12
sVsymbol
p156
VCu
p157
sVcharge
p158
F0
sVtag
p159
I0
sVposition
p160
(lp161
F4.1772491985535902
aF1.3671637556037988
aF14.0305180611106
asVmomentum
p162
(lp163
F0
aF0
aF0
asa(dp164
Vmagmom
p165
F0
sVindex
p166
I13
sVsymbol
p167
VCu
p168
sVcharge
p169
F0
sVtag
p170
I0
sVposition
p171
(lp172
F8.3544983971071822
aF9.5701462892265905
aF15.607546223104476
asVmomentum
p173
(lp174
F0
aF0
aF0
asa(dp175
Vmagmom
p176
F0
sVindex
p177
I14
sVsymbol
p178
VCu
p179
sVcharge
p180
F0
sVtag
p181
I0
sVposition
p182
(lp183
F8.3544983971071805
aF4.1014912668113954
aF10.872533905312808
asVmomentum
p184
(lp185
F0
aF0
aF0
asa(dp186
Vmagmom
p187
F0
sVindex
p188
I15
sVsymbol
p189
VCu
p190
sVcharge
p191
F0
sVtag
p192
I0
sVposition
p193
(lp194
F12.53174759566077
aF6.8358187780189921
aF18.76553037890227
asVmomentum
p195
(lp196
F0
aF0
aF0
asa(dp197
Vmagmom
p198
F0
sVindex
p199
I16
sVsymbol
p200
VCu
p201
sVcharge
p202
F0
sVtag
p203
I0
sVposition
p204
(lp205
F10.07418784589782
aF6.0259388046533644
aF11.412657665530428
asVmomentum
p206
(lp207
F0
aF0
aF0
asa(dp208
Vmagmom
p209
F0
sVindex
p210
I17
sVsymbol
p211
VCu
p212
sVcharge
p213
F0
sVtag
p214
I0
sVposition
p215
(lp216
F5.8969386473442285
aF3.2916112934457686
aF14.57064182132822
asVmomentum
p217
(lp218
F0
aF0
aF0
asa(dp219
Vmagmom
p220
F0
sVindex
p221
I18
sVsymbol
p222
VCu
p223
sVcharge
p224
F0
sVtag
p225
I0
sVposition
p226
(lp227
F14.251437044451412
aF8.7602663158609619
aF19.305654139119895
asVmomentum
p228
(lp229
F0
aF0
aF0
asa(dp230
Vmagmom
p231
F0
sVindex
p232
I19
sVsymbol
p233
VCu
p234
sVcharge
p235
F0
sVtag
p236
I0
sVposition
p237
(lp238
F1.7196894487906393
aF0.55728378223817288
aF17.728625977126008
asVmomentum
p239
(lp240
F0
aF0
aF0
asa(dp241
Vmagmom
p242
F0
sVindex
p243
I20
sVsymbol
p244
VCu
p245
sVcharge
p246
F0
sVtag
p247
I0
sVposition
p248
(lp249
F11.680381684598707
aF6.5943226441098357
aF16.281698761153621
asVmomentum
p250
(lp251
F0
aF0
aF0
asa(dp252
Vmagmom
p253
F0
sVindex
p254
I21
sVsymbol
p255
VCu
p256
sVcharge
p257
F0
sVtag
p258
I0
sVposition
p259
(lp260
F7.503132486045117
aF3.8599951329022399
aF19.439682916951408
asVmomentum
p261
(lp262
F0
aF0
aF0
asa(dp263
Vmagmom
p264
F0
sVindex
p265
I22
sVsymbol
p266
VCu
p267
sVcharge
p268
F0
sVtag
p269
I0
sVposition
p270
(lp271
F7.503132486045117
aF9.3286501553174297
aF13.123714605355826
asVmomentum
p272
(lp273
F0
aF0
aF0
asa(dp274
Vmagmom
p275
F0
sVindex
p276
I23
sVsymbol
p277
VCu
p278
sVcharge
p279
F0
sVtag
p280
I0
sVposition
p281
(lp282
F3.3258832874915258
aF1.1256676216946406
aF11.546686443361946
asVmomentum
p283
(lp284
F0
aF0
aF0
asa(dp285
Vmagmom
p286
F0
sVindex
p287
I24
sVsymbol
p288
VCu
p289
sVcharge
p290
F0
sVtag
p291
I0
sVposition
p292
(lp293
F13.383113506722829
aF9.8116424231357406
aF12.565887526159507
asVmomentum
p294
(lp295
F0
aF0
aF0
asa(dp296
Vmagmom
p297
F0
sVindex
p298
I25
sVsymbol
p299
VCu
p300
sVcharge
p301
F0
sVtag
p302
I0
sVposition
p303
(lp304
F9.2058643081692431
aF7.0773149119281493
aF15.723871681957297
asVmomentum
p305
(lp306
F0
aF0
aF0
asa(dp307
Vmagmom
p308
F0
sVindex
p309
I26
sVsymbol
p310
VCu
p311
sVcharge
p312
F0
sVtag
p313
I0
sVposition
p314
(lp315
F9.2058643081692413
aF1.6086598895129542
aF10.988859364165627
asVmomentum
p316
(lp317
F0
aF0
aF0
asa(dp318
Vmagmom
p319
F0
sVindex
p320
I27
sVsymbol
p321
VCu
p322
sVcharge
p323
F0
sVtag
p324
I0
sVposition
p325
(lp326
F5.0286151096156502
aF4.3429874007205518
aF18.88185583775509
asVmomentum
p327
(lp328
F0
aF0
aF0
asa(dp329
Vmagmom
p330
F0
sVindex
p331
I28
sVsymbol
p332
VCu
p333
sVcharge
p334
F0
sVtag
p335
I0
sVposition
p336
(lp337
F6.6348089483165404
aF4.9113712401770222
aF12.699916303991021
asVmomentum
p338
(lp339
F0
aF0
aF0
asa(dp340
Vmagmom
p341
F0
sVindex
p342
I29
sVsymbol
p343
VCu
p344
sVcharge
p345
F0
sVtag
p346
I0
sVposition
p347
(lp348
F2.4575597497629493
aF2.1770437289694247
aF15.857900459788814
asVmomentum
p349
(lp350
F0
aF0
aF0
asa(dp351
Vmagmom
p352
F0
sVindex
p353
I30
sVsymbol
p354
VCu
p355
sVcharge
p356
F0
sVtag
p357
I0
sVposition
p358
(lp359
F10.812058146870134
aF7.6456987513846206
aF20.592912777580484
asVmomentum
p360
(lp361
F0
aF0
aF0
asa(dp362
Vmagmom
p363
F0
sVindex
p364
I31
sVsymbol
p365
VCu
p366
sVcharge
p367
F0
sVtag
p368
I0
sVposition
p369
(lp370
F14.989307345423722
aF10.380026262592216
aF17.434928621782696
asVmomentum
p371
(lp372
F0
aF0
aF0
asa(dp373
Vmagmom
p374
F0
sVindex
p375
I32
sVsymbol
p376
VCu
p377
sVcharge
p378
F0
sVtag
p379
I0
sVposition
p380
(lp381
F5.0144645944105672
aF5.7545584397625174
aF14.480513777018201
asVmomentum
p382
(lp383
F0
aF0
aF0
asa(dp384
Vmagmom
p385
F0
sVindex
p386
I33
sVsymbol
p387
VCu
p388
sVcharge
p389
F0
sVtag
p390
I0
sVposition
p391
(lp392
F9.1917137929641601
aF3.0202309285549234
aF17.638497932815991
asVmomentum
p393
(lp394
F0
aF0
aF0
asa(dp395
Vmagmom
p396
F0
sVindex
p397
I34
sVsymbol
p398
VCu
p399
sVcharge
p400
F0
sVtag
p401
I0
sVposition
p402
(lp403
F9.1917137929641601
aF8.4888859509701167
aF11.32252962122041
asVmomentum
p404
(lp405
F0
aF0
aF0
asa(dp406
Vmagmom
p407
F0
sVindex
p408
I35
sVsymbol
p409
VCu
p410
sVcharge
p411
F0
sVtag
p412
I0
sVposition
p413
(lp414
F5.014464594410569
aF0.28590341734732583
aF20.796482088613779
asVmomentum
p415
(lp416
F0
aF0
aF0
asa(dp417
Vmagmom
p418
F0
sVindex
p419
I36
sVsymbol
p420
VCu
p421
sVcharge
p422
F0
sVtag
p423
I0
sVposition
p424
(lp425
F14.17730808144378
aF10.114051717877574
aF14.971051020741141
asVmomentum
p426
(lp427
F0
aF0
aF0
asa(dp428
Vmagmom
p429
F0
sVindex
p430
I37
sVsymbol
p431
VCu
p432
sVcharge
p433
F0
sVtag
p434
I0
sVposition
p435
(lp436
F10.00005888289019
aF7.3797242066699766
aF18.129035176538931
asVmomentum
p437
(lp438
F0
aF0
aF0
asa(dp439
Vmagmom
p440
F0
sVindex
p441
I38
sVsymbol
p442
VCu
p443
sVcharge
p444
F0
sVtag
p445
I0
sVposition
p446
(lp447
F1.6455604857830108
aF1.911069184254786
aF13.394022858747258
asVmomentum
p448
(lp449
F0
aF0
aF0
asa(dp450
Vmagmom
p451
F0
sVindex
p452
I39
sVsymbol
p453
VCu
p454
sVcharge
p455
F0
sVtag
p456
I0
sVposition
p457
(lp458
F5.8228096843365975
aF4.6453966954623809
aF21.287019332336719
asVmomentum
p459
(lp460
F0
aF0
aF0
asa(dp461
Vmagmom
p462
F0
sVindex
p463
I40
sVsymbol
p464
VCu
p465
sVcharge
p466
F0
sVtag
p467
I0
sVposition
p468
(lp469
F10.886187109877758
aF9.0180093316627605
aF16.236914190226837
asVmomentum
p470
(lp471
F0
aF0
aF0
asa(dp472
Vmagmom
p473
F0
sVindex
p474
I41
sVsymbol
p475
VCu
p476
sVcharge
p477
F0
sVtag
p478
I0
sVposition
p479
(lp480
F6.7089379113241696
aF6.2836818204551648
aF19.394898346024625
asVmomentum
p481
(lp482
F0
aF0
aF0
asa(dp483
Vmagmom
p484
F0
sVindex
p485
I42
sVsymbol
p486
VCu
p487
sVcharge
p488
F0
sVtag
p489
I0
sVposition
p490
(lp491
F6.7089379113241687
aF0.81502679803997324
aF14.659886028232956
asVmomentum
p492
(lp493
F0
aF0
aF0
asa(dp494
Vmagmom
p495
F0
sVindex
p496
I43
sVsymbol
p497
VCu
p498
sVcharge
p499
F0
sVtag
p500
I0
sVposition
p501
(lp502
F10.886187109877756
aF3.5493543092475663
aF11.501901872435164
asVmomentum
p503
(lp504
F0
aF0
aF0
asa(dp505
Vmagmom
p506
F0
sVindex
p507
I44
sVsymbol
p508
VCu
p509
sVcharge
p510
F0
sVtag
p511
I0
sVposition
p512
(lp513
F11.69453219980379
aF7.9088475873626241
aF11.992439116158103
asVmomentum
p514
(lp515
F0
aF0
aF0
asa(dp516
Vmagmom
p517
F0
sVindex
p518
I45
sVsymbol
p519
VCu
p520
sVcharge
p521
F0
sVtag
p522
I0
sVposition
p523
(lp524
F7.5172830012502017
aF5.1745200761550318
aF15.150423271955896
asVmomentum
p525
(lp526
F0
aF0
aF0
asa(dp527
Vmagmom
p528
F0
sVindex
p529
I46
sVsymbol
p530
VCu
p531
sVcharge
p532
F0
sVtag
p533
I0
sVposition
p534
(lp535
F15.871781398357383
aF10.643175098570225
aF19.885435589747566
asVmomentum
p536
(lp537
F0
aF0
aF0
asa(dp538
Vmagmom
p539
F0
sVindex
p540
I47
sVsymbol
p541
VCu
p542
sVcharge
p543
F0
sVtag
p544
I0
sVposition
p545
(lp546
F3.340033802696611
aF2.4401925649474343
aF18.308407427753686
asVmomentum
p547
(lp548
F0
aF0
aF0
asa(dp549
Vmagmom
p550
F0
sVindex
p551
I48
sVsymbol
p552
VCu
p553
sVcharge
p554
F0
sVtag
p555
I0
sVposition
p556
(lp557
F11.69453219980379
aF10.651406627483061
aF14.367072510294925
asVmomentum
p558
(lp559
F0
aF0
aF0
asa(dp560
Vmagmom
p561
F0
sVindex
p562
I49
sVsymbol
p563
VCu
p564
sVcharge
p565
F0
sVtag
p566
I0
sVposition
p567
(lp568
F7.5172830012502008
aF7.9170791162754641
aF17.525056666092716
asVmomentum
p569
(lp570
F0
aF0
aF0
asa(dp571
Vmagmom
p572
F0
sVindex
p573
I50
sVsymbol
p574
VCu
p575
sVcharge
p576
F0
sVtag
p577
I0
sVposition
p578
(lp579
F7.5172830012502017
aF2.4484240938602717
aF12.790044348301041
asVmomentum
p580
(lp581
F0
aF0
aF0
asa(dp582
Vmagmom
p583
F0
sVindex
p584
I51
sVsymbol
p585
VCu
p586
sVcharge
p587
F0
sVtag
p588
I0
sVposition
p589
(lp590
F11.69453219980379
aF5.1827516050678675
aF20.683040821890508
asVmomentum
p591
(lp592
F0
aF0
aF0
asa(dp593
Vmagmom
p594
F0
sVindex
p595
I52
sVsymbol
p596
VCu
p597
sVcharge
p598
F0
sVtag
p599
I0
sVposition
p600
(lp601
F10.88618710987776
aF6.2919133493680031
aF13.876535266571985
asVmomentum
p602
(lp603
F0
aF0
aF0
asa(dp604
Vmagmom
p605
F0
sVindex
p606
I53
sVsymbol
p607
VCu
p608
sVcharge
p609
F0
sVtag
p610
I0
sVposition
p611
(lp612
F6.7089379113241687
aF3.5575858381604082
aF17.034519422369776
asVmomentum
p613
(lp614
F0
aF0
aF0
asa(dp615
Vmagmom
p616
F0
sVindex
p617
I54
sVsymbol
p618
VCu
p619
sVcharge
p620
F0
sVtag
p621
I0
sVposition
p622
(lp623
F15.063436308431351
aF9.0262408605756015
aF10.718551110774193
asVmomentum
p624
(lp625
F0
aF0
aF0
asa(dp626
Vmagmom
p627
F0
sVindex
p628
I55
sVsymbol
p629
VCu
p630
sVcharge
p631
F0
sVtag
p632
I0
sVposition
p633
(lp634
F2.5316887127705763
aF0.82325832695281065
aF20.192503578167567
asVmomentum
p635
(lp636
F0
aF0
aF0
asa(dp637
Vmagmom
p638
F0
sVindex
p639
I56
sVsymbol
p640
VCu
p641
sVcharge
p642
F0
sVtag
p643
I0
sVposition
p644
(lp645
F5.8228096843366002
aF7.3879557355828158
aF12.61067209708629
asVmomentum
p646
(lp647
F0
aF0
aF0
asa(dp648
Vmagmom
p649
F0
sVindex
p650
I57
sVsymbol
p651
VCu
p652
sVcharge
p653
F0
sVtag
p654
I0
sVposition
p655
(lp656
F10.00005888289019
aF4.6536282243752227
aF15.768656252884082
asVmomentum
p657
(lp658
F0
aF0
aF0
asa(dp659
Vmagmom
p660
F0
sVindex
p661
I58
sVsymbol
p662
VCu
p663
sVcharge
p664
F0
sVtag
p665
I0
sVposition
p666
(lp667
F10.000058882890194
aF10.122283246790415
aF20.503668570675746
asVmomentum
p668
(lp669
F0
aF0
aF0
asa(dp670
Vmagmom
p671
F0
sVindex
p672
I59
sVsymbol
p673
VCu
p674
sVcharge
p675
F0
sVtag
p676
I0
sVposition
p677
(lp678
F5.8228096843365984
aF1.9193007131676261
aF18.92664040868187
asVmomentum
p679
(lp680
F0
aF0
aF0
asa(dp681
Vmagmom
p682
F0
sVindex
p683
I60
sVsymbol
p684
VCu
p685
sVcharge
p686
F0
sVtag
p687
I0
sVposition
p688
(lp689
F13.368962991517749
aF8.4971174798829523
aF16.855147171155021
asVmomentum
p690
(lp691
F0
aF0
aF0
asa(dp692
Vmagmom
p693
F0
sVindex
p694
I61
sVsymbol
p695
VCu
p696
sVcharge
p697
F0
sVtag
p698
I0
sVposition
p699
(lp700
F9.1917137929641601
aF5.7627899686753601
aF20.013131326952816
asVmomentum
p701
(lp702
F0
aF0
aF0
asa(dp703
Vmagmom
p704
F0
sVindex
p705
I62
sVsymbol
p706
VCu
p707
sVcharge
p708
F0
sVtag
p709
I0
sVposition
p710
(lp711
F0.83721539585697879
aF0.29413494626016412
aF15.27811900916114
asVmomentum
p712
(lp713
F0
aF0
aF0
asa(dp714
Vmagmom
p715
F0
sVindex
p716
I63
sVsymbol
p717
VCu
p718
sVcharge
p719
F0
sVtag
p720
I0
sVposition
p721
(lp722
F5.0144645944105681
aF3.0284624574677599
aF12.12013485336335
asVmomentum
p723
(lp724
F0
aF0
aF0
asa(dp725
Vmagmom
p726
F0
sVindex
p727
I64
sVsymbol
p728
VPd
p729
sVcharge
p730
F0
sVtag
p731
I0
sVposition
p732
(lp733
F3.3830437629847254
aF3.8135747281772181
aF13.967805383472346
asVmomentum
p734
(lp735
F0
aF0
aF0
asa(dp736
Vmagmom
p737
F0
sVindex
p738
I65
sVsymbol
p739
VPd
p740
sVcharge
p741
F0
sVtag
p742
I0
sVposition
p743
(lp744
F7.560292961538317
aF1.0792472169696197
aF17.125789539270137
asVmomentum
p745
(lp746
F0
aF0
aF0
asa(dp747
Vmagmom
p748
F0
sVindex
p749
I66
sVsymbol
p750
VPd
p751
sVcharge
p752
F0
sVtag
p753
I0
sVposition
p754
(lp755
F7.560292961538317
aF6.5479022393848165
aF10.809821227674554
asVmomentum
p756
(lp757
F0
aF0
aF0
asa(dp758
Vmagmom
p759
F0
sVindex
p760
I67
sVsymbol
p761
VPd
p762
sVcharge
p763
F0
sVtag
p764
I0
sVposition
p765
(lp766
F11.737542160091907
aF9.2822297505924123
aF18.702817701264014
asVmomentum
p767
(lp768
F0
aF0
aF0
asa(dp769
Vmagmom
p770
F0
sVindex
p771
I68
sVsymbol
p772
VPd
p773
sVcharge
p774
F0
sVtag
p775
I0
sVposition
p776
(lp777
F6.7057256902354636
aF7.6831146328093762
aF15.024209365615118
asVmomentum
p778
(lp779
F0
aF0
aF0
asa(dp780
Vmagmom
p781
F0
sVindex
p782
I69
sVsymbol
p783
VPd
p784
sVcharge
p785
F0
sVtag
p786
I0
sVposition
p787
(lp788
F10.882974888789057
aF4.9487871216017858
aF18.182193521412906
asVmomentum
p789
(lp790
F0
aF0
aF0
asa(dp791
Vmagmom
p792
F0
sVindex
p793
I70
sVsymbol
p794
VPd
p795
sVcharge
p796
F0
sVtag
p797
I0
sVposition
p798
(lp799
F10.882974888789056
aF10.417442144016977
aF11.86622520981733
asVmomentum
p800
(lp801
F0
aF0
aF0
asa(dp802
Vmagmom
p803
F0
sVindex
p804
I71
sVsymbol
p805
VPd
p806
sVcharge
p807
F0
sVtag
p808
I0
sVposition
p809
(lp810
F6.7057256902354654
aF2.2144596103941883
aF21.340177677210697
asVmomentum
p811
(lp812
F0
aF0
aF0
asa(dp813
Vmagmom
p814
F0
sVindex
p815
I72
sVsymbol
p816
VPd
p817
sVcharge
p818
F0
sVtag
p819
I0
sVposition
p820
(lp821
F10.003271103978895
aF8.7228504344362001
aF13.823376921698008
asVmomentum
p822
(lp823
F0
aF0
aF0
asa(dp824
Vmagmom
p825
F0
sVindex
p826
I73
sVsymbol
p827
VPd
p828
sVcharge
p829
F0
sVtag
p830
I0
sVposition
p831
(lp832
F5.8260219054253035
aF5.9885229232286035
aF16.981361077495798
asVmomentum
p833
(lp834
F0
aF0
aF0
asa(dp835
Vmagmom
p836
F0
sVindex
p837
I74
sVsymbol
p838
VPd
p839
sVcharge
p840
F0
sVtag
p841
I0
sVposition
p842
(lp843
F5.8260219054253044
aF0.51986790081340928
aF12.246348759704127
asVmomentum
p844
(lp845
F0
aF0
aF0
asa(dp846
Vmagmom
p847
F0
sVindex
p848
I75
sVsymbol
p849
VPd
p850
sVcharge
p851
F0
sVtag
p852
I0
sVposition
p853
(lp854
F10.003271103978895
aF3.2541954120210068
aF20.139345233293589
asVmomentum
p855
(lp856
F0
aF0
aF0
asa(dp857
Vmagmom
p858
F0
sVindex
p859
I76
sVsymbol
p860
VPd
p861
sVcharge
p862
F0
sVtag
p863
I0
sVposition
p864
(lp865
F13.325953031229632
aF7.1237353166531676
aF10.144768586049111
asVmomentum
p866
(lp867
F0
aF0
aF0
asa(dp868
Vmagmom
p869
F0
sVindex
p870
I77
sVsymbol
p871
VPd
p872
sVcharge
p873
F0
sVtag
p874
I0
sVposition
p875
(lp876
F9.1487038326760448
aF4.389407805445571
aF13.302752741846898
asVmomentum
p877
(lp878
F0
aF0
aF0
asa(dp879
Vmagmom
p880
F0
sVindex
p881
I78
sVsymbol
p882
VPd
p883
sVcharge
p884
F0
sVtag
p885
I0
sVposition
p886
(lp887
F9.1487038326760448
aF9.8580628278607669
aF18.03776505963857
asVmomentum
p888
(lp889
F0
aF0
aF0
asa(dp890
Vmagmom
p891
F0
sVindex
p892
I79
sVsymbol
p893
VPd
p894
sVcharge
p895
F0
sVtag
p896
I0
sVposition
p897
(lp898
F4.971454634122451
aF1.6550802942379752
aF16.460736897644686
asVmomentum
p899
(lp900
F0
aF0
aF0
asasVcell
p901
(lp902
(lp903
F8.3544983971071805
aF0
aF4.4408920985006262e-16
aa(lp904
F8.3544983971071805
aF10.937310044830387
aF-1.5809559938039097
aa(lp905
F4.5071176484954476e-17
aF0
aF33.152941888161756
aasVmass
p906
F5769.6639999999961
sVpbc
p907
(lp908
I01
aI01
aI01
asVspacegroup
p909
VP1 (1)
p910
sVconstraints
p911
(lp912
(dp913
Vname
p914
VFixAtoms
p915
sVkwargs
p916
(dp917
Vindices
p918
(lp919
I0
aI1
aI3
aI4
aI5
aI6
aI8
aI9
aI11
aI12
aI13
aI14
aI16
aI17
aI19
aI20
aI22
aI23
aI24
aI25
aI26
aI28
aI29
aI31
aI32
aI33
aI34
aI36
aI38
aI40
aI42
aI43
aI44
aI45
aI47
aI48
aI49
aI50
aI52
aI53
aI54
aI56
aI57
aI60
aI62
aI63
aI64
aI65
aI66
aI68
aI69
aI70
aI72
aI73
aI74
aI76
aI77
aI79
assasaa(lp920
S'results'
p921
ag2
((ltRp922
aa(lp923
S'user'
p924
aS'ktran'
p925
aa(lp926
S'inserted-hash'
p927
aS'838ab7322a5ba1a4bde960b555c5ed4aaeaca6e8'
p928
aa(lp929
S'ctime'
p930
acdatetime
datetime
p931
(S'\x07\xe1\x03\x1f\x13-\x05\x01\x0b\xa9'
tRp932
aa(lp933
S'mtime'
p934
ag931
(S'\x07\xe1\x03\x1f\x13-\x05\x01\x0b\xd6'
tRp935
aa(lp936
S'tags'
p937
a(dp938
S'get_slab_settings'
p939
g2
((lp940
(lp941
S'max_broken_bonds'
p942
aI0
aa(lp943
S'bonds'
p944
aNaa(lp945
S'tol'
p946
aF0.29999999999999999
aa(lp947
S'symmetrize'
p948
aI00
aatRp949
sS'relaxed'
p950
I00
sS'mpid'
p951
Vmp-30594
p952
sS'shift'
p953
I0
sS'slab_generate_settings'
p954
g2
((lp955
(lp956
S'primitive'
p957
aI01
aa(lp958
S'min_vacuum_size'
p959
aF20
aa(lp960
S'lll_reduce'
p961
aI00
aa(lp962
S'max_normal_search'
p963
aI1
aa(lp964
S'min_slab_size'
p965
aF7
aa(lp966
S'center_slab'
p967
aI01
aatRp968
sS'miller'
p969
(I1
I1
I2
tp970
sS'top'
p971
I01
sS'type'
p972
S'slab'
p973
sS'num_slab_atoms'
p974
I80
saatRp975
ag2
((lp976
(lp977
g5
a(dp978
Vinfo
p979
(dp980
sVvolume
p981
F3029.3745729518605
sVnatoms
p982
I80
sVsymbol_counts
p983
(dp984
VCu
p985
I64
sVPd
p986
I16
ssVchemical_symbols
p987
(lp988
VPd
p989
aVCu
p990
asVatoms
p991
(lp992
(dp993
Vmagmom
p994
F0
sVindex
p995
I0
sVsymbol
p996
VCu
p997
sVcharge
p998
F0
sVtag
p999
I0
sVposition
p1000
(lp1001
F4.1772491985535893
aF-5.4686550224151933
aF-12.056286984760725
asVmomentum
p1002
(lp1003
F0
aF0
aF0
asa(dp1004
Vmagmom
p1005
F0
sVindex
p1006
I1
sVsymbol
p1007
VCu
p1008
sVcharge
p1009
F0
sVtag
p1010
I0
sVposition
p1011
(lp1012
F8.3544983971071805
aF-2.7343275112075993
aF-15.214271140558516
asVmomentum
p1013
(lp1014
F0
aF0
aF0
asa(dp1015
Vmagmom
p1016
F0
sVindex
p1017
I2
sVsymbol
p1018
VCu
p1019
sVcharge
p1020
F0
sVtag
p1021
I0
sVposition
p1022
(lp1023
F8.3544983971071805
aF-8.2029825336227926
aF-19.949283458350187
asVmomentum
p1024
(lp1025
F0
aF0
aF0
asa(dp1026
Vmagmom
p1027
F0
sVindex
p1028
I3
sVsymbol
p1029
VCu
p1030
sVcharge
p1031
F0
sVtag
p1032
I0
sVposition
p1033
(lp1034
F12.53174759566077
aF-10.937310044830388
aF-16.791299302552396
asVmomentum
p1035
(lp1036
F0
aF0
aF0
asa(dp1037
Vmagmom
p1038
F0
sVindex
p1039
I4
sVsymbol
p1040
VCu
p1041
sVcharge
p1042
F0
sVtag
p1043
I0
sVposition
p1044
(lp1045
F12.53174759566077
aF-8.2029825336227926
aF-14.423793143656562
asVmomentum
p1046
(lp1047
F0
aF0
aF0
asa(dp1048
Vmagmom
p1049
F0
sVindex
p1050
I5
sVsymbol
p1051
VCu
p1052
sVcharge
p1053
F0
sVtag
p1054
I0
sVposition
p1055
(lp1056
F8.3544983971071805
aF-5.4686550224151951
aF-17.581777299454355
asVmomentum
p1057
(lp1058
F0
aF0
aF0
asa(dp1059
Vmagmom
p1060
F0
sVindex
p1061
I6
sVsymbol
p1062
VCu
p1063
sVcharge
p1064
F0
sVtag
p1065
I0
sVposition
p1066
(lp1067
F7.0580335615551688e-16
aF-1.5732749614191506e-15
aF-12.84676498166268
asVmomentum
p1068
(lp1069
F0
aF0
aF0
asa(dp1070
Vmagmom
p1071
F0
sVindex
p1072
I7
sVsymbol
p1073
VCu
p1074
sVcharge
p1075
F0
sVtag
p1076
I0
sVposition
p1077
(lp1078
F4.1772491985535876
aF-2.7343275112075984
aF-20.739761455252143
asVmomentum
p1079
(lp1080
F0
aF0
aF0
asa(dp1081
Vmagmom
p1082
F0
sVindex
p1083
I8
sVsymbol
p1084
VCu
p1085
sVcharge
p1086
F0
sVtag
p1087
I0
sVposition
p1088
(lp1089
F12.531747595660772
aF-9.5701462892265923
aF-10.082055908410853
asVmomentum
p1090
(lp1091
F0
aF0
aF0
asa(dp1092
Vmagmom
p1093
F0
sVindex
p1094
I9
sVsymbol
p1095
VCu
p1096
sVcharge
p1097
F0
sVtag
p1098
I0
sVposition
p1099
(lp1100
F8.3544983971071805
aF-6.8358187780189938
aF-13.240040064208642
asVmomentum
p1101
(lp1102
F0
aF0
aF0
asa(dp1103
Vmagmom
p1104
F0
sVindex
p1105
I10
sVsymbol
p1106
VCu
p1107
sVcharge
p1108
F0
sVtag
p1109
I0
sVposition
p1110
(lp1111
F8.354498397107184
aF-1.3671637556038003
aF-19.556008375804225
asVmomentum
p1112
(lp1113
F0
aF0
aF0
asa(dp1114
Vmagmom
p1115
F0
sVindex
p1116
I11
sVsymbol
p1117
VCu
p1118
sVcharge
p1119
F0
sVtag
p1120
I0
sVposition
p1121
(lp1122
F4.1772491985535893
aF-4.1014912668113963
aF-16.398024220006434
asVmomentum
p1123
(lp1124
F0
aF0
aF0
asa(dp1125
Vmagmom
p1126
F0
sVindex
p1127
I12
sVsymbol
p1128
VCu
p1129
sVcharge
p1130
F0
sVtag
p1131
I0
sVposition
p1132
(lp1133
F4.1772491985535902
aF-1.3671637556038005
aF-14.0305180611106
asVmomentum
p1134
(lp1135
F0
aF0
aF0
asa(dp1136
Vmagmom
p1137
F0
sVindex
p1138
I13
sVsymbol
p1139
VCu
p1140
sVcharge
p1141
F0
sVtag
p1142
I0
sVposition
p1143
(lp1144
F8.3544983971071822
aF-9.5701462892265923
aF-15.607546223104475
asVmomentum
p1145
(lp1146
F0
aF0
aF0
asa(dp1147
Vmagmom
p1148
F0
sVindex
p1149
I14
sVsymbol
p1150
VCu
p1151
sVcharge
p1152
F0
sVtag
p1153
I0
sVposition
p1154
(lp1155
F8.3544983971071805
aF-4.1014912668113963
aF-10.872533905312808
asVmomentum
p1156
(lp1157
F0
aF0
aF0
asa(dp1158
Vmagmom
p1159
F0
sVindex
p1160
I15
sVsymbol
p1161
VCu
p1162
sVcharge
p1163
F0
sVtag
p1164
I0
sVposition
p1165
(lp1166
F12.53174759566077
aF-6.8358187780189947
aF-18.76553037890227
asVmomentum
p1167
(lp1168
F0
aF0
aF0
asa(dp1169
Vmagmom
p1170
F0
sVindex
p1171
I16
sVsymbol
p1172
VCu
p1173
sVcharge
p1174
F0
sVtag
p1175
I0
sVposition
p1176
(lp1177
F10.07418784589782
aF-6.0259388046533662
aF-11.412657665530428
asVmomentum
p1178
(lp1179
F0
aF0
aF0
asa(dp1180
Vmagmom
p1181
F0
sVindex
p1182
I17
sVsymbol
p1183
VCu
p1184
sVcharge
p1185
F0
sVtag
p1186
I0
sVposition
p1187
(lp1188
F5.8969386473442285
aF-3.2916112934457704
aF-14.57064182132822
asVmomentum
p1189
(lp1190
F0
aF0
aF0
asa(dp1191
Vmagmom
p1192
F0
sVindex
p1193
I18
sVsymbol
p1194
VCu
p1195
sVcharge
p1196
F0
sVtag
p1197
I0
sVposition
p1198
(lp1199
F14.251437044451412
aF-8.7602663158609637
aF-19.305654139119895
asVmomentum
p1200
(lp1201
F0
aF0
aF0
asa(dp1202
Vmagmom
p1203
F0
sVindex
p1204
I19
sVsymbol
p1205
VCu
p1206
sVcharge
p1207
F0
sVtag
p1208
I0
sVposition
p1209
(lp1210
F1.7196894487906393
aF-0.5572837822381751
aF-17.728625977126008
asVmomentum
p1211
(lp1212
F0
aF0
aF0
asa(dp1213
Vmagmom
p1214
F0
sVindex
p1215
I20
sVsymbol
p1216
VCu
p1217
sVcharge
p1218
F0
sVtag
p1219
I0
sVposition
p1220
(lp1221
F11.680381684598707
aF-6.5943226441098375
aF-16.281698761153621
asVmomentum
p1222
(lp1223
F0
aF0
aF0
asa(dp1224
Vmagmom
p1225
F0
sVindex
p1226
I21
sVsymbol
p1227
VCu
p1228
sVcharge
p1229
F0
sVtag
p1230
I0
sVposition
p1231
(lp1232
F7.503132486045117
aF-3.8599951329022422
aF-19.439682916951408
asVmomentum
p1233
(lp1234
F0
aF0
aF0
asa(dp1235
Vmagmom
p1236
F0
sVindex
p1237
I22
sVsymbol
p1238
VCu
p1239
sVcharge
p1240
F0
sVtag
p1241
I0
sVposition
p1242
(lp1243
F7.503132486045117
aF-9.3286501553174315
aF-13.123714605355824
asVmomentum
p1244
(lp1245
F0
aF0
aF0
asa(dp1246
Vmagmom
p1247
F0
sVindex
p1248
I23
sVsymbol
p1249
VCu
p1250
sVcharge
p1251
F0
sVtag
p1252
I0
sVposition
p1253
(lp1254
F3.3258832874915258
aF-1.125667621694642
aF-11.546686443361946
asVmomentum
p1255
(lp1256
F0
aF0
aF0
asa(dp1257
Vmagmom
p1258
F0
sVindex
p1259
I24
sVsymbol
p1260
VCu
p1261
sVcharge
p1262
F0
sVtag
p1263
I0
sVposition
p1264
(lp1265
F13.383113506722829
aF-9.8116424231357424
aF-12.565887526159505
asVmomentum
p1266
(lp1267
F0
aF0
aF0
asa(dp1268
Vmagmom
p1269
F0
sVindex
p1270
I25
sVsymbol
p1271
VCu
p1272
sVcharge
p1273
F0
sVtag
p1274
I0
sVposition
p1275
(lp1276
F9.2058643081692431
aF-7.0773149119281511
aF-15.723871681957297
asVmomentum
p1277
(lp1278
F0
aF0
aF0
asa(dp1279
Vmagmom
p1280
F0
sVindex
p1281
I26
sVsymbol
p1282
VCu
p1283
sVcharge
p1284
F0
sVtag
p1285
I0
sVposition
p1286
(lp1287
F9.2058643081692413
aF-1.6086598895129556
aF-10.988859364165627
asVmomentum
p1288
(lp1289
F0
aF0
aF0
asa(dp1290
Vmagmom
p1291
F0
sVindex
p1292
I27
sVsymbol
p1293
VCu
p1294
sVcharge
p1295
F0
sVtag
p1296
I0
sVposition
p1297
(lp1298
F5.0286151096156502
aF-4.3429874007205544
aF-18.88185583775509
asVmomentum
p1299
(lp1300
F0
aF0
aF0
asa(dp1301
Vmagmom
p1302
F0
sVindex
p1303
I28
sVsymbol
p1304
VCu
p1305
sVcharge
p1306
F0
sVtag
p1307
I0
sVposition
p1308
(lp1309
F6.6348089483165404
aF-4.911371240177024
aF-12.699916303991021
asVmomentum
p1310
(lp1311
F0
aF0
aF0
asa(dp1312
Vmagmom
p1313
F0
sVindex
p1314
I29
sVsymbol
p1315
VCu
p1316
sVcharge
p1317
F0
sVtag
p1318
I0
sVposition
p1319
(lp1320
F2.4575597497629493
aF-2.1770437289694264
aF-15.857900459788814
asVmomentum
p1321
(lp1322
F0
aF0
aF0
asa(dp1323
Vmagmom
p1324
F0
sVindex
p1325
I30
sVsymbol
p1326
VCu
p1327
sVcharge
p1328
F0
sVtag
p1329
I0
sVposition
p1330
(lp1331
F10.812058146870134
aF-7.6456987513846233
aF-20.592912777580484
asVmomentum
p1332
(lp1333
F0
aF0
aF0
asa(dp1334
Vmagmom
p1335
F0
sVindex
p1336
I31
sVsymbol
p1337
VCu
p1338
sVcharge
p1339
F0
sVtag
p1340
I0
sVposition
p1341
(lp1342
F14.989307345423722
aF-10.380026262592217
aF-17.434928621782696
asVmomentum
p1343
(lp1344
F0
aF0
aF0
asa(dp1345
Vmagmom
p1346
F0
sVindex
p1347
I32
sVsymbol
p1348
VCu
p1349
sVcharge
p1350
F0
sVtag
p1351
I0
sVposition
p1352
(lp1353
F5.0144645944105672
aF-5.7545584397625191
aF-14.480513777018201
asVmomentum
p1354
(lp1355
F0
aF0
aF0
asa(dp1356
Vmagmom
p1357
F0
sVindex
p1358
I33
sVsymbol
p1359
VCu
p1360
sVcharge
p1361
F0
sVtag
p1362
I0
sVposition
p1363
(lp1364
F9.1917137929641601
aF-3.0202309285549256
aF-17.638497932815991
asVmomentum
p1365
(lp1366
F0
aF0
aF0
asa(dp1367
Vmagmom
p1368
F0
sVindex
p1369
I34
sVsymbol
p1370
VCu
p1371
sVcharge
p1372
F0
sVtag
p1373
I0
sVposition
p1374
(lp1375
F9.1917137929641601
aF-8.4888859509701184
aF-11.322529621220408
asVmomentum
p1376
(lp1377
F0
aF0
aF0
asa(dp1378
Vmagmom
p1379
F0
sVindex
p1380
I35
sVsymbol
p1381
VCu
p1382
sVcharge
p1383
F0
sVtag
p1384
I0
sVposition
p1385
(lp1386
F5.014464594410569
aF-0.28590341734732838
aF-20.796482088613779
asVmomentum
p1387
(lp1388
F0
aF0
aF0
asa(dp1389
Vmagmom
p1390
F0
sVindex
p1391
I36
sVsymbol
p1392
VCu
p1393
sVcharge
p1394
F0
sVtag
p1395
I0
sVposition
p1396
(lp1397
F14.17730808144378
aF-10.114051717877576
aF-14.97105102074114
asVmomentum
p1398
(lp1399
F0
aF0
aF0
asa(dp1400
Vmagmom
p1401
F0
sVindex
p1402
I37
sVsymbol
p1403
VCu
p1404
sVcharge
p1405
F0
sVtag
p1406
I0
sVposition
p1407
(lp1408
F10.00005888289019
aF-7.3797242066699784
aF-18.129035176538931
asVmomentum
p1409
(lp1410
F0
aF0
aF0
asa(dp1411
Vmagmom
p1412
F0
sVindex
p1413
I38
sVsymbol
p1414
VCu
p1415
sVcharge
p1416
F0
sVtag
p1417
I0
sVposition
p1418
(lp1419
F1.6455604857830108
aF-1.9110691842547876
aF-13.394022858747258
asVmomentum
p1420
(lp1421
F0
aF0
aF0
asa(dp1422
Vmagmom
p1423
F0
sVindex
p1424
I39
sVsymbol
p1425
VCu
p1426
sVcharge
p1427
F0
sVtag
p1428
I0
sVposition
p1429
(lp1430
F5.8228096843365975
aF-4.6453966954623835
aF-21.287019332336719
asVmomentum
p1431
(lp1432
F0
aF0
aF0
asa(dp1433
Vmagmom
p1434
F0
sVindex
p1435
I40
sVsymbol
p1436
VCu
p1437
sVcharge
p1438
F0
sVtag
p1439
I0
sVposition
p1440
(lp1441
F10.886187109877758
aF-9.0180093316627623
aF-16.236914190226837
asVmomentum
p1442
(lp1443
F0
aF0
aF0
asa(dp1444
Vmagmom
p1445
F0
sVindex
p1446
I41
sVsymbol
p1447
VCu
p1448
sVcharge
p1449
F0
sVtag
p1450
I0
sVposition
p1451
(lp1452
F6.7089379113241696
aF-6.2836818204551674
aF-19.394898346024625
asVmomentum
p1453
(lp1454
F0
aF0
aF0
asa(dp1455
Vmagmom
p1456
F0
sVindex
p1457
I42
sVsymbol
p1458
VCu
p1459
sVcharge
p1460
F0
sVtag
p1461
I0
sVposition
p1462
(lp1463
F6.7089379113241687
aF-0.81502679803997502
aF-14.659886028232956
asVmomentum
p1464
(lp1465
F0
aF0
aF0
asa(dp1466
Vmagmom
p1467
F0
sVindex
p1468
I43
sVsymbol
p1469
VCu
p1470
sVcharge
p1471
F0
sVtag
p1472
I0
sVposition
p1473
(lp1474
F10.886187109877756
aF-3.5493543092475677
aF-11.501901872435164
asVmomentum
p1475
(lp1476
F0
aF0
aF0
asa(dp1477
Vmagmom
p1478
F0
sVindex
p1479
I44
sVsymbol
p1480
VCu
p1481
sVcharge
p1482
F0
sVtag
p1483
I0
sVposition
p1484
(lp1485
F11.69453219980379
aF-7.9088475873626258
aF-11.992439116158101
asVmomentum
p1486
(lp1487
F0
aF0
aF0
asa(dp1488
Vmagmom
p1489
F0
sVindex
p1490
I45
sVsymbol
p1491
VCu
p1492
sVcharge
p1493
F0
sVtag
p1494
I0
sVposition
p1495
(lp1496
F7.5172830012502017
aF-5.1745200761550336
aF-15.150423271955896
asVmomentum
p1497
(lp1498
F0
aF0
aF0
asa(dp1499
Vmagmom
p1500
F0
sVindex
p1501
I46
sVsymbol
p1502
VCu
p1503
sVcharge
p1504
F0
sVtag
p1505
I0
sVposition
p1506
(lp1507
F15.871781398357383
aF-10.643175098570227
aF-19.885435589747566
asVmomentum
p1508
(lp1509
F0
aF0
aF0
asa(dp1510
Vmagmom
p1511
F0
sVindex
p1512
I47
sVsymbol
p1513
VCu
p1514
sVcharge
p1515
F0
sVtag
p1516
I0
sVposition
p1517
(lp1518
F3.340033802696611
aF-2.4401925649474365
aF-18.308407427753686
asVmomentum
p1519
(lp1520
F0
aF0
aF0
asa(dp1521
Vmagmom
p1522
F0
sVindex
p1523
I48
sVsymbol
p1524
VCu
p1525
sVcharge
p1526
F0
sVtag
p1527
I0
sVposition
p1528
(lp1529
F11.69453219980379
aF-10.651406627483063
aF-14.367072510294923
asVmomentum
p1530
(lp1531
F0
aF0
aF0
asa(dp1532
Vmagmom
p1533
F0
sVindex
p1534
I49
sVsymbol
p1535
VCu
p1536
sVcharge
p1537
F0
sVtag
p1538
I0
sVposition
p1539
(lp1540
F7.5172830012502008
aF-7.9170791162754659
aF-17.525056666092716
asVmomentum
p1541
(lp1542
F0
aF0
aF0
asa(dp1543
Vmagmom
p1544
F0
sVindex
p1545
I50
sVsymbol
p1546
VCu
p1547
sVcharge
p1548
F0
sVtag
p1549
I0
sVposition
p1550
(lp1551
F7.5172830012502017
aF-2.4484240938602735
aF-12.790044348301041
asVmomentum
p1552
(lp1553
F0
aF0
aF0
asa(dp1554
Vmagmom
p1555
F0
sVindex
p1556
I51
sVsymbol
p1557
VCu
p1558
sVcharge
p1559
F0
sVtag
p1560
I0
sVposition
p1561
(lp1562
F11.69453219980379
aF-5.1827516050678701
aF-20.683040821890508
asVmomentum
p1563
(lp1564
F0
aF0
aF0
asa(dp1565
Vmagmom
p1566
F0
sVindex
p1567
I52
sVsymbol
p1568
VCu
p1569
sVcharge
p1570
F0
sVtag
p1571
I0
sVposition
p1572
(lp1573
F10.88618710987776
aF-6.2919133493680048
aF-13.876535266571985
asVmomentum
p1574
(lp1575
F0
aF0
aF0
asa(dp1576
Vmagmom
p1577
F0
sVindex
p1578
I53
sVsymbol
p1579
VCu
p1580
sVcharge
p1581
F0
sVtag
p1582
I0
sVposition
p1583
(lp1584
F6.7089379113241687
aF-3.5575858381604104
aF-17.034519422369776
asVmomentum
p1585
(lp1586
F0
aF0
aF0
asa(dp1587
Vmagmom
p1588
F0
sVindex
p1589
I54
sVsymbol
p1590
VCu
p1591
sVcharge
p1592
F0
sVtag
p1593
I0
sVposition
p1594
(lp1595
F15.063436308431351
aF-9.0262408605756033
aF-10.718551110774191
asVmomentum
p1596
(lp1597
F0
aF0
aF0
asa(dp1598
Vmagmom
p1599
F0
sVindex
p1600
I55
sVsymbol
p1601
VCu
p1602
sVcharge
p1603
F0
sVtag
p1604
I0
sVposition
p1605
(lp1606
F2.5316887127705763
aF-0.82325832695281309
aF-20.192503578167567
asVmomentum
p1607
(lp1608
F0
aF0
aF0
asa(dp1609
Vmagmom
p1610
F0
sVindex
p1611
I56
sVsymbol
p1612
VCu
p1613
sVcharge
p1614
F0
sVtag
p1615
I0
sVposition
p1616
(lp1617
F5.8228096843366002
aF-7.3879557355828176
aF-12.610672097086288
asVmomentum
p1618
(lp1619
F0
aF0
aF0
asa(dp1620
Vmagmom
p1621
F0
sVindex
p1622
I57
sVsymbol
p1623
VCu
p1624
sVcharge
p1625
F0
sVtag
p1626
I0
sVposition
p1627
(lp1628
F10.00005888289019
aF-4.6536282243752245
aF-15.768656252884082
asVmomentum
p1629
(lp1630
F0
aF0
aF0
asa(dp1631
Vmagmom
p1632
F0
sVindex
p1633
I58
sVsymbol
p1634
VCu
p1635
sVcharge
p1636
F0
sVtag
p1637
I0
sVposition
p1638
(lp1639
F10.000058882890194
aF-10.122283246790417
aF-20.503668570675746
asVmomentum
p1640
(lp1641
F0
aF0
aF0
asa(dp1642
Vmagmom
p1643
F0
sVindex
p1644
I59
sVsymbol
p1645
VCu
p1646
sVcharge
p1647
F0
sVtag
p1648
I0
sVposition
p1649
(lp1650
F5.8228096843365984
aF-1.9193007131676283
aF-18.92664040868187
asVmomentum
p1651
(lp1652
F0
aF0
aF0
asa(dp1653
Vmagmom
p1654
F0
sVindex
p1655
I60
sVsymbol
p1656
VCu
p1657
sVcharge
p1658
F0
sVtag
p1659
I0
sVposition
p1660
(lp1661
F13.368962991517749
aF-8.4971174798829541
aF-16.855147171155021
asVmomentum
p1662
(lp1663
F0
aF0
aF0
asa(dp1664
Vmagmom
p1665
F0
sVindex
p1666
I61
sVsymbol
p1667
VCu
p1668
sVcharge
p1669
F0
sVtag
p1670
I0
sVposition
p1671
(lp1672
F9.1917137929641601
aF-5.7627899686753628
aF-20.013131326952816
asVmomentum
p1673
(lp1674
F0
aF0
aF0
asa(dp1675
Vmagmom
p1676
F0
sVindex
p1677
I62
sVsymbol
p1678
VCu
p1679
sVcharge
p1680
F0
sVtag
p1681
I0
sVposition
p1682
(lp1683
F0.83721539585697879
aF-0.29413494626016601
aF-15.27811900916114
asVmomentum
p1684
(lp1685
F0
aF0
aF0
asa(dp1686
Vmagmom
p1687
F0
sVindex
p1688
I63
sVsymbol
p1689
VCu
p1690
sVcharge
p1691
F0
sVtag
p1692
I0
sVposition
p1693
(lp1694
F5.0144645944105681
aF-3.0284624574677612
aF-12.12013485336335
asVmomentum
p1695
(lp1696
F0
aF0
aF0
asa(dp1697
Vmagmom
p1698
F0
sVindex
p1699
I64
sVsymbol
p1700
VPd
p1701
sVcharge
p1702
F0
sVtag
p1703
I0
sVposition
p1704
(lp1705
F3.3830437629847254
aF-3.8135747281772199
aF-13.967805383472346
asVmomentum
p1706
(lp1707
F0
aF0
aF0
asa(dp1708
Vmagmom
p1709
F0
sVindex
p1710
I65
sVsymbol
p1711
VPd
p1712
sVcharge
p1713
F0
sVtag
p1714
I0
sVposition
p1715
(lp1716
F7.560292961538317
aF-1.0792472169696217
aF-17.125789539270137
asVmomentum
p1717
(lp1718
F0
aF0
aF0
asa(dp1719
Vmagmom
p1720
F0
sVindex
p1721
I66
sVsymbol
p1722
VPd
p1723
sVcharge
p1724
F0
sVtag
p1725
I0
sVposition
p1726
(lp1727
F7.560292961538317
aF-6.5479022393848174
aF-10.809821227674554
asVmomentum
p1728
(lp1729
F0
aF0
aF0
asa(dp1730
Vmagmom
p1731
F0
sVindex
p1732
I67
sVsymbol
p1733
VPd
p1734
sVcharge
p1735
F0
sVtag
p1736
I0
sVposition
p1737
(lp1738
F11.737542160091907
aF-9.2822297505924141
aF-18.702817701264014
asVmomentum
p1739
(lp1740
F0
aF0
aF0
asa(dp1741
Vmagmom
p1742
F0
sVindex
p1743
I68
sVsymbol
p1744
VPd
p1745
sVcharge
p1746
F0
sVtag
p1747
I0
sVposition
p1748
(lp1749
F6.7057256902354636
aF-7.683114632809378
aF-15.024209365615116
asVmomentum
p1750
(lp1751
F0
aF0
aF0
asa(dp1752
Vmagmom
p1753
F0
sVindex
p1754
I69
sVsymbol
p1755
VPd
p1756
sVcharge
p1757
F0
sVtag
p1758
I0
sVposition
p1759
(lp1760
F10.882974888789057
aF-4.9487871216017885
aF-18.182193521412906
asVmomentum
p1761
(lp1762
F0
aF0
aF0
asa(dp1763
Vmagmom
p1764
F0
sVindex
p1765
I70
sVsymbol
p1766
VPd
p1767
sVcharge
p1768
F0
sVtag
p1769
I0
sVposition
p1770
(lp1771
F10.882974888789056
aF-10.417442144016979
aF-11.866225209817328
asVmomentum
p1772
(lp1773
F0
aF0
aF0
asa(dp1774
Vmagmom
p1775
F0
sVindex
p1776
I71
sVsymbol
p1777
VPd
p1778
sVcharge
p1779
F0
sVtag
p1780
I0
sVposition
p1781
(lp1782
F6.7057256902354654
aF-2.2144596103941909
aF-21.340177677210697
asVmomentum
p1783
(lp1784
F0
aF0
aF0
asa(dp1785
Vmagmom
p1786
F0
sVindex
p1787
I72
sVsymbol
p1788
VPd
p1789
sVcharge
p1790
F0
sVtag
p1791
I0
sVposition
p1792
(lp1793
F10.003271103978895
aF-8.7228504344362019
aF-13.823376921698006
asVmomentum
p1794
(lp1795
F0
aF0
aF0
asa(dp1796
Vmagmom
p1797
F0
sVindex
p1798
I73
sVsymbol
p1799
VPd
p1800
sVcharge
p1801
F0
sVtag
p1802
I0
sVposition
p1803
(lp1804
F5.8260219054253035
aF-5.9885229232286052
aF-16.981361077495798
asVmomentum
p1805
(lp1806
F0
aF0
aF0
asa(dp1807
Vmagmom
p1808
F0
sVindex
p1809
I74
sVsymbol
p1810
VPd
p1811
sVcharge
p1812
F0
sVtag
p1813
I0
sVposition
p1814
(lp1815
F5.8260219054253044
aF-0.51986790081341083
aF-12.246348759704127
asVmomentum
p1816
(lp1817
F0
aF0
aF0
asa(dp1818
Vmagmom
p1819
F0
sVindex
p1820
I75
sVsymbol
p1821
VPd
p1822
sVcharge
p1823
F0
sVtag
p1824
I0
sVposition
p1825
(lp1826
F10.003271103978895
aF-3.2541954120210095
aF-20.139345233293589
asVmomentum
p1827
(lp1828
F0
aF0
aF0
asa(dp1829
Vmagmom
p1830
F0
sVindex
p1831
I76
sVsymbol
p1832
VPd
p1833
sVcharge
p1834
F0
sVtag
p1835
I0
sVposition
p1836
(lp1837
F13.325953031229632
aF-7.1237353166531685
aF-10.144768586049111
asVmomentum
p1838
(lp1839
F0
aF0
aF0
asa(dp1840
Vmagmom
p1841
F0
sVindex
p1842
I77
sVsymbol
p1843
VPd
p1844
sVcharge
p1845
F0
sVtag
p1846
I0
sVposition
p1847
(lp1848
F9.1487038326760448
aF-4.3894078054455727
aF-13.302752741846898
asVmomentum
p1849
(lp1850
F0
aF0
aF0
asa(dp1851
Vmagmom
p1852
F0
sVindex
p1853
I78
sVsymbol
p1854
VPd
p1855
sVcharge
p1856
F0
sVtag
p1857
I0
sVposition
p1858
(lp1859
F9.1487038326760448
aF-9.8580628278607687
aF-18.03776505963857
asVmomentum
p1860
(lp1861
F0
aF0
aF0
asa(dp1862
Vmagmom
p1863
F0
sVindex
p1864
I79
sVsymbol
p1865
VPd
p1866
sVcharge
p1867
F0
sVtag
p1868
I0
sVposition
p1869
(lp1870
F4.971454634122451
aF-1.6550802942379772
aF-16.460736897644686
asVmomentum
p1871
(lp1872
F0
aF0
aF0
asasVcell
p1873
(lp1874
(lp1875
F8.3544983971071805
aF-5.4385242937875642e-32
aF-4.4408920985006262e-16
aa(lp1876
F8.3544983971071805
aF-10.937310044830387
aF1.5809559938039111
aa(lp1877
F4.5071176484954476e-17
aF-4.0600644165655504e-15
aF-33.152941888161756
aasVmass
p1878
F5769.6639999999961
sVpbc
p1879
(lp1880
I01
aI01
aI01
asVspacegroup
p1881
VP1 (1)
p1882
sVconstraints
p1883
(lp1884
(dp1885
Vname
p1886
VFixAtoms
p1887
sVkwargs
p1888
(dp1889
Vindices
p1890
(lp1891
I1
aI2
aI3
aI4
aI5
aI7
aI9
aI10
aI11
aI12
aI13
aI15
aI17
aI18
aI19
aI20
aI21
aI22
aI25
aI27
aI29
aI30
aI31
aI32
aI33
aI35
aI36
aI37
aI39
aI40
aI41
aI42
aI45
aI46
aI47
aI48
aI49
aI51
aI52
aI53
aI55
aI57
aI58
aI59
aI60
aI61
aI62
aI64
aI65
aI67
aI68
aI69
aI71
aI72
aI73
aI75
aI78
aI79
assasaa(lp1892
g921
ag2
((ltRp1893
aa(lp1894
g924
ag925
aa(lp1895
g927
aS'9dbf66f635225239a85cb6fbaca016897635fe3b'
p1896
aa(lp1897
g930
ag931
(S'\x07\xe1\x03\x1f\x13-\x05\x01\x98@'
tRp1898
aa(lp1899
g934
ag931
(S'\x07\xe1\x03\x1f\x13-\x05\x01\x98I'
tRp1900
aa(lp1901
g937
a(dp1902
g939
g949
sg950
I00
sg951
g952
sg953
I0
sg954
g968
sg969
g970
sg971
I00
sg972
g973
sg974
I80
saatRp1903
a.