(lp1
ccollections
OrderedDict
p2
((lp3
(lp4
S'atoms'
p5
a(dp6
Vinfo
p7
(dp8
sVvolume
p9
F247.14463948176962
sVnatoms
p10
I4
sVsymbol_counts
p11
(dp12
VPd
p13
I4
ssVchemical_symbols
p14
(lp15
VPd
p16
asVatoms
p17
(lp18
(dp19
Vmagmom
p20
F0
sVindex
p21
I0
sVsymbol
p22
VPd
p23
sVcharge
p24
F0
sVtag
p25
I0
sVposition
p26
(lp27
F2.7954307412020603
aF-4.4408920985006262e-16
aF16.801678284251164
asVmomentum
p28
(lp29
F0
aF0
aF0
asa(dp30
Vmagmom
p31
F0
sVindex
p32
I1
sVsymbol
p33
VPd
p34
sVcharge
p35
F0
sVtag
p36
I0
sVposition
p37
(lp38
F1.3977153706010299
aF1.3977153706010299
aF18.778346317692478
asVmomentum
p39
(lp40
F0
aF0
aF0
asa(dp41
Vmagmom
p42
F0
sVindex
p43
I2
sVsymbol
p44
VPd
p45
sVcharge
p46
F0
sVtag
p47
I0
sVposition
p48
(lp49
F2.7954307412020603
aF-2.2204460492503131e-16
aF12.848342217368538
asVmomentum
p50
(lp51
F0
aF0
aF0
asa(dp52
Vmagmom
p53
F0
sVindex
p54
I3
sVsymbol
p55
VPd
p56
sVcharge
p57
F0
sVtag
p58
I0
sVposition
p59
(lp60
F1.3977153706010297
aF1.3977153706010301
aF14.825010250809852
asVmomentum
p61
(lp62
F0
aF0
aF0
asasVcell
p63
(lp64
(lp65
F2.7954307412020603
aF-2.2204460492503131e-16
aF-2.4651903288156619e-32
aa(lp66
F0
aF2.7954307412020598
aF1.9683645454033524e-16
aa(lp67
F1.9721522630525295e-31
aF-1.9721522630525295e-31
aF31.626688535061017
aasVmass
p68
F425.68000000000001
sVpbc
p69
(lp70
I01
aI01
aI01
asVspacegroup
p71
VP4/nmm (129)
p72
sVconstraints
p73
(lp74
(dp75
Vname
p76
VFixAtoms
p77
sVkwargs
p78
(dp79
Vindices
p80
(lp81
I2
aI3
assasaa(lp82
S'results'
p83
ag2
((ltRp84
aa(lp85
S'user'
p86
aS'ktran'
p87
aa(lp88
S'inserted-hash'
p89
aS'01e33b1a67faba5991cf5fa26bf437d8880dbe5c'
p90
aa(lp91
S'ctime'
p92
acdatetime
datetime
p93
(S'\x07\xe1\x03\x1f\x13/\x1f\x02\xe6\x01'
tRp94
aa(lp95
S'mtime'
p96
ag93
(S'\x07\xe1\x03\x1f\x13/\x1f\x02\xe6-'
tRp97
aa(lp98
S'tags'
p99
a(dp100
S'get_slab_settings'
p101
g2
((lp102
(lp103
S'max_broken_bonds'
p104
aI0
aa(lp105
S'bonds'
p106
aNaa(lp107
S'tol'
p108
aF0.29999999999999999
aa(lp109
S'symmetrize'
p110
aI00
aatRp111
sS'relaxed'
p112
I00
sS'mpid'
p113
Vmp-2
p114
sS'shift'
p115
I0
sS'slab_generate_settings'
p116
g2
((lp117
(lp118
S'primitive'
p119
aI01
aa(lp120
S'min_vacuum_size'
p121
aF20
aa(lp122
S'lll_reduce'
p123
aI00
aa(lp124
S'max_normal_search'
p125
aI1
aa(lp126
S'min_slab_size'
p127
aF7
aa(lp128
S'center_slab'
p129
aI01
aatRp130
sS'miller'
p131
(I1
I0
I0
tp132
sS'top'
p133
I01
sS'type'
p134
S'slab'
p135
sS'num_slab_atoms'
p136
I4
saatRp137
a.