(lp1
ccollections
OrderedDict
p2
((lp3
(lp4
S'atoms'
p5
a(dp6
Vinfo
p7
(dp8
sVvolume
p9
F717.93188015543808
sVnatoms
p10
I28
sVsymbol_counts
p11
(dp12
VCu
p13
I21
sVPd
p14
I7
ssVchemical_symbols
p15
(lp16
VPd
p17
aVCu
p18
asVatoms
p19
(lp20
(dp21
Vmagmom
p22
F0
sVindex
p23
I0
sVsymbol
p24
VCu
p25
sVcharge
p26
F0
sVtag
p27
I0
sVposition
p28
(lp29
F1.8641288150001205
aF0
aF34.12489074286637
asVmomentum
p30
(lp31
F0
aF0
aF0
asa(dp32
Vmagmom
p33
F0
sVindex
p34
I1
sVsymbol
p35
VCu
p36
sVcharge
p37
F0
sVtag
p38
I0
sVposition
p39
(lp40
F0
aF0
aF13.833315405162573
asVmomentum
p41
(lp42
F0
aF0
aF0
asa(dp43
Vmagmom
p44
F0
sVindex
p45
I2
sVsymbol
p46
VCu
p47
sVcharge
p48
F0
sVtag
p49
I0
sVposition
p50
(lp51
F1.8641288150001207
aF1.8641288150001205
aF21.211288372197654
asVmomentum
p52
(lp53
F0
aF0
aF0
asa(dp54
Vmagmom
p55
F0
sVindex
p56
I3
sVsymbol
p57
VCu
p58
sVcharge
p59
F0
sVtag
p60
I0
sVposition
p61
(lp62
F0
aF0
aF17.525040378504851
asVmomentum
p63
(lp64
F0
aF0
aF0
asa(dp65
Vmagmom
p66
F0
sVindex
p67
I4
sVsymbol
p68
VCu
p69
sVcharge
p70
F0
sVtag
p71
I0
sVposition
p72
(lp73
F1.8641288150001205
aF0
aF30.436563314991297
asVmomentum
p74
(lp75
F0
aF0
aF0
asa(dp76
Vmagmom
p77
F0
sVindex
p78
I5
sVsymbol
p79
VCu
p80
sVcharge
p81
F0
sVtag
p82
I0
sVposition
p83
(lp84
F2.997747769316563e-16
aF1.8641288150001205
aF19.368917950729276
asVmomentum
p85
(lp86
F0
aF0
aF0
asa(dp87
Vmagmom
p88
F0
sVindex
p89
I6
sVsymbol
p90
VCu
p91
sVcharge
p92
F0
sVtag
p93
I0
sVposition
p94
(lp95
F1.8641288150001205
aF0
aF15.680590522854201
asVmomentum
p96
(lp97
F0
aF0
aF0
asa(dp98
Vmagmom
p99
F0
sVindex
p100
I7
sVsymbol
p101
VCu
p102
sVcharge
p103
F0
sVtag
p104
I0
sVposition
p105
(lp106
F0
aF0
aF35.972165860557993
asVmomentum
p107
(lp108
F0
aF0
aF0
asa(dp109
Vmagmom
p110
F0
sVindex
p111
I8
sVsymbol
p112
VCu
p113
sVcharge
p114
F0
sVtag
p115
I0
sVposition
p116
(lp117
F1.8641288150001205
aF0
aF23.058252297863749
asVmomentum
p118
(lp119
F0
aF0
aF0
asa(dp120
Vmagmom
p121
F0
sVindex
p122
I9
sVsymbol
p123
VCu
p124
sVcharge
p125
F0
sVtag
p126
I0
sVposition
p127
(lp128
F2.997747769316563e-16
aF1.8641288150001205
aF34.12489074286637
asVmomentum
p129
(lp130
F0
aF0
aF0
asa(dp131
Vmagmom
p132
F0
sVindex
p133
I10
sVsymbol
p134
VCu
p135
sVcharge
p136
F0
sVtag
p137
I0
sVposition
p138
(lp139
F2.997747769316563e-16
aF1.8641288150001205
aF26.747228967856824
asVmomentum
p140
(lp141
F0
aF0
aF0
asa(dp142
Vmagmom
p143
F0
sVindex
p144
I11
sVsymbol
p145
VCu
p146
sVcharge
p147
F0
sVtag
p148
I0
sVposition
p149
(lp150
F1.8641288150001205
aF0
aF19.368917950729276
asVmomentum
p151
(lp152
F0
aF0
aF0
asa(dp153
Vmagmom
p154
F0
sVindex
p155
I12
sVsymbol
p156
VCu
p157
sVcharge
p158
F0
sVtag
p159
I0
sVposition
p160
(lp161
F2.997747769316563e-16
aF1.8641288150001205
aF15.680590522854201
asVmomentum
p162
(lp163
F0
aF0
aF0
asa(dp164
Vmagmom
p165
F0
sVindex
p166
I13
sVsymbol
p167
VCu
p168
sVcharge
p169
F0
sVtag
p170
I0
sVposition
p171
(lp172
F2.997747769316563e-16
aF1.8641288150001205
aF23.058252297863749
asVmomentum
p173
(lp174
F0
aF0
aF0
asa(dp175
Vmagmom
p176
F0
sVindex
p177
I14
sVsymbol
p178
VCu
p179
sVcharge
p180
F0
sVtag
p181
I0
sVposition
p182
(lp183
F1.8641288150001207
aF1.8641288150001205
aF28.594192893522916
asVmomentum
p184
(lp185
F0
aF0
aF0
asa(dp186
Vmagmom
p187
F0
sVindex
p188
I15
sVsymbol
p189
VCu
p190
sVcharge
p191
F0
sVtag
p192
I0
sVposition
p193
(lp194
F1.8641288150001205
aF0
aF26.747228967856824
asVmomentum
p195
(lp196
F0
aF0
aF0
asa(dp197
Vmagmom
p198
F0
sVindex
p199
I16
sVsymbol
p200
VCu
p201
sVcharge
p202
F0
sVtag
p203
I0
sVposition
p204
(lp205
F0
aF0
aF32.280440887215711
asVmomentum
p206
(lp207
F0
aF0
aF0
asa(dp208
Vmagmom
p209
F0
sVindex
p210
I17
sVsymbol
p211
VCu
p212
sVcharge
p213
F0
sVtag
p214
I0
sVposition
p215
(lp216
F2.997747769316563e-16
aF1.8641288150001205
aF30.436563314991297
asVmomentum
p217
(lp218
F0
aF0
aF0
asa(dp219
Vmagmom
p220
F0
sVindex
p221
I18
sVsymbol
p222
VCu
p223
sVcharge
p224
F0
sVtag
p225
I0
sVposition
p226
(lp227
F1.8641288150001207
aF1.8641288150001205
aF24.902740632860283
asVmomentum
p228
(lp229
F0
aF0
aF0
asa(dp230
Vmagmom
p231
F0
sVindex
p232
I19
sVsymbol
p233
VCu
p234
sVcharge
p235
F0
sVtag
p236
I0
sVposition
p237
(lp238
F2.997747769316563e-16
aF1.8641288150001205
aF37.815272812861913
asVmomentum
p239
(lp240
F0
aF0
aF0
asa(dp241
Vmagmom
p242
F0
sVindex
p243
I20
sVsymbol
p244
VCu
p245
sVcharge
p246
F0
sVtag
p247
I0
sVposition
p248
(lp249
F1.8641288150001205
aF0
aF37.815272812861913
asVmomentum
p250
(lp251
F0
aF0
aF0
asa(dp252
Vmagmom
p253
F0
sVindex
p254
I21
sVsymbol
p255
VPd
p256
sVcharge
p257
F0
sVtag
p258
I0
sVposition
p259
(lp260
F0
aF0
aF28.594185662504898
asVmomentum
p261
(lp262
F0
aF0
aF0
asa(dp263
Vmagmom
p264
F0
sVindex
p265
I22
sVsymbol
p266
VPd
p267
sVcharge
p268
F0
sVtag
p269
I0
sVposition
p270
(lp271
F1.8641288150001207
aF1.8641288150001205
aF13.836585891313129
asVmomentum
p272
(lp273
F0
aF0
aF0
asa(dp274
Vmagmom
p275
F0
sVindex
p276
I23
sVsymbol
p277
VPd
p278
sVcharge
p279
F0
sVtag
p280
I0
sVposition
p281
(lp282
F0
aF0
aF21.211295603215671
asVmomentum
p283
(lp284
F0
aF0
aF0
asa(dp285
Vmagmom
p286
F0
sVindex
p287
I24
sVsymbol
p288
VPd
p289
sVcharge
p290
F0
sVtag
p291
I0
sVposition
p292
(lp293
F1.8641288150001207
aF1.8641288150001205
aF17.526748964762913
asVmomentum
p294
(lp295
F0
aF0
aF0
asa(dp296
Vmagmom
p297
F0
sVindex
p298
I25
sVsymbol
p299
VPd
p300
sVcharge
p301
F0
sVtag
p302
I0
sVposition
p303
(lp304
F0
aF0
aF24.902740632860283
asVmomentum
p305
(lp306
F0
aF0
aF0
asa(dp307
Vmagmom
p308
F0
sVindex
p309
I26
sVsymbol
p310
VPd
p311
sVcharge
p312
F0
sVtag
p313
I0
sVposition
p314
(lp315
F1.8641288150001207
aF1.8641288150001205
aF35.968895374407431
asVmomentum
p316
(lp317
F0
aF0
aF0
asa(dp318
Vmagmom
p319
F0
sVindex
p320
I27
sVsymbol
p321
VPd
p322
sVcharge
p323
F0
sVtag
p324
I0
sVposition
p325
(lp326
F1.8641288150001207
aF1.8641288150001205
aF32.278732300957657
asVmomentum
p327
(lp328
F0
aF0
aF0
asasVcell
p329
(lp330
(lp331
F3.7282576300002415
aF0
aF0
aa(lp332
F5.995495538633126e-16
aF3.7282576300002415
aF2.2828993864882461e-16
aa(lp333
F0
aF0
aF51.650128720006514
aasVmass
p334
F2079.4060000000009
sVpbc
p335
(lp336
I01
aI01
aI01
asVspacegroup
p337
VP4mm (99)
p338
sVconstraints
p339
(lp340
(dp341
Vname
p342
VFixAtoms
p343
sVkwargs
p344
(dp345
Vindices
p346
(lp347
I0
aI1
aI2
aI3
aI4
aI5
aI6
aI8
aI9
aI10
aI11
aI12
aI13
aI14
aI15
aI16
aI17
aI18
aI21
aI22
aI23
aI24
aI25
aI27
assasaa(lp348
S'results'
p349
ag2
((ltRp350
aa(lp351
S'user'
p352
aS'ktran'
p353
aa(lp354
S'inserted-hash'
p355
aS'8497221fabd0f7fa8fdb69add24ede47095ff313'
p356
aa(lp357
S'ctime'
p358
acdatetime
datetime
p359
(S'\x07\xe1\x03\x1f\x13++\x07q\xcb'
tRp360
aa(lp361
S'mtime'
p362
ag359
(S'\x07\xe1\x03\x1f\x13++\x07q\xf3'
tRp363
aa(lp364
S'tags'
p365
a(dp366
S'get_slab_settings'
p367
g2
((lp368
(lp369
S'max_broken_bonds'
p370
aI0
aa(lp371
S'bonds'
p372
aNaa(lp373
S'tol'
p374
aF0.29999999999999999
aa(lp375
S'symmetrize'
p376
aI00
aatRp377
sS'relaxed'
p378
I00
sS'mpid'
p379
Vmp-672265
p380
sS'shift'
p381
cnumpy.core.multiarray
scalar
p382
(cnumpy
dtype
p383
(S'f8'
I0
I1
tRp384
(I3
S'<'
NNNI-1
I-1
I0
tbS'R[\x02t\x88M\xa2?'
tRp385
sS'slab_generate_settings'
p386
g2
((lp387
(lp388
S'primitive'
p389
aI01
aa(lp390
S'min_vacuum_size'
p391
aF20
aa(lp392
S'lll_reduce'
p393
aI00
aa(lp394
S'max_normal_search'
p395
aI1
aa(lp396
S'min_slab_size'
p397
aF7
aa(lp398
S'center_slab'
p399
aI01
aatRp400
sS'miller'
p401
(I0
I0
I1
tp402
sS'top'
p403
I01
sS'type'
p404
S'slab'
p405
sS'num_slab_atoms'
p406
I28
saatRp407
ag2
((lp408
(lp409
g5
a(dp410
Vinfo
p411
(dp412
sVvolume
p413
F717.93188015543808
sVnatoms
p414
I28
sVsymbol_counts
p415
(dp416
VCu
p417
I21
sVPd
p418
I7
ssVchemical_symbols
p419
(lp420
VPd
p421
aVCu
p422
asVatoms
p423
(lp424
(dp425
Vmagmom
p426
F0
sVindex
p427
I0
sVsymbol
p428
VCu
p429
sVcharge
p430
F0
sVtag
p431
I0
sVposition
p432
(lp433
F1.8641288150001205
aF-4.1790938219504443e-15
aF-34.12489074286637
asVmomentum
p434
(lp435
F0
aF0
aF0
asa(dp436
Vmagmom
p437
F0
sVindex
p438
I1
sVsymbol
p439
VCu
p440
sVcharge
p441
F0
sVtag
p442
I0
sVposition
p443
(lp444
F0
aF-1.6940925432528116e-15
aF-13.833315405162573
asVmomentum
p445
(lp446
F0
aF0
aF0
asa(dp447
Vmagmom
p448
F0
sVindex
p449
I2
sVsymbol
p450
VCu
p451
sVcharge
p452
F0
sVtag
p453
I0
sVposition
p454
(lp455
F1.8641288150001207
aF-1.8641288150001232
aF-21.211288372197654
asVmomentum
p456
(lp457
F0
aF0
aF0
asa(dp458
Vmagmom
p459
F0
sVindex
p460
I3
sVsymbol
p461
VCu
p462
sVcharge
p463
F0
sVtag
p464
I0
sVposition
p465
(lp466
F0
aF-2.1461984604464084e-15
aF-17.525040378504851
asVmomentum
p467
(lp468
F0
aF0
aF0
asa(dp469
Vmagmom
p470
F0
sVindex
p471
I4
sVsymbol
p472
VCu
p473
sVcharge
p474
F0
sVtag
p475
I0
sVposition
p476
(lp477
F1.8641288150001205
aF-3.7274039840749847e-15
aF-30.436563314991297
asVmomentum
p478
(lp479
F0
aF0
aF0
asa(dp480
Vmagmom
p481
F0
sVindex
p482
I5
sVsymbol
p483
VCu
p484
sVcharge
p485
F0
sVtag
p486
I0
sVposition
p487
(lp488
F2.997747769316563e-16
aF-1.864128815000123
aF-19.368917950729276
asVmomentum
p489
(lp490
F0
aF0
aF0
asa(dp491
Vmagmom
p492
F0
sVindex
p493
I6
sVsymbol
p494
VCu
p495
sVcharge
p496
F0
sVtag
p497
I0
sVposition
p498
(lp499
F1.8641288150001205
aF-1.920318499255372e-15
aF-15.680590522854201
asVmomentum
p500
(lp501
F0
aF0
aF0
asa(dp502
Vmagmom
p503
F0
sVindex
p504
I7
sVsymbol
p505
VCu
p506
sVcharge
p507
F0
sVtag
p508
I0
sVposition
p509
(lp510
F0
aF-4.4053197779530042e-15
aF-35.972165860557993
asVmomentum
p511
(lp512
F0
aF0
aF0
asa(dp513
Vmagmom
p514
F0
sVindex
p515
I8
sVsymbol
p516
VCu
p517
sVcharge
p518
F0
sVtag
p519
I0
sVposition
p520
(lp521
F1.8641288150001205
aF-2.8238214870510943e-15
aF-23.058252297863749
asVmomentum
p522
(lp523
F0
aF0
aF0
asa(dp524
Vmagmom
p525
F0
sVindex
p526
I9
sVsymbol
p527
VCu
p528
sVcharge
p529
F0
sVtag
p530
I0
sVposition
p531
(lp532
F2.997747769316563e-16
aF-1.8641288150001247
aF-34.12489074286637
asVmomentum
p533
(lp534
F0
aF0
aF0
asa(dp535
Vmagmom
p536
F0
sVindex
p537
I10
sVsymbol
p538
VCu
p539
sVcharge
p540
F0
sVtag
p541
I0
sVposition
p542
(lp543
F2.997747769316563e-16
aF-1.8641288150001238
aF-26.747228967856824
asVmomentum
p544
(lp545
F0
aF0
aF0
asa(dp546
Vmagmom
p547
F0
sVindex
p548
I11
sVsymbol
p549
VCu
p550
sVcharge
p551
F0
sVtag
p552
I0
sVposition
p553
(lp554
F1.8641288150001205
aF-2.372008337130832e-15
aF-19.368917950729276
asVmomentum
p555
(lp556
F0
aF0
aF0
asa(dp557
Vmagmom
p558
F0
sVindex
p559
I12
sVsymbol
p560
VCu
p561
sVcharge
p562
F0
sVtag
p563
I0
sVposition
p564
(lp565
F2.997747769316563e-16
aF-1.8641288150001225
aF-15.680590522854201
asVmomentum
p566
(lp567
F0
aF0
aF0
asa(dp568
Vmagmom
p569
F0
sVindex
p570
I13
sVsymbol
p571
VCu
p572
sVcharge
p573
F0
sVtag
p574
I0
sVposition
p575
(lp576
F2.997747769316563e-16
aF-1.8641288150001234
aF-23.058252297863749
asVmomentum
p577
(lp578
F0
aF0
aF0
asa(dp579
Vmagmom
p580
F0
sVindex
p581
I14
sVsymbol
p582
VCu
p583
sVcharge
p584
F0
sVtag
p585
I0
sVposition
p586
(lp587
F1.8641288150001207
aF-1.8641288150001241
aF-28.594192893522916
asVmomentum
p588
(lp589
F0
aF0
aF0
asa(dp590
Vmagmom
p591
F0
sVindex
p592
I15
sVsymbol
p593
VCu
p594
sVcharge
p595
F0
sVtag
p596
I0
sVposition
p597
(lp598
F1.8641288150001205
aF-3.2755908341547224e-15
aF-26.747228967856824
asVmomentum
p599
(lp600
F0
aF0
aF0
asa(dp601
Vmagmom
p602
F0
sVindex
p603
I16
sVsymbol
p604
VCu
p605
sVcharge
p606
F0
sVtag
p607
I0
sVposition
p608
(lp609
F0
aF-3.9532138607594067e-15
aF-32.280440887215711
asVmomentum
p610
(lp611
F0
aF0
aF0
asa(dp612
Vmagmom
p613
F0
sVindex
p614
I17
sVsymbol
p615
VCu
p616
sVcharge
p617
F0
sVtag
p618
I0
sVposition
p619
(lp620
F2.997747769316563e-16
aF-1.8641288150001243
aF-30.436563314991297
asVmomentum
p621
(lp622
F0
aF0
aF0
asa(dp623
Vmagmom
p624
F0
sVindex
p625
I18
sVsymbol
p626
VCu
p627
sVcharge
p628
F0
sVtag
p629
I0
sVposition
p630
(lp631
F1.8641288150001207
aF-1.8641288150001236
aF-24.902740632860283
asVmomentum
p632
(lp633
F0
aF0
aF0
asa(dp634
Vmagmom
p635
F0
sVindex
p636
I19
sVsymbol
p637
VCu
p638
sVcharge
p639
F0
sVtag
p640
I0
sVposition
p641
(lp642
F2.997747769316563e-16
aF-1.8641288150001252
aF-37.815272812861913
asVmomentum
p643
(lp644
F0
aF0
aF0
asa(dp645
Vmagmom
p646
F0
sVindex
p647
I20
sVsymbol
p648
VCu
p649
sVcharge
p650
F0
sVtag
p651
I0
sVposition
p652
(lp653
F1.8641288150001205
aF-4.6310352809155272e-15
aF-37.815272812861913
asVmomentum
p654
(lp655
F0
aF0
aF0
asa(dp656
Vmagmom
p657
F0
sVindex
p658
I21
sVsymbol
p659
VPd
p660
sVcharge
p661
F0
sVtag
p662
I0
sVposition
p663
(lp664
F0
aF-3.5017777945811763e-15
aF-28.594185662504898
asVmomentum
p665
(lp666
F0
aF0
aF0
asa(dp667
Vmagmom
p668
F0
sVindex
p669
I22
sVsymbol
p670
VPd
p671
sVcharge
p672
F0
sVtag
p673
I0
sVposition
p674
(lp675
F1.8641288150001207
aF-1.8641288150001223
aF-13.836585891313129
asVmomentum
p676
(lp677
F0
aF0
aF0
asa(dp678
Vmagmom
p679
F0
sVindex
p680
I23
sVsymbol
p681
VPd
p682
sVcharge
p683
F0
sVtag
p684
I0
sVposition
p685
(lp686
F0
aF-2.5976345266246396e-15
aF-21.211295603215671
asVmomentum
p687
(lp688
F0
aF0
aF0
asa(dp689
Vmagmom
p690
F0
sVindex
p691
I24
sVsymbol
p692
VPd
p693
sVcharge
p694
F0
sVtag
p695
I0
sVposition
p696
(lp697
F1.8641288150001207
aF-1.8641288150001227
aF-17.526748964762913
asVmomentum
p698
(lp699
F0
aF0
aF0
asa(dp700
Vmagmom
p701
F0
sVindex
p702
I25
sVsymbol
p703
VPd
p704
sVcharge
p705
F0
sVtag
p706
I0
sVposition
p707
(lp708
F0
aF-3.0497061606029078e-15
aF-24.902740632860283
asVmomentum
p709
(lp710
F0
aF0
aF0
asa(dp711
Vmagmom
p712
F0
sVindex
p713
I26
sVsymbol
p714
VPd
p715
sVcharge
p716
F0
sVtag
p717
I0
sVposition
p718
(lp719
F1.8641288150001207
aF-1.864128815000125
aF-35.968895374407431
asVmomentum
p720
(lp721
F0
aF0
aF0
asa(dp722
Vmagmom
p723
F0
sVindex
p724
I27
sVsymbol
p725
VPd
p726
sVcharge
p727
F0
sVtag
p728
I0
sVposition
p729
(lp730
F1.8641288150001207
aF-1.8641288150001245
aF-32.278732300957657
asVmomentum
p731
(lp732
F0
aF0
aF0
asasVcell
p733
(lp734
(lp735
F3.7282576300002415
aF0
aF0
aa(lp736
F5.995495538633126e-16
aF-3.7282576300002415
aF2.2828993864882471e-16
aa(lp737
F0
aF-6.3253164812504753e-15
aF-51.650128720006514
aasVmass
p738
F2079.4060000000009
sVpbc
p739
(lp740
I01
aI01
aI01
asVspacegroup
p741
VP4mm (99)
p742
sVconstraints
p743
(lp744
(dp745
Vname
p746
VFixAtoms
p747
sVkwargs
p748
(dp749
Vindices
p750
(lp751
I0
aI2
aI3
aI4
aI5
aI7
aI8
aI9
aI10
aI11
aI13
aI14
aI15
aI16
aI17
aI18
aI19
aI20
aI21
aI23
aI24
aI25
aI26
aI27
assasaa(lp752
g349
ag2
((ltRp753
aa(lp754
g352
ag353
aa(lp755
g355
aS'1025fef1152a9b5ca5a253242681ea831120a9d2'
p756
aa(lp757
g358
ag359
(S'\x07\xe1\x03\x1f\x13++\x07\xb4\xf5'
tRp758
aa(lp759
g362
ag359
(S'\x07\xe1\x03\x1f\x13++\x07\xb4\xfe'
tRp760
aa(lp761
g365
a(dp762
g367
g377
sg378
I00
sg379
g380
sg381
g385
sg386
g400
sg401
g402
sg403
I00
sg404
g405
sg406
I28
saatRp763
ag2
((lp764
(lp765
g5
a(dp766
Vinfo
p767
(dp768
sVvolume
p769
F717.93188015543808
sVnatoms
p770
I28
sVsymbol_counts
p771
(dp772
VCu
p773
I21
sVPd
p774
I7
ssVchemical_symbols
p775
(lp776
VPd
p777
aVCu
p778
asVatoms
p779
(lp780
(dp781
Vmagmom
p782
F0
sVindex
p783
I0
sVsymbol
p784
VCu
p785
sVcharge
p786
F0
sVtag
p787
I0
sVposition
p788
(lp789
F1.8641288150001205
aF0
aF32.280243288580415
asVmomentum
p790
(lp791
F0
aF0
aF0
asa(dp792
Vmagmom
p793
F0
sVindex
p794
I1
sVsymbol
p795
VCu
p796
sVcharge
p797
F0
sVtag
p798
I0
sVposition
p799
(lp800
F0
aF0
aF37.813732310879885
asVmomentum
p801
(lp802
F0
aF0
aF0
asa(dp803
Vmagmom
p804
F0
sVindex
p805
I2
sVsymbol
p806
VCu
p807
sVcharge
p808
F0
sVtag
p809
I0
sVposition
p810
(lp811
F1.8641288150001207
aF1.8641288150001205
aF19.366640917911706
asVmomentum
p812
(lp813
F0
aF0
aF0
asa(dp814
Vmagmom
p815
F0
sVindex
p816
I3
sVsymbol
p817
VCu
p818
sVcharge
p819
F0
sVtag
p820
I0
sVposition
p821
(lp822
F0
aF0
aF15.680392924218904
asVmomentum
p823
(lp824
F0
aF0
aF0
asa(dp825
Vmagmom
p826
F0
sVindex
p827
I4
sVsymbol
p828
VCu
p829
sVcharge
p830
F0
sVtag
p831
I0
sVposition
p832
(lp833
F1.8641288150001205
aF0
aF28.591915860705345
asVmomentum
p834
(lp835
F0
aF0
aF0
asa(dp836
Vmagmom
p837
F0
sVindex
p838
I5
sVsymbol
p839
VCu
p840
sVcharge
p841
F0
sVtag
p842
I0
sVposition
p843
(lp844
F2.997747769316563e-16
aF1.8641288150001205
aF17.524270496443332
asVmomentum
p845
(lp846
F0
aF0
aF0
asa(dp847
Vmagmom
p848
F0
sVindex
p849
I6
sVsymbol
p850
VCu
p851
sVcharge
p852
F0
sVtag
p853
I0
sVposition
p854
(lp855
F1.8641288150001205
aF0
aF13.835943068568255
asVmomentum
p856
(lp857
F0
aF0
aF0
asa(dp858
Vmagmom
p859
F0
sVindex
p860
I7
sVsymbol
p861
VCu
p862
sVcharge
p863
F0
sVtag
p864
I0
sVposition
p865
(lp866
F0
aF0
aF34.127518406272053
asVmomentum
p867
(lp868
F0
aF0
aF0
asa(dp869
Vmagmom
p870
F0
sVindex
p871
I8
sVsymbol
p872
VCu
p873
sVcharge
p874
F0
sVtag
p875
I0
sVposition
p876
(lp877
F1.8641288150001205
aF0
aF21.213604843577802
asVmomentum
p878
(lp879
F0
aF0
aF0
asa(dp880
Vmagmom
p881
F0
sVindex
p882
I9
sVsymbol
p883
VCu
p884
sVcharge
p885
F0
sVtag
p886
I0
sVposition
p887
(lp888
F2.997747769316563e-16
aF1.8641288150001205
aF32.280243288580415
asVmomentum
p889
(lp890
F0
aF0
aF0
asa(dp891
Vmagmom
p892
F0
sVindex
p893
I10
sVsymbol
p894
VCu
p895
sVcharge
p896
F0
sVtag
p897
I0
sVposition
p898
(lp899
F2.997747769316563e-16
aF1.8641288150001205
aF24.902581513570873
asVmomentum
p900
(lp901
F0
aF0
aF0
asa(dp902
Vmagmom
p903
F0
sVindex
p904
I11
sVsymbol
p905
VCu
p906
sVcharge
p907
F0
sVtag
p908
I0
sVposition
p909
(lp910
F1.8641288150001205
aF0
aF17.524270496443332
asVmomentum
p911
(lp912
F0
aF0
aF0
asa(dp913
Vmagmom
p914
F0
sVindex
p915
I12
sVsymbol
p916
VCu
p917
sVcharge
p918
F0
sVtag
p919
I0
sVposition
p920
(lp921
F2.997747769316563e-16
aF1.8641288150001205
aF13.835943068568255
asVmomentum
p922
(lp923
F0
aF0
aF0
asa(dp924
Vmagmom
p925
F0
sVindex
p926
I13
sVsymbol
p927
VCu
p928
sVcharge
p929
F0
sVtag
p930
I0
sVposition
p931
(lp932
F2.997747769316563e-16
aF1.8641288150001205
aF21.213604843577802
asVmomentum
p933
(lp934
F0
aF0
aF0
asa(dp935
Vmagmom
p936
F0
sVindex
p937
I14
sVsymbol
p938
VCu
p939
sVcharge
p940
F0
sVtag
p941
I0
sVposition
p942
(lp943
F1.8641288150001207
aF1.8641288150001205
aF26.749545439236968
asVmomentum
p944
(lp945
F0
aF0
aF0
asa(dp946
Vmagmom
p947
F0
sVindex
p948
I15
sVsymbol
p949
VCu
p950
sVcharge
p951
F0
sVtag
p952
I0
sVposition
p953
(lp954
F1.8641288150001205
aF0
aF24.902581513570873
asVmomentum
p955
(lp956
F0
aF0
aF0
asa(dp957
Vmagmom
p958
F0
sVindex
p959
I16
sVsymbol
p960
VCu
p961
sVcharge
p962
F0
sVtag
p963
I0
sVposition
p964
(lp965
F0
aF0
aF30.435793432929774
asVmomentum
p966
(lp967
F0
aF0
aF0
asa(dp968
Vmagmom
p969
F0
sVindex
p970
I17
sVsymbol
p971
VCu
p972
sVcharge
p973
F0
sVtag
p974
I0
sVposition
p975
(lp976
F2.997747769316563e-16
aF1.8641288150001205
aF28.591915860705345
asVmomentum
p977
(lp978
F0
aF0
aF0
asa(dp979
Vmagmom
p980
F0
sVindex
p981
I18
sVsymbol
p982
VCu
p983
sVcharge
p984
F0
sVtag
p985
I0
sVposition
p986
(lp987
F1.8641288150001207
aF1.8641288150001205
aF23.058093178574339
asVmomentum
p988
(lp989
F0
aF0
aF0
asa(dp990
Vmagmom
p991
F0
sVindex
p992
I19
sVsymbol
p993
VCu
p994
sVcharge
p995
F0
sVtag
p996
I0
sVposition
p997
(lp998
F2.997747769316563e-16
aF1.8641288150001205
aF35.970625358575965
asVmomentum
p999
(lp1000
F0
aF0
aF0
asa(dp1001
Vmagmom
p1002
F0
sVindex
p1003
I20
sVsymbol
p1004
VCu
p1005
sVcharge
p1006
F0
sVtag
p1007
I0
sVposition
p1008
(lp1009
F1.8641288150001205
aF0
aF35.970625358575965
asVmomentum
p1010
(lp1011
F0
aF0
aF0
asa(dp1012
Vmagmom
p1013
F0
sVindex
p1014
I21
sVsymbol
p1015
VPd
p1016
sVcharge
p1017
F0
sVtag
p1018
I0
sVposition
p1019
(lp1020
F0
aF0
aF26.749538208218947
asVmomentum
p1021
(lp1022
F0
aF0
aF0
asa(dp1023
Vmagmom
p1024
F0
sVindex
p1025
I22
sVsymbol
p1026
VPd
p1027
sVcharge
p1028
F0
sVtag
p1029
I0
sVposition
p1030
(lp1031
F1.8641288150001207
aF1.8641288150001205
aF37.81700279703044
asVmomentum
p1032
(lp1033
F0
aF0
aF0
asa(dp1034
Vmagmom
p1035
F0
sVindex
p1036
I23
sVsymbol
p1037
VPd
p1038
sVcharge
p1039
F0
sVtag
p1040
I0
sVposition
p1041
(lp1042
F0
aF0
aF19.366648148929727
asVmomentum
p1043
(lp1044
F0
aF0
aF0
asa(dp1045
Vmagmom
p1046
F0
sVindex
p1047
I24
sVsymbol
p1048
VPd
p1049
sVcharge
p1050
F0
sVtag
p1051
I0
sVposition
p1052
(lp1053
F1.8641288150001207
aF1.8641288150001205
aF15.682101510476967
asVmomentum
p1054
(lp1055
F0
aF0
aF0
asa(dp1056
Vmagmom
p1057
F0
sVindex
p1058
I25
sVsymbol
p1059
VPd
p1060
sVcharge
p1061
F0
sVtag
p1062
I0
sVposition
p1063
(lp1064
F0
aF0
aF23.058093178574339
asVmomentum
p1065
(lp1066
F0
aF0
aF0
asa(dp1067
Vmagmom
p1068
F0
sVindex
p1069
I26
sVsymbol
p1070
VPd
p1071
sVcharge
p1072
F0
sVtag
p1073
I0
sVposition
p1074
(lp1075
F1.8641288150001207
aF1.8641288150001205
aF34.124247920121491
asVmomentum
p1076
(lp1077
F0
aF0
aF0
asa(dp1078
Vmagmom
p1079
F0
sVindex
p1080
I27
sVsymbol
p1081
VPd
p1082
sVcharge
p1083
F0
sVtag
p1084
I0
sVposition
p1085
(lp1086
F1.8641288150001207
aF1.8641288150001205
aF30.434084846671709
asVmomentum
p1087
(lp1088
F0
aF0
aF0
asasVcell
p1089
(lp1090
(lp1091
F3.7282576300002415
aF0
aF0
aa(lp1092
F5.995495538633126e-16
aF3.7282576300002415
aF2.2828993864882461e-16
aa(lp1093
F0
aF0
aF51.650128720006514
aasVmass
p1094
F2079.4060000000009
sVpbc
p1095
(lp1096
I01
aI01
aI01
asVspacegroup
p1097
VP4mm (99)
p1098
sVconstraints
p1099
(lp1100
(dp1101
Vname
p1102
VFixAtoms
p1103
sVkwargs
p1104
(dp1105
Vindices
p1106
(lp1107
I0
aI2
aI3
aI4
aI5
aI6
aI7
aI8
aI9
aI10
aI11
aI12
aI13
aI14
aI15
aI16
aI17
aI18
aI21
aI23
aI24
aI25
aI26
aI27
assasaa(lp1108
g349
ag2
((ltRp1109
aa(lp1110
g352
ag353
aa(lp1111
g355
aS'45d2ad72f6f32af3379db8aa26aba89b4c99423b'
p1112
aa(lp1113
g358
ag359
(S'\x07\xe1\x03\x1f\x13++\x07\xd8C'
tRp1114
aa(lp1115
g362
ag359
(S'\x07\xe1\x03\x1f\x13++\x07\xd8K'
tRp1116
aa(lp1117
g365
a(dp1118
g367
g377
sg378
I00
sg379
g380
sg381
g382
(g384
S'\xd9Z7\xefIq\xbb?'
tRp1119
sg386
g400
sg401
g402
sg403
I01
sg404
g405
sg406
I28
saatRp1120
ag2
((lp1121
(lp1122
g5
a(dp1123
Vinfo
p1124
(dp1125
sVvolume
p1126
F717.93188015543808
sVnatoms
p1127
I28
sVsymbol_counts
p1128
(dp1129
VCu
p1130
I21
sVPd
p1131
I7
ssVchemical_symbols
p1132
(lp1133
VPd
p1134
aVCu
p1135
asVatoms
p1136
(lp1137
(dp1138
Vmagmom
p1139
F0
sVindex
p1140
I0
sVsymbol
p1141
VCu
p1142
sVcharge
p1143
F0
sVtag
p1144
I0
sVposition
p1145
(lp1146
F1.8641288150001205
aF-3.9531896619057837e-15
aF-32.280243288580415
asVmomentum
p1147
(lp1148
F0
aF0
aF0
asa(dp1149
Vmagmom
p1150
F0
sVindex
p1151
I1
sVsymbol
p1152
VCu
p1153
sVcharge
p1154
F0
sVtag
p1155
I0
sVposition
p1156
(lp1157
F0
aF-4.6308466238333896e-15
aF-37.813732310879885
asVmomentum
p1158
(lp1159
F0
aF0
aF0
asa(dp1160
Vmagmom
p1161
F0
sVindex
p1162
I2
sVsymbol
p1163
VCu
p1164
sVcharge
p1165
F0
sVtag
p1166
I0
sVposition
p1167
(lp1168
F1.8641288150001207
aF-1.864128815000123
aF-19.366640917911706
asVmomentum
p1169
(lp1170
F0
aF0
aF0
asa(dp1171
Vmagmom
p1172
F0
sVindex
p1173
I3
sVsymbol
p1174
VCu
p1175
sVcharge
p1176
F0
sVtag
p1177
I0
sVposition
p1178
(lp1179
F0
aF-1.9202943004017486e-15
aF-15.680392924218904
asVmomentum
p1180
(lp1181
F0
aF0
aF0
asa(dp1182
Vmagmom
p1183
F0
sVindex
p1184
I4
sVsymbol
p1185
VCu
p1186
sVcharge
p1187
F0
sVtag
p1188
I0
sVposition
p1189
(lp1190
F1.8641288150001205
aF-3.5014998240303241e-15
aF-28.591915860705345
asVmomentum
p1191
(lp1192
F0
aF0
aF0
asa(dp1193
Vmagmom
p1194
F0
sVindex
p1195
I5
sVsymbol
p1196
VCu
p1197
sVcharge
p1198
F0
sVtag
p1199
I0
sVposition
p1200
(lp1201
F2.997747769316563e-16
aF-1.8641288150001227
aF-17.524270496443332
asVmomentum
p1202
(lp1203
F0
aF0
aF0
asa(dp1204
Vmagmom
p1205
F0
sVindex
p1206
I6
sVsymbol
p1207
VCu
p1208
sVcharge
p1209
F0
sVtag
p1210
I0
sVposition
p1211
(lp1212
F1.8641288150001205
aF-1.6944143392107122e-15
aF-13.835943068568255
asVmomentum
p1213
(lp1214
F0
aF0
aF0
asa(dp1215
Vmagmom
p1216
F0
sVindex
p1217
I7
sVsymbol
p1218
VCu
p1219
sVcharge
p1220
F0
sVtag
p1221
I0
sVposition
p1222
(lp1223
F0
aF-4.1794156179083452e-15
aF-34.127518406272053
asVmomentum
p1224
(lp1225
F0
aF0
aF0
asa(dp1226
Vmagmom
p1227
F0
sVindex
p1228
I8
sVsymbol
p1229
VCu
p1230
sVcharge
p1231
F0
sVtag
p1232
I0
sVposition
p1233
(lp1234
F1.8641288150001205
aF-2.5979173270064345e-15
aF-21.213604843577802
asVmomentum
p1235
(lp1236
F0
aF0
aF0
asa(dp1237
Vmagmom
p1238
F0
sVindex
p1239
I9
sVsymbol
p1240
VCu
p1241
sVcharge
p1242
F0
sVtag
p1243
I0
sVposition
p1244
(lp1245
F2.997747769316563e-16
aF-1.8641288150001245
aF-32.280243288580415
asVmomentum
p1246
(lp1247
F0
aF0
aF0
asa(dp1248
Vmagmom
p1249
F0
sVindex
p1250
I10
sVsymbol
p1251
VCu
p1252
sVcharge
p1253
F0
sVtag
p1254
I0
sVposition
p1255
(lp1256
F2.997747769316563e-16
aF-1.8641288150001236
aF-24.902581513570873
asVmomentum
p1257
(lp1258
F0
aF0
aF0
asa(dp1259
Vmagmom
p1260
F0
sVindex
p1261
I11
sVsymbol
p1262
VCu
p1263
sVcharge
p1264
F0
sVtag
p1265
I0
sVposition
p1266
(lp1267
F1.8641288150001205
aF-2.1461041770861726e-15
aF-17.524270496443332
asVmomentum
p1268
(lp1269
F0
aF0
aF0
asa(dp1270
Vmagmom
p1271
F0
sVindex
p1272
I12
sVsymbol
p1273
VCu
p1274
sVcharge
p1275
F0
sVtag
p1276
I0
sVposition
p1277
(lp1278
F2.997747769316563e-16
aF-1.8641288150001223
aF-13.835943068568255
asVmomentum
p1279
(lp1280
F0
aF0
aF0
asa(dp1281
Vmagmom
p1282
F0
sVindex
p1283
I13
sVsymbol
p1284
VCu
p1285
sVcharge
p1286
F0
sVtag
p1287
I0
sVposition
p1288
(lp1289
F2.997747769316563e-16
aF-1.8641288150001232
aF-21.213604843577802
asVmomentum
p1290
(lp1291
F0
aF0
aF0
asa(dp1292
Vmagmom
p1293
F0
sVindex
p1294
I14
sVsymbol
p1295
VCu
p1296
sVcharge
p1297
F0
sVtag
p1298
I0
sVposition
p1299
(lp1300
F1.8641288150001207
aF-1.8641288150001238
aF-26.749545439236968
asVmomentum
p1301
(lp1302
F0
aF0
aF0
asa(dp1303
Vmagmom
p1304
F0
sVindex
p1305
I15
sVsymbol
p1306
VCu
p1307
sVcharge
p1308
F0
sVtag
p1309
I0
sVposition
p1310
(lp1311
F1.8641288150001205
aF-3.0496866741100618e-15
aF-24.902581513570873
asVmomentum
p1312
(lp1313
F0
aF0
aF0
asa(dp1314
Vmagmom
p1315
F0
sVindex
p1316
I16
sVsymbol
p1317
VCu
p1318
sVcharge
p1319
F0
sVtag
p1320
I0
sVposition
p1321
(lp1322
F0
aF-3.7273097007147485e-15
aF-30.435793432929774
asVmomentum
p1323
(lp1324
F0
aF0
aF0
asa(dp1325
Vmagmom
p1326
F0
sVindex
p1327
I17
sVsymbol
p1328
VCu
p1329
sVcharge
p1330
F0
sVtag
p1331
I0
sVposition
p1332
(lp1333
F2.997747769316563e-16
aF-1.8641288150001241
aF-28.591915860705345
asVmomentum
p1334
(lp1335
F0
aF0
aF0
asa(dp1336
Vmagmom
p1337
F0
sVindex
p1338
I18
sVsymbol
p1339
VCu
p1340
sVcharge
p1341
F0
sVtag
p1342
I0
sVposition
p1343
(lp1344
F1.8641288150001207
aF-1.8641288150001234
aF-23.058093178574339
asVmomentum
p1345
(lp1346
F0
aF0
aF0
asa(dp1347
Vmagmom
p1348
F0
sVindex
p1349
I19
sVsymbol
p1350
VCu
p1351
sVcharge
p1352
F0
sVtag
p1353
I0
sVposition
p1354
(lp1355
F2.997747769316563e-16
aF-1.864128815000125
aF-35.970625358575965
asVmomentum
p1356
(lp1357
F0
aF0
aF0
asa(dp1358
Vmagmom
p1359
F0
sVindex
p1360
I20
sVsymbol
p1361
VCu
p1362
sVcharge
p1363
F0
sVtag
p1364
I0
sVposition
p1365
(lp1366
F1.8641288150001205
aF-4.4051311208708674e-15
aF-35.970625358575965
asVmomentum
p1367
(lp1368
F0
aF0
aF0
asa(dp1369
Vmagmom
p1370
F0
sVindex
p1371
I21
sVsymbol
p1372
VPd
p1373
sVcharge
p1374
F0
sVtag
p1375
I0
sVposition
p1376
(lp1377
F0
aF-3.2758736345365161e-15
aF-26.749538208218947
asVmomentum
p1378
(lp1379
F0
aF0
aF0
asa(dp1380
Vmagmom
p1381
F0
sVindex
p1382
I22
sVsymbol
p1383
VPd
p1384
sVcharge
p1385
F0
sVtag
p1386
I0
sVposition
p1387
(lp1388
F1.8641288150001207
aF-1.8641288150001252
aF-37.81700279703044
asVmomentum
p1389
(lp1390
F0
aF0
aF0
asa(dp1391
Vmagmom
p1392
F0
sVindex
p1393
I23
sVsymbol
p1394
VPd
p1395
sVcharge
p1396
F0
sVtag
p1397
I0
sVposition
p1398
(lp1399
F0
aF-2.3717303665799802e-15
aF-19.366648148929727
asVmomentum
p1400
(lp1401
F0
aF0
aF0
asa(dp1402
Vmagmom
p1403
F0
sVindex
p1404
I24
sVsymbol
p1405
VPd
p1406
sVcharge
p1407
F0
sVtag
p1408
I0
sVposition
p1409
(lp1410
F1.8641288150001207
aF-1.8641288150001225
aF-15.682101510476967
asVmomentum
p1411
(lp1412
F0
aF0
aF0
asa(dp1413
Vmagmom
p1414
F0
sVindex
p1415
I25
sVsymbol
p1416
VPd
p1417
sVcharge
p1418
F0
sVtag
p1419
I0
sVposition
p1420
(lp1421
F0
aF-2.8238020005582484e-15
aF-23.058093178574339
asVmomentum
p1422
(lp1423
F0
aF0
aF0
asa(dp1424
Vmagmom
p1425
F0
sVindex
p1426
I26
sVsymbol
p1427
VPd
p1428
sVcharge
p1429
F0
sVtag
p1430
I0
sVposition
p1431
(lp1432
F1.8641288150001207
aF-1.8641288150001247
aF-34.124247920121491
asVmomentum
p1433
(lp1434
F0
aF0
aF0
asa(dp1435
Vmagmom
p1436
F0
sVindex
p1437
I27
sVsymbol
p1438
VPd
p1439
sVcharge
p1440
F0
sVtag
p1441
I0
sVposition
p1442
(lp1443
F1.8641288150001207
aF-1.8641288150001243
aF-30.434084846671709
asVmomentum
p1444
(lp1445
F0
aF0
aF0
asasVcell
p1446
(lp1447
(lp1448
F3.7282576300002415
aF0
aF0
aa(lp1449
F5.995495538633126e-16
aF-3.7282576300002415
aF2.2828993864882471e-16
aa(lp1450
F0
aF-6.3253164812504753e-15
aF-51.650128720006514
aasVmass
p1451
F2079.4060000000009
sVpbc
p1452
(lp1453
I01
aI01
aI01
asVspacegroup
p1454
VP4mm (99)
p1455
sVconstraints
p1456
(lp1457
(dp1458
Vname
p1459
VFixAtoms
p1460
sVkwargs
p1461
(dp1462
Vindices
p1463
(lp1464
I0
aI1
aI2
aI4
aI5
aI7
aI8
aI9
aI10
aI11
aI13
aI14
aI15
aI16
aI17
aI18
aI19
aI20
aI21
aI22
aI23
aI25
aI26
aI27
assasaa(lp1465
g349
ag2
((ltRp1466
aa(lp1467
g352
ag353
aa(lp1468
g355
aS'7bff369e4deb5aeb9194dd68710c118cfb3da3ef'
p1469
aa(lp1470
g358
ag359
(S'\x07\xe1\x03\x1f\x13++\x08\x19f'
tRp1471
aa(lp1472
g362
ag359
(S'\x07\xe1\x03\x1f\x13++\x08\x19n'
tRp1473
aa(lp1474
g365
a(dp1475
g367
g377
sg378
I00
sg379
g380
sg381
g1119
sg386
g400
sg401
g402
sg403
I00
sg404
g405
sg406
I28
saatRp1476
ag2
((lp1477
(lp1478
g5
a(dp1479
Vinfo
p1480
(dp1481
sVvolume
p1482
F717.93188015543808
sVnatoms
p1483
I28
sVsymbol_counts
p1484
(dp1485
VCu
p1486
I21
sVPd
p1487
I7
ssVchemical_symbols
p1488
(lp1489
VPd
p1490
aVCu
p1491
asVatoms
p1492
(lp1493
(dp1494
Vmagmom
p1495
F0
sVindex
p1496
I0
sVsymbol
p1497
VCu
p1498
sVcharge
p1499
F0
sVtag
p1500
I0
sVposition
p1501
(lp1502
F1.8641288150001205
aF0
aF30.435595834294471
asVmomentum
p1503
(lp1504
F0
aF0
aF0
asa(dp1505
Vmagmom
p1506
F0
sVindex
p1507
I1
sVsymbol
p1508
VCu
p1509
sVcharge
p1510
F0
sVtag
p1511
I0
sVposition
p1512
(lp1513
F0
aF0
aF35.969084856593931
asVmomentum
p1514
(lp1515
F0
aF0
aF0
asa(dp1516
Vmagmom
p1517
F0
sVindex
p1518
I2
sVsymbol
p1519
VCu
p1520
sVcharge
p1521
F0
sVtag
p1522
I0
sVposition
p1523
(lp1524
F1.8641288150001207
aF1.8641288150001205
aF17.521993463625755
asVmomentum
p1525
(lp1526
F0
aF0
aF0
asa(dp1527
Vmagmom
p1528
F0
sVindex
p1529
I3
sVsymbol
p1530
VCu
p1531
sVcharge
p1532
F0
sVtag
p1533
I0
sVposition
p1534
(lp1535
F0
aF0
aF13.835745469932956
asVmomentum
p1536
(lp1537
F0
aF0
aF0
asa(dp1538
Vmagmom
p1539
F0
sVindex
p1540
I4
sVsymbol
p1541
VCu
p1542
sVcharge
p1543
F0
sVtag
p1544
I0
sVposition
p1545
(lp1546
F1.8641288150001205
aF0
aF26.747268406419398
asVmomentum
p1547
(lp1548
F0
aF0
aF0
asa(dp1549
Vmagmom
p1550
F0
sVindex
p1551
I5
sVsymbol
p1552
VCu
p1553
sVcharge
p1554
F0
sVtag
p1555
I0
sVposition
p1556
(lp1557
F2.997747769316563e-16
aF1.8641288150001205
aF15.679623042157379
asVmomentum
p1558
(lp1559
F0
aF0
aF0
asa(dp1560
Vmagmom
p1561
F0
sVindex
p1562
I6
sVsymbol
p1563
VCu
p1564
sVcharge
p1565
F0
sVtag
p1566
I0
sVposition
p1567
(lp1568
F1.8641288150001205
aF0
aF37.816359974285561
asVmomentum
p1569
(lp1570
F0
aF0
aF0
asa(dp1571
Vmagmom
p1572
F0
sVindex
p1573
I7
sVsymbol
p1574
VCu
p1575
sVcharge
p1576
F0
sVtag
p1577
I0
sVposition
p1578
(lp1579
F0
aF0
aF32.282870951986098
asVmomentum
p1580
(lp1581
F0
aF0
aF0
asa(dp1582
Vmagmom
p1583
F0
sVindex
p1584
I8
sVsymbol
p1585
VCu
p1586
sVcharge
p1587
F0
sVtag
p1588
I0
sVposition
p1589
(lp1590
F1.8641288150001205
aF0
aF19.368957389291854
asVmomentum
p1591
(lp1592
F0
aF0
aF0
asa(dp1593
Vmagmom
p1594
F0
sVindex
p1595
I9
sVsymbol
p1596
VCu
p1597
sVcharge
p1598
F0
sVtag
p1599
I0
sVposition
p1600
(lp1601
F2.997747769316563e-16
aF1.8641288150001205
aF30.435595834294471
asVmomentum
p1602
(lp1603
F0
aF0
aF0
asa(dp1604
Vmagmom
p1605
F0
sVindex
p1606
I10
sVsymbol
p1607
VCu
p1608
sVcharge
p1609
F0
sVtag
p1610
I0
sVposition
p1611
(lp1612
F2.997747769316563e-16
aF1.8641288150001205
aF23.057934059284925
asVmomentum
p1613
(lp1614
F0
aF0
aF0
asa(dp1615
Vmagmom
p1616
F0
sVindex
p1617
I11
sVsymbol
p1618
VCu
p1619
sVcharge
p1620
F0
sVtag
p1621
I0
sVposition
p1622
(lp1623
F1.8641288150001205
aF0
aF15.679623042157379
asVmomentum
p1624
(lp1625
F0
aF0
aF0
asa(dp1626
Vmagmom
p1627
F0
sVindex
p1628
I12
sVsymbol
p1629
VCu
p1630
sVcharge
p1631
F0
sVtag
p1632
I0
sVposition
p1633
(lp1634
F2.997747769316563e-16
aF1.8641288150001205
aF37.816359974285561
asVmomentum
p1635
(lp1636
F0
aF0
aF0
asa(dp1637
Vmagmom
p1638
F0
sVindex
p1639
I13
sVsymbol
p1640
VCu
p1641
sVcharge
p1642
F0
sVtag
p1643
I0
sVposition
p1644
(lp1645
F2.997747769316563e-16
aF1.8641288150001205
aF19.368957389291854
asVmomentum
p1646
(lp1647
F0
aF0
aF0
asa(dp1648
Vmagmom
p1649
F0
sVindex
p1650
I14
sVsymbol
p1651
VCu
p1652
sVcharge
p1653
F0
sVtag
p1654
I0
sVposition
p1655
(lp1656
F1.8641288150001207
aF1.8641288150001205
aF24.904897984951017
asVmomentum
p1657
(lp1658
F0
aF0
aF0
asa(dp1659
Vmagmom
p1660
F0
sVindex
p1661
I15
sVsymbol
p1662
VCu
p1663
sVcharge
p1664
F0
sVtag
p1665
I0
sVposition
p1666
(lp1667
F1.8641288150001205
aF0
aF23.057934059284925
asVmomentum
p1668
(lp1669
F0
aF0
aF0
asa(dp1670
Vmagmom
p1671
F0
sVindex
p1672
I16
sVsymbol
p1673
VCu
p1674
sVcharge
p1675
F0
sVtag
p1676
I0
sVposition
p1677
(lp1678
F0
aF0
aF28.591145978643823
asVmomentum
p1679
(lp1680
F0
aF0
aF0
asa(dp1681
Vmagmom
p1682
F0
sVindex
p1683
I17
sVsymbol
p1684
VCu
p1685
sVcharge
p1686
F0
sVtag
p1687
I0
sVposition
p1688
(lp1689
F2.997747769316563e-16
aF1.8641288150001205
aF26.747268406419398
asVmomentum
p1690
(lp1691
F0
aF0
aF0
asa(dp1692
Vmagmom
p1693
F0
sVindex
p1694
I18
sVsymbol
p1695
VCu
p1696
sVcharge
p1697
F0
sVtag
p1698
I0
sVposition
p1699
(lp1700
F1.8641288150001207
aF1.8641288150001205
aF21.213445724288388
asVmomentum
p1701
(lp1702
F0
aF0
aF0
asa(dp1703
Vmagmom
p1704
F0
sVindex
p1705
I19
sVsymbol
p1706
VCu
p1707
sVcharge
p1708
F0
sVtag
p1709
I0
sVposition
p1710
(lp1711
F2.997747769316563e-16
aF1.8641288150001205
aF34.125977904290018
asVmomentum
p1712
(lp1713
F0
aF0
aF0
asa(dp1714
Vmagmom
p1715
F0
sVindex
p1716
I20
sVsymbol
p1717
VCu
p1718
sVcharge
p1719
F0
sVtag
p1720
I0
sVposition
p1721
(lp1722
F1.8641288150001205
aF0
aF34.125977904290018
asVmomentum
p1723
(lp1724
F0
aF0
aF0
asa(dp1725
Vmagmom
p1726
F0
sVindex
p1727
I21
sVsymbol
p1728
VPd
p1729
sVcharge
p1730
F0
sVtag
p1731
I0
sVposition
p1732
(lp1733
F0
aF0
aF24.904890753933
asVmomentum
p1734
(lp1735
F0
aF0
aF0
asa(dp1736
Vmagmom
p1737
F0
sVindex
p1738
I22
sVsymbol
p1739
VPd
p1740
sVcharge
p1741
F0
sVtag
p1742
I0
sVposition
p1743
(lp1744
F1.8641288150001207
aF1.8641288150001205
aF35.972355342744493
asVmomentum
p1745
(lp1746
F0
aF0
aF0
asa(dp1747
Vmagmom
p1748
F0
sVindex
p1749
I23
sVsymbol
p1750
VPd
p1751
sVcharge
p1752
F0
sVtag
p1753
I0
sVposition
p1754
(lp1755
F0
aF0
aF17.522000694643776
asVmomentum
p1756
(lp1757
F0
aF0
aF0
asa(dp1758
Vmagmom
p1759
F0
sVindex
p1760
I24
sVsymbol
p1761
VPd
p1762
sVcharge
p1763
F0
sVtag
p1764
I0
sVposition
p1765
(lp1766
F1.8641288150001207
aF1.8641288150001205
aF13.837454056191014
asVmomentum
p1767
(lp1768
F0
aF0
aF0
asa(dp1769
Vmagmom
p1770
F0
sVindex
p1771
I25
sVsymbol
p1772
VPd
p1773
sVcharge
p1774
F0
sVtag
p1775
I0
sVposition
p1776
(lp1777
F0
aF0
aF21.213445724288388
asVmomentum
p1778
(lp1779
F0
aF0
aF0
asa(dp1780
Vmagmom
p1781
F0
sVindex
p1782
I26
sVsymbol
p1783
VPd
p1784
sVcharge
p1785
F0
sVtag
p1786
I0
sVposition
p1787
(lp1788
F1.8641288150001207
aF1.8641288150001205
aF32.279600465835543
asVmomentum
p1789
(lp1790
F0
aF0
aF0
asa(dp1791
Vmagmom
p1792
F0
sVindex
p1793
I27
sVsymbol
p1794
VPd
p1795
sVcharge
p1796
F0
sVtag
p1797
I0
sVposition
p1798
(lp1799
F1.8641288150001207
aF1.8641288150001205
aF28.589437392385758
asVmomentum
p1800
(lp1801
F0
aF0
aF0
asasVcell
p1802
(lp1803
(lp1804
F3.7282576300002415
aF0
aF0
aa(lp1805
F5.995495538633126e-16
aF3.7282576300002415
aF2.2828993864882461e-16
aa(lp1806
F0
aF0
aF51.650128720006514
aasVmass
p1807
F2079.4060000000009
sVpbc
p1808
(lp1809
I01
aI01
aI01
asVspacegroup
p1810
VP4mm (99)
p1811
sVconstraints
p1812
(lp1813
(dp1814
Vname
p1815
VFixAtoms
p1816
sVkwargs
p1817
(dp1818
Vindices
p1819
(lp1820
I0
aI2
aI3
aI4
aI5
aI7
aI8
aI9
aI10
aI11
aI13
aI14
aI15
aI16
aI17
aI18
aI19
aI20
aI21
aI23
aI24
aI25
aI26
aI27
assasaa(lp1821
g349
ag2
((ltRp1822
aa(lp1823
g352
ag353
aa(lp1824
g355
aS'003f8b3ca7298a50bbd60eefcb660078687155df'
p1825
aa(lp1826
g358
ag359
(S'\x07\xe1\x03\x1f\x13++\x08:\xaa'
tRp1827
aa(lp1828
g362
ag359
(S'\x07\xe1\x03\x1f\x13++\x08:\xb3'
tRp1829
aa(lp1830
g365
a(dp1831
g367
g377
sg378
I00
sg379
g380
sg381
g382
(g384
S'j\x1d\xe2@\xc4\xdd\xc6?'
tRp1832
sg386
g400
sg401
g402
sg403
I01
sg404
g405
sg406
I28
saatRp1833
ag2
((lp1834
(lp1835
g5
a(dp1836
Vinfo
p1837
(dp1838
sVvolume
p1839
F717.93188015543808
sVnatoms
p1840
I28
sVsymbol_counts
p1841
(dp1842
VCu
p1843
I21
sVPd
p1844
I7
ssVchemical_symbols
p1845
(lp1846
VPd
p1847
aVCu
p1848
asVatoms
p1849
(lp1850
(dp1851
Vmagmom
p1852
F0
sVindex
p1853
I0
sVsymbol
p1854
VCu
p1855
sVcharge
p1856
F0
sVtag
p1857
I0
sVposition
p1858
(lp1859
F1.8641288150001205
aF-3.7272855018611239e-15
aF-30.435595834294471
asVmomentum
p1860
(lp1861
F0
aF0
aF0
asa(dp1862
Vmagmom
p1863
F0
sVindex
p1864
I1
sVsymbol
p1865
VCu
p1866
sVcharge
p1867
F0
sVtag
p1868
I0
sVposition
p1869
(lp1870
F0
aF-4.404942463788729e-15
aF-35.969084856593931
asVmomentum
p1871
(lp1872
F0
aF0
aF0
asa(dp1873
Vmagmom
p1874
F0
sVindex
p1875
I2
sVsymbol
p1876
VCu
p1877
sVcharge
p1878
F0
sVtag
p1879
I0
sVposition
p1880
(lp1881
F1.8641288150001207
aF-1.8641288150001227
aF-17.521993463625755
asVmomentum
p1882
(lp1883
F0
aF0
aF0
asa(dp1884
Vmagmom
p1885
F0
sVindex
p1886
I3
sVsymbol
p1887
VCu
p1888
sVcharge
p1889
F0
sVtag
p1890
I0
sVposition
p1891
(lp1892
F0
aF-1.6943901403570886e-15
aF-13.835745469932956
asVmomentum
p1893
(lp1894
F0
aF0
aF0
asa(dp1895
Vmagmom
p1896
F0
sVindex
p1897
I4
sVsymbol
p1898
VCu
p1899
sVcharge
p1900
F0
sVtag
p1901
I0
sVposition
p1902
(lp1903
F1.8641288150001205
aF-3.2755956639856643e-15
aF-26.747268406419398
asVmomentum
p1904
(lp1905
F0
aF0
aF0
asa(dp1906
Vmagmom
p1907
F0
sVindex
p1908
I5
sVsymbol
p1909
VCu
p1910
sVcharge
p1911
F0
sVtag
p1912
I0
sVposition
p1913
(lp1914
F2.997747769316563e-16
aF-1.8641288150001225
aF-15.679623042157379
asVmomentum
p1915
(lp1916
F0
aF0
aF0
asa(dp1917
Vmagmom
p1918
F0
sVindex
p1919
I6
sVsymbol
p1920
VCu
p1921
sVcharge
p1922
F0
sVtag
p1923
I0
sVposition
p1924
(lp1925
F1.8641288150001205
aF-4.6311684197912897e-15
aF-37.816359974285561
asVmomentum
p1926
(lp1927
F0
aF0
aF0
asa(dp1928
Vmagmom
p1929
F0
sVindex
p1930
I7
sVsymbol
p1931
VCu
p1932
sVcharge
p1933
F0
sVtag
p1934
I0
sVposition
p1935
(lp1936
F0
aF-3.9535114578636846e-15
aF-32.282870951986098
asVmomentum
p1937
(lp1938
F0
aF0
aF0
asa(dp1939
Vmagmom
p1940
F0
sVindex
p1941
I8
sVsymbol
p1942
VCu
p1943
sVcharge
p1944
F0
sVtag
p1945
I0
sVposition
p1946
(lp1947
F1.8641288150001205
aF-2.3720131669617743e-15
aF-19.368957389291854
asVmomentum
p1948
(lp1949
F0
aF0
aF0
asa(dp1950
Vmagmom
p1951
F0
sVindex
p1952
I9
sVsymbol
p1953
VCu
p1954
sVcharge
p1955
F0
sVtag
p1956
I0
sVposition
p1957
(lp1958
F2.997747769316563e-16
aF-1.8641288150001243
aF-30.435595834294471
asVmomentum
p1959
(lp1960
F0
aF0
aF0
asa(dp1961
Vmagmom
p1962
F0
sVindex
p1963
I10
sVsymbol
p1964
VCu
p1965
sVcharge
p1966
F0
sVtag
p1967
I0
sVposition
p1968
(lp1969
F2.997747769316563e-16
aF-1.8641288150001234
aF-23.057934059284925
asVmomentum
p1970
(lp1971
F0
aF0
aF0
asa(dp1972
Vmagmom
p1973
F0
sVindex
p1974
I11
sVsymbol
p1975
VCu
p1976
sVcharge
p1977
F0
sVtag
p1978
I0
sVposition
p1979
(lp1980
F1.8641288150001205
aF-1.920200017041512e-15
aF-15.679623042157379
asVmomentum
p1981
(lp1982
F0
aF0
aF0
asa(dp1983
Vmagmom
p1984
F0
sVindex
p1985
I12
sVsymbol
p1986
VCu
p1987
sVcharge
p1988
F0
sVtag
p1989
I0
sVposition
p1990
(lp1991
F2.997747769316563e-16
aF-1.8641288150001252
aF-37.816359974285561
asVmomentum
p1992
(lp1993
F0
aF0
aF0
asa(dp1994
Vmagmom
p1995
F0
sVindex
p1996
I13
sVsymbol
p1997
VCu
p1998
sVcharge
p1999
F0
sVtag
p2000
I0
sVposition
p2001
(lp2002
F2.997747769316563e-16
aF-1.864128815000123
aF-19.368957389291854
asVmomentum
p2003
(lp2004
F0
aF0
aF0
asa(dp2005
Vmagmom
p2006
F0
sVindex
p2007
I14
sVsymbol
p2008
VCu
p2009
sVcharge
p2010
F0
sVtag
p2011
I0
sVposition
p2012
(lp2013
F1.8641288150001207
aF-1.8641288150001236
aF-24.904897984951017
asVmomentum
p2014
(lp2015
F0
aF0
aF0
asa(dp2016
Vmagmom
p2017
F0
sVindex
p2018
I15
sVsymbol
p2019
VCu
p2020
sVcharge
p2021
F0
sVtag
p2022
I0
sVposition
p2023
(lp2024
F1.8641288150001205
aF-2.823782514065402e-15
aF-23.057934059284925
asVmomentum
p2025
(lp2026
F0
aF0
aF0
asa(dp2027
Vmagmom
p2028
F0
sVindex
p2029
I16
sVsymbol
p2030
VCu
p2031
sVcharge
p2032
F0
sVtag
p2033
I0
sVposition
p2034
(lp2035
F0
aF-3.5014055406700879e-15
aF-28.591145978643823
asVmomentum
p2036
(lp2037
F0
aF0
aF0
asa(dp2038
Vmagmom
p2039
F0
sVindex
p2040
I17
sVsymbol
p2041
VCu
p2042
sVcharge
p2043
F0
sVtag
p2044
I0
sVposition
p2045
(lp2046
F2.997747769316563e-16
aF-1.8641288150001238
aF-26.747268406419398
asVmomentum
p2047
(lp2048
F0
aF0
aF0
asa(dp2049
Vmagmom
p2050
F0
sVindex
p2051
I18
sVsymbol
p2052
VCu
p2053
sVcharge
p2054
F0
sVtag
p2055
I0
sVposition
p2056
(lp2057
F1.8641288150001207
aF-1.8641288150001232
aF-21.213445724288388
asVmomentum
p2058
(lp2059
F0
aF0
aF0
asa(dp2060
Vmagmom
p2061
F0
sVindex
p2062
I19
sVsymbol
p2063
VCu
p2064
sVcharge
p2065
F0
sVtag
p2066
I0
sVposition
p2067
(lp2068
F2.997747769316563e-16
aF-1.8641288150001247
aF-34.125977904290018
asVmomentum
p2069
(lp2070
F0
aF0
aF0
asa(dp2071
Vmagmom
p2072
F0
sVindex
p2073
I20
sVsymbol
p2074
VCu
p2075
sVcharge
p2076
F0
sVtag
p2077
I0
sVposition
p2078
(lp2079
F1.8641288150001205
aF-4.1792269608262068e-15
aF-34.125977904290018
asVmomentum
p2080
(lp2081
F0
aF0
aF0
asa(dp2082
Vmagmom
p2083
F0
sVindex
p2084
I21
sVsymbol
p2085
VPd
p2086
sVcharge
p2087
F0
sVtag
p2088
I0
sVposition
p2089
(lp2090
F0
aF-3.0499694744918559e-15
aF-24.904890753933
asVmomentum
p2091
(lp2092
F0
aF0
aF0
asa(dp2093
Vmagmom
p2094
F0
sVindex
p2095
I22
sVsymbol
p2096
VPd
p2097
sVcharge
p2098
F0
sVtag
p2099
I0
sVposition
p2100
(lp2101
F1.8641288150001207
aF-1.864128815000125
aF-35.972355342744493
asVmomentum
p2102
(lp2103
F0
aF0
aF0
asa(dp2104
Vmagmom
p2105
F0
sVindex
p2106
I23
sVsymbol
p2107
VPd
p2108
sVcharge
p2109
F0
sVtag
p2110
I0
sVposition
p2111
(lp2112
F0
aF-2.14582620653532e-15
aF-17.522000694643776
asVmomentum
p2113
(lp2114
F0
aF0
aF0
asa(dp2115
Vmagmom
p2116
F0
sVindex
p2117
I24
sVsymbol
p2118
VPd
p2119
sVcharge
p2120
F0
sVtag
p2121
I0
sVposition
p2122
(lp2123
F1.8641288150001207
aF-1.8641288150001223
aF-13.837454056191014
asVmomentum
p2124
(lp2125
F0
aF0
aF0
asa(dp2126
Vmagmom
p2127
F0
sVindex
p2128
I25
sVsymbol
p2129
VPd
p2130
sVcharge
p2131
F0
sVtag
p2132
I0
sVposition
p2133
(lp2134
F0
aF-2.5978978405135882e-15
aF-21.213445724288388
asVmomentum
p2135
(lp2136
F0
aF0
aF0
asa(dp2137
Vmagmom
p2138
F0
sVindex
p2139
I26
sVsymbol
p2140
VPd
p2141
sVcharge
p2142
F0
sVtag
p2143
I0
sVposition
p2144
(lp2145
F1.8641288150001207
aF-1.8641288150001245
aF-32.279600465835543
asVmomentum
p2146
(lp2147
F0
aF0
aF0
asa(dp2148
Vmagmom
p2149
F0
sVindex
p2150
I27
sVsymbol
p2151
VPd
p2152
sVcharge
p2153
F0
sVtag
p2154
I0
sVposition
p2155
(lp2156
F1.8641288150001207
aF-1.8641288150001241
aF-28.589437392385758
asVmomentum
p2157
(lp2158
F0
aF0
aF0
asasVcell
p2159
(lp2160
(lp2161
F3.7282576300002415
aF0
aF0
aa(lp2162
F5.995495538633126e-16
aF-3.7282576300002415
aF2.2828993864882471e-16
aa(lp2163
F0
aF-6.3253164812504753e-15
aF-51.650128720006514
aasVmass
p2164
F2079.4060000000009
sVpbc
p2165
(lp2166
I01
aI01
aI01
asVspacegroup
p2167
VP4mm (99)
p2168
sVconstraints
p2169
(lp2170
(dp2171
Vname
p2172
VFixAtoms
p2173
sVkwargs
p2174
(dp2175
Vindices
p2176
(lp2177
I0
aI1
aI2
aI4
aI6
aI7
aI8
aI9
aI10
aI12
aI13
aI14
aI15
aI16
aI17
aI18
aI19
aI20
aI21
aI22
aI23
aI25
aI26
aI27
assasaa(lp2178
g349
ag2
((ltRp2179
aa(lp2180
g352
ag353
aa(lp2181
g355
aS'27e18d5df9b233f2196be89bdb21b27086815286'
p2182
aa(lp2183
g358
ag359
(S'\x07\xe1\x03\x1f\x13++\x08{\xe4'
tRp2184
aa(lp2185
g362
ag359
(S'\x07\xe1\x03\x1f\x13++\x08{\xec'
tRp2186
aa(lp2187
g365
a(dp2188
g367
g377
sg378
I00
sg379
g380
sg381
g1832
sg386
g400
sg401
g402
sg403
I00
sg404
g405
sg406
I28
saatRp2189
ag2
((lp2190
(lp2191
g5
a(dp2192
Vinfo
p2193
(dp2194
sVvolume
p2195
F717.93188015543808
sVnatoms
p2196
I28
sVsymbol_counts
p2197
(dp2198
VCu
p2199
I21
sVPd
p2200
I7
ssVchemical_symbols
p2201
(lp2202
VPd
p2203
aVCu
p2204
asVatoms
p2205
(lp2206
(dp2207
Vmagmom
p2208
F0
sVindex
p2209
I0
sVsymbol
p2210
VCu
p2211
sVcharge
p2212
F0
sVtag
p2213
I0
sVposition
p2214
(lp2215
F1.8641288150001205
aF0
aF28.590948380008527
asVmomentum
p2216
(lp2217
F0
aF0
aF0
asa(dp2218
Vmagmom
p2219
F0
sVindex
p2220
I1
sVsymbol
p2221
VCu
p2222
sVcharge
p2223
F0
sVtag
p2224
I0
sVposition
p2225
(lp2226
F0
aF0
aF34.124437402307983
asVmomentum
p2227
(lp2228
F0
aF0
aF0
asa(dp2229
Vmagmom
p2230
F0
sVindex
p2231
I2
sVsymbol
p2232
VCu
p2233
sVcharge
p2234
F0
sVtag
p2235
I0
sVposition
p2236
(lp2237
F1.8641288150001207
aF1.8641288150001205
aF15.677346009339809
asVmomentum
p2238
(lp2239
F0
aF0
aF0
asa(dp2240
Vmagmom
p2241
F0
sVindex
p2242
I3
sVsymbol
p2243
VCu
p2244
sVcharge
p2245
F0
sVtag
p2246
I0
sVposition
p2247
(lp2248
F0
aF0
aF37.816162375650258
asVmomentum
p2249
(lp2250
F0
aF0
aF0
asa(dp2251
Vmagmom
p2252
F0
sVindex
p2253
I4
sVsymbol
p2254
VCu
p2255
sVcharge
p2256
F0
sVtag
p2257
I0
sVposition
p2258
(lp2259
F1.8641288150001205
aF0
aF24.90262095213345
asVmomentum
p2260
(lp2261
F0
aF0
aF0
asa(dp2262
Vmagmom
p2263
F0
sVindex
p2264
I5
sVsymbol
p2265
VCu
p2266
sVcharge
p2267
F0
sVtag
p2268
I0
sVposition
p2269
(lp2270
F2.997747769316563e-16
aF1.8641288150001205
aF13.834975587871433
asVmomentum
p2271
(lp2272
F0
aF0
aF0
asa(dp2273
Vmagmom
p2274
F0
sVindex
p2275
I6
sVsymbol
p2276
VCu
p2277
sVcharge
p2278
F0
sVtag
p2279
I0
sVposition
p2280
(lp2281
F1.8641288150001205
aF0
aF35.971712519999613
asVmomentum
p2282
(lp2283
F0
aF0
aF0
asa(dp2284
Vmagmom
p2285
F0
sVindex
p2286
I7
sVsymbol
p2287
VCu
p2288
sVcharge
p2289
F0
sVtag
p2290
I0
sVposition
p2291
(lp2292
F0
aF0
aF30.43822349770015
asVmomentum
p2293
(lp2294
F0
aF0
aF0
asa(dp2295
Vmagmom
p2296
F0
sVindex
p2297
I8
sVsymbol
p2298
VCu
p2299
sVcharge
p2300
F0
sVtag
p2301
I0
sVposition
p2302
(lp2303
F1.8641288150001205
aF0
aF17.524309935005903
asVmomentum
p2304
(lp2305
F0
aF0
aF0
asa(dp2306
Vmagmom
p2307
F0
sVindex
p2308
I9
sVsymbol
p2309
VCu
p2310
sVcharge
p2311
F0
sVtag
p2312
I0
sVposition
p2313
(lp2314
F2.997747769316563e-16
aF1.8641288150001205
aF28.590948380008527
asVmomentum
p2315
(lp2316
F0
aF0
aF0
asa(dp2317
Vmagmom
p2318
F0
sVindex
p2319
I10
sVsymbol
p2320
VCu
p2321
sVcharge
p2322
F0
sVtag
p2323
I0
sVposition
p2324
(lp2325
F2.997747769316563e-16
aF1.8641288150001205
aF21.213286604998974
asVmomentum
p2326
(lp2327
F0
aF0
aF0
asa(dp2328
Vmagmom
p2329
F0
sVindex
p2330
I11
sVsymbol
p2331
VCu
p2332
sVcharge
p2333
F0
sVtag
p2334
I0
sVposition
p2335
(lp2336
F1.8641288150001205
aF0
aF13.834975587871433
asVmomentum
p2337
(lp2338
F0
aF0
aF0
asa(dp2339
Vmagmom
p2340
F0
sVindex
p2341
I12
sVsymbol
p2342
VCu
p2343
sVcharge
p2344
F0
sVtag
p2345
I0
sVposition
p2346
(lp2347
F2.997747769316563e-16
aF1.8641288150001205
aF35.971712519999613
asVmomentum
p2348
(lp2349
F0
aF0
aF0
asa(dp2350
Vmagmom
p2351
F0
sVindex
p2352
I13
sVsymbol
p2353
VCu
p2354
sVcharge
p2355
F0
sVtag
p2356
I0
sVposition
p2357
(lp2358
F2.997747769316563e-16
aF1.8641288150001205
aF17.524309935005903
asVmomentum
p2359
(lp2360
F0
aF0
aF0
asa(dp2361
Vmagmom
p2362
F0
sVindex
p2363
I14
sVsymbol
p2364
VCu
p2365
sVcharge
p2366
F0
sVtag
p2367
I0
sVposition
p2368
(lp2369
F1.8641288150001207
aF1.8641288150001205
aF23.060250530665073
asVmomentum
p2370
(lp2371
F0
aF0
aF0
asa(dp2372
Vmagmom
p2373
F0
sVindex
p2374
I15
sVsymbol
p2375
VCu
p2376
sVcharge
p2377
F0
sVtag
p2378
I0
sVposition
p2379
(lp2380
F1.8641288150001205
aF0
aF21.213286604998974
asVmomentum
p2381
(lp2382
F0
aF0
aF0
asa(dp2383
Vmagmom
p2384
F0
sVindex
p2385
I16
sVsymbol
p2386
VCu
p2387
sVcharge
p2388
F0
sVtag
p2389
I0
sVposition
p2390
(lp2391
F0
aF0
aF26.746498524357872
asVmomentum
p2392
(lp2393
F0
aF0
aF0
asa(dp2394
Vmagmom
p2395
F0
sVindex
p2396
I17
sVsymbol
p2397
VCu
p2398
sVcharge
p2399
F0
sVtag
p2400
I0
sVposition
p2401
(lp2402
F2.997747769316563e-16
aF1.8641288150001205
aF24.90262095213345
asVmomentum
p2403
(lp2404
F0
aF0
aF0
asa(dp2405
Vmagmom
p2406
F0
sVindex
p2407
I18
sVsymbol
p2408
VCu
p2409
sVcharge
p2410
F0
sVtag
p2411
I0
sVposition
p2412
(lp2413
F1.8641288150001207
aF1.8641288150001205
aF19.36879827000244
asVmomentum
p2414
(lp2415
F0
aF0
aF0
asa(dp2416
Vmagmom
p2417
F0
sVindex
p2418
I19
sVsymbol
p2419
VCu
p2420
sVcharge
p2421
F0
sVtag
p2422
I0
sVposition
p2423
(lp2424
F2.997747769316563e-16
aF1.8641288150001205
aF32.28133045000407
asVmomentum
p2425
(lp2426
F0
aF0
aF0
asa(dp2427
Vmagmom
p2428
F0
sVindex
p2429
I20
sVsymbol
p2430
VCu
p2431
sVcharge
p2432
F0
sVtag
p2433
I0
sVposition
p2434
(lp2435
F1.8641288150001205
aF0
aF32.28133045000407
asVmomentum
p2436
(lp2437
F0
aF0
aF0
asa(dp2438
Vmagmom
p2439
F0
sVindex
p2440
I21
sVsymbol
p2441
VPd
p2442
sVcharge
p2443
F0
sVtag
p2444
I0
sVposition
p2445
(lp2446
F0
aF0
aF23.060243299647052
asVmomentum
p2447
(lp2448
F0
aF0
aF0
asa(dp2449
Vmagmom
p2450
F0
sVindex
p2451
I22
sVsymbol
p2452
VPd
p2453
sVcharge
p2454
F0
sVtag
p2455
I0
sVposition
p2456
(lp2457
F1.8641288150001207
aF1.8641288150001205
aF34.127707888458538
asVmomentum
p2458
(lp2459
F0
aF0
aF0
asa(dp2460
Vmagmom
p2461
F0
sVindex
p2462
I23
sVsymbol
p2463
VPd
p2464
sVcharge
p2465
F0
sVtag
p2466
I0
sVposition
p2467
(lp2468
F0
aF0
aF15.677353240357828
asVmomentum
p2469
(lp2470
F0
aF0
aF0
asa(dp2471
Vmagmom
p2472
F0
sVindex
p2473
I24
sVsymbol
p2474
VPd
p2475
sVcharge
p2476
F0
sVtag
p2477
I0
sVposition
p2478
(lp2479
F1.8641288150001207
aF1.8641288150001205
aF37.817870961908326
asVmomentum
p2480
(lp2481
F0
aF0
aF0
asa(dp2482
Vmagmom
p2483
F0
sVindex
p2484
I25
sVsymbol
p2485
VPd
p2486
sVcharge
p2487
F0
sVtag
p2488
I0
sVposition
p2489
(lp2490
F0
aF0
aF19.36879827000244
asVmomentum
p2491
(lp2492
F0
aF0
aF0
asa(dp2493
Vmagmom
p2494
F0
sVindex
p2495
I26
sVsymbol
p2496
VPd
p2497
sVcharge
p2498
F0
sVtag
p2499
I0
sVposition
p2500
(lp2501
F1.8641288150001207
aF1.8641288150001205
aF30.434953011549592
asVmomentum
p2502
(lp2503
F0
aF0
aF0
asa(dp2504
Vmagmom
p2505
F0
sVindex
p2506
I27
sVsymbol
p2507
VPd
p2508
sVcharge
p2509
F0
sVtag
p2510
I0
sVposition
p2511
(lp2512
F1.8641288150001207
aF1.8641288150001205
aF26.74478993809981
asVmomentum
p2513
(lp2514
F0
aF0
aF0
asasVcell
p2515
(lp2516
(lp2517
F3.7282576300002415
aF0
aF0
aa(lp2518
F5.995495538633126e-16
aF3.7282576300002415
aF2.2828993864882461e-16
aa(lp2519
F0
aF0
aF51.650128720006514
aasVmass
p2520
F2079.4060000000009
sVpbc
p2521
(lp2522
I01
aI01
aI01
asVspacegroup
p2523
VP4mm (99)
p2524
sVconstraints
p2525
(lp2526
(dp2527
Vname
p2528
VFixAtoms
p2529
sVkwargs
p2530
(dp2531
Vindices
p2532
(lp2533
I0
aI1
aI2
aI4
aI5
aI7
aI8
aI9
aI10
aI11
aI13
aI14
aI15
aI16
aI17
aI18
aI19
aI20
aI21
aI22
aI23
aI25
aI26
aI27
assasaa(lp2534
g349
ag2
((ltRp2535
aa(lp2536
g352
ag353
aa(lp2537
g355
aS'88259e43115ee246314665af83d7781e157263aa'
p2538
aa(lp2539
g358
ag359
(S'\x07\xe1\x03\x1f\x13++\x08\x9e\x9d'
tRp2540
aa(lp2541
g362
ag359
(S'\x07\xe1\x03\x1f\x13++\x08\x9e\xa5'
tRp2542
aa(lp2543
g365
a(dp2544
g367
g377
sg378
I00
sg379
g380
sg381
g382
(g384
S'\xa2vK\xb4\xdc\x00\xd0?'
tRp2545
sg386
g400
sg401
g402
sg403
I01
sg404
g405
sg406
I28
saatRp2546
ag2
((lp2547
(lp2548
g5
a(dp2549
Vinfo
p2550
(dp2551
sVvolume
p2552
F717.93188015543808
sVnatoms
p2553
I28
sVsymbol_counts
p2554
(dp2555
VCu
p2556
I21
sVPd
p2557
I7
ssVchemical_symbols
p2558
(lp2559
VPd
p2560
aVCu
p2561
asVatoms
p2562
(lp2563
(dp2564
Vmagmom
p2565
F0
sVindex
p2566
I0
sVsymbol
p2567
VCu
p2568
sVcharge
p2569
F0
sVtag
p2570
I0
sVposition
p2571
(lp2572
F1.8641288150001205
aF-3.5013813418164645e-15
aF-28.590948380008527
asVmomentum
p2573
(lp2574
F0
aF0
aF0
asa(dp2575
Vmagmom
p2576
F0
sVindex
p2577
I1
sVsymbol
p2578
VCu
p2579
sVcharge
p2580
F0
sVtag
p2581
I0
sVposition
p2582
(lp2583
F0
aF-4.1790383037440692e-15
aF-34.124437402307983
asVmomentum
p2584
(lp2585
F0
aF0
aF0
asa(dp2586
Vmagmom
p2587
F0
sVindex
p2588
I2
sVsymbol
p2589
VCu
p2590
sVcharge
p2591
F0
sVtag
p2592
I0
sVposition
p2593
(lp2594
F1.8641288150001207
aF-1.8641288150001225
aF-15.677346009339809
asVmomentum
p2595
(lp2596
F0
aF0
aF0
asa(dp2597
Vmagmom
p2598
F0
sVindex
p2599
I3
sVsymbol
p2600
VCu
p2601
sVcharge
p2602
F0
sVtag
p2603
I0
sVposition
p2604
(lp2605
F0
aF-4.6311442209376659e-15
aF-37.816162375650258
asVmomentum
p2606
(lp2607
F0
aF0
aF0
asa(dp2608
Vmagmom
p2609
F0
sVindex
p2610
I4
sVsymbol
p2611
VCu
p2612
sVcharge
p2613
F0
sVtag
p2614
I0
sVposition
p2615
(lp2616
F1.8641288150001205
aF-3.0496915039410041e-15
aF-24.90262095213345
asVmomentum
p2617
(lp2618
F0
aF0
aF0
asa(dp2619
Vmagmom
p2620
F0
sVindex
p2621
I5
sVsymbol
p2622
VCu
p2623
sVcharge
p2624
F0
sVtag
p2625
I0
sVposition
p2626
(lp2627
F2.997747769316563e-16
aF-1.8641288150001223
aF-13.834975587871433
asVmomentum
p2628
(lp2629
F0
aF0
aF0
asa(dp2630
Vmagmom
p2631
F0
sVindex
p2632
I6
sVsymbol
p2633
VCu
p2634
sVcharge
p2635
F0
sVtag
p2636
I0
sVposition
p2637
(lp2638
F1.8641288150001205
aF-4.4052642597466298e-15
aF-35.971712519999613
asVmomentum
p2639
(lp2640
F0
aF0
aF0
asa(dp2641
Vmagmom
p2642
F0
sVindex
p2643
I7
sVsymbol
p2644
VCu
p2645
sVcharge
p2646
F0
sVtag
p2647
I0
sVposition
p2648
(lp2649
F0
aF-3.727607297819024e-15
aF-30.43822349770015
asVmomentum
p2650
(lp2651
F0
aF0
aF0
asa(dp2652
Vmagmom
p2653
F0
sVindex
p2654
I8
sVsymbol
p2655
VCu
p2656
sVcharge
p2657
F0
sVtag
p2658
I0
sVposition
p2659
(lp2660
F1.8641288150001205
aF-2.1461090069171141e-15
aF-17.524309935005903
asVmomentum
p2661
(lp2662
F0
aF0
aF0
asa(dp2663
Vmagmom
p2664
F0
sVindex
p2665
I9
sVsymbol
p2666
VCu
p2667
sVcharge
p2668
F0
sVtag
p2669
I0
sVposition
p2670
(lp2671
F2.997747769316563e-16
aF-1.8641288150001241
aF-28.590948380008527
asVmomentum
p2672
(lp2673
F0
aF0
aF0
asa(dp2674
Vmagmom
p2675
F0
sVindex
p2676
I10
sVsymbol
p2677
VCu
p2678
sVcharge
p2679
F0
sVtag
p2680
I0
sVposition
p2681
(lp2682
F2.997747769316563e-16
aF-1.8641288150001232
aF-21.213286604998974
asVmomentum
p2683
(lp2684
F0
aF0
aF0
asa(dp2685
Vmagmom
p2686
F0
sVindex
p2687
I11
sVsymbol
p2688
VCu
p2689
sVcharge
p2690
F0
sVtag
p2691
I0
sVposition
p2692
(lp2693
F1.8641288150001205
aF-1.6942958569968522e-15
aF-13.834975587871433
asVmomentum
p2694
(lp2695
F0
aF0
aF0
asa(dp2696
Vmagmom
p2697
F0
sVindex
p2698
I12
sVsymbol
p2699
VCu
p2700
sVcharge
p2701
F0
sVtag
p2702
I0
sVposition
p2703
(lp2704
F2.997747769316563e-16
aF-1.864128815000125
aF-35.971712519999613
asVmomentum
p2705
(lp2706
F0
aF0
aF0
asa(dp2707
Vmagmom
p2708
F0
sVindex
p2709
I13
sVsymbol
p2710
VCu
p2711
sVcharge
p2712
F0
sVtag
p2713
I0
sVposition
p2714
(lp2715
F2.997747769316563e-16
aF-1.8641288150001227
aF-17.524309935005903
asVmomentum
p2716
(lp2717
F0
aF0
aF0
asa(dp2718
Vmagmom
p2719
F0
sVindex
p2720
I14
sVsymbol
p2721
VCu
p2722
sVcharge
p2723
F0
sVtag
p2724
I0
sVposition
p2725
(lp2726
F1.8641288150001207
aF-1.8641288150001234
aF-23.060250530665073
asVmomentum
p2727
(lp2728
F0
aF0
aF0
asa(dp2729
Vmagmom
p2730
F0
sVindex
p2731
I15
sVsymbol
p2732
VCu
p2733
sVcharge
p2734
F0
sVtag
p2735
I0
sVposition
p2736
(lp2737
F1.8641288150001205
aF-2.5978783540207418e-15
aF-21.213286604998974
asVmomentum
p2738
(lp2739
F0
aF0
aF0
asa(dp2740
Vmagmom
p2741
F0
sVindex
p2742
I16
sVsymbol
p2743
VCu
p2744
sVcharge
p2745
F0
sVtag
p2746
I0
sVposition
p2747
(lp2748
F0
aF-3.2755013806254273e-15
aF-26.746498524357872
asVmomentum
p2749
(lp2750
F0
aF0
aF0
asa(dp2751
Vmagmom
p2752
F0
sVindex
p2753
I17
sVsymbol
p2754
VCu
p2755
sVcharge
p2756
F0
sVtag
p2757
I0
sVposition
p2758
(lp2759
F2.997747769316563e-16
aF-1.8641288150001236
aF-24.90262095213345
asVmomentum
p2760
(lp2761
F0
aF0
aF0
asa(dp2762
Vmagmom
p2763
F0
sVindex
p2764
I18
sVsymbol
p2765
VCu
p2766
sVcharge
p2767
F0
sVtag
p2768
I0
sVposition
p2769
(lp2770
F1.8641288150001207
aF-1.864128815000123
aF-19.36879827000244
asVmomentum
p2771
(lp2772
F0
aF0
aF0
asa(dp2773
Vmagmom
p2774
F0
sVindex
p2775
I19
sVsymbol
p2776
VCu
p2777
sVcharge
p2778
F0
sVtag
p2779
I0
sVposition
p2780
(lp2781
F2.997747769316563e-16
aF-1.8641288150001245
aF-32.28133045000407
asVmomentum
p2782
(lp2783
F0
aF0
aF0
asa(dp2784
Vmagmom
p2785
F0
sVindex
p2786
I20
sVsymbol
p2787
VCu
p2788
sVcharge
p2789
F0
sVtag
p2790
I0
sVposition
p2791
(lp2792
F1.8641288150001205
aF-3.953322800781547e-15
aF-32.28133045000407
asVmomentum
p2793
(lp2794
F0
aF0
aF0
asa(dp2795
Vmagmom
p2796
F0
sVindex
p2797
I21
sVsymbol
p2798
VPd
p2799
sVcharge
p2800
F0
sVtag
p2801
I0
sVposition
p2802
(lp2803
F0
aF-2.8240653144471961e-15
aF-23.060243299647052
asVmomentum
p2804
(lp2805
F0
aF0
aF0
asa(dp2806
Vmagmom
p2807
F0
sVindex
p2808
I22
sVsymbol
p2809
VPd
p2810
sVcharge
p2811
F0
sVtag
p2812
I0
sVposition
p2813
(lp2814
F1.8641288150001207
aF-1.8641288150001247
aF-34.127707888458538
asVmomentum
p2815
(lp2816
F0
aF0
aF0
asa(dp2817
Vmagmom
p2818
F0
sVindex
p2819
I23
sVsymbol
p2820
VPd
p2821
sVcharge
p2822
F0
sVtag
p2823
I0
sVposition
p2824
(lp2825
F0
aF-1.9199220464906598e-15
aF-15.677353240357828
asVmomentum
p2826
(lp2827
F0
aF0
aF0
asa(dp2828
Vmagmom
p2829
F0
sVindex
p2830
I24
sVsymbol
p2831
VPd
p2832
sVcharge
p2833
F0
sVtag
p2834
I0
sVposition
p2835
(lp2836
F1.8641288150001207
aF-1.8641288150001252
aF-37.817870961908326
asVmomentum
p2837
(lp2838
F0
aF0
aF0
asa(dp2839
Vmagmom
p2840
F0
sVindex
p2841
I25
sVsymbol
p2842
VPd
p2843
sVcharge
p2844
F0
sVtag
p2845
I0
sVposition
p2846
(lp2847
F0
aF-2.371993680468928e-15
aF-19.36879827000244
asVmomentum
p2848
(lp2849
F0
aF0
aF0
asa(dp2850
Vmagmom
p2851
F0
sVindex
p2852
I26
sVsymbol
p2853
VPd
p2854
sVcharge
p2855
F0
sVtag
p2856
I0
sVposition
p2857
(lp2858
F1.8641288150001207
aF-1.8641288150001243
aF-30.434953011549592
asVmomentum
p2859
(lp2860
F0
aF0
aF0
asa(dp2861
Vmagmom
p2862
F0
sVindex
p2863
I27
sVsymbol
p2864
VPd
p2865
sVcharge
p2866
F0
sVtag
p2867
I0
sVposition
p2868
(lp2869
F1.8641288150001207
aF-1.8641288150001238
aF-26.74478993809981
asVmomentum
p2870
(lp2871
F0
aF0
aF0
asasVcell
p2872
(lp2873
(lp2874
F3.7282576300002415
aF0
aF0
aa(lp2875
F5.995495538633126e-16
aF-3.7282576300002415
aF2.2828993864882471e-16
aa(lp2876
F0
aF-6.3253164812504753e-15
aF-51.650128720006514
aasVmass
p2877
F2079.4060000000009
sVpbc
p2878
(lp2879
I01
aI01
aI01
asVspacegroup
p2880
VP4mm (99)
p2881
sVconstraints
p2882
(lp2883
(dp2884
Vname
p2885
VFixAtoms
p2886
sVkwargs
p2887
(dp2888
Vindices
p2889
(lp2890
I0
aI1
aI3
aI4
aI6
aI7
aI8
aI9
aI10
aI12
aI13
aI14
aI15
aI16
aI17
aI18
aI19
aI20
aI21
aI22
aI24
aI25
aI26
aI27
assasaa(lp2891
g349
ag2
((ltRp2892
aa(lp2893
g352
ag353
aa(lp2894
g355
aS'4c4a4f09dfaa13bd002fe63326287bf5bd46e9cd'
p2895
aa(lp2896
g358
ag359
(S'\x07\xe1\x03\x1f\x13++\x08\xdf\xce'
tRp2897
aa(lp2898
g362
ag359
(S'\x07\xe1\x03\x1f\x13++\x08\xdf\xd6'
tRp2899
aa(lp2900
g365
a(dp2901
g367
g377
sg378
I00
sg379
g380
sg381
g2545
sg386
g400
sg401
g402
sg403
I00
sg404
g405
sg406
I28
saatRp2902
ag2
((lp2903
(lp2904
g5
a(dp2905
Vinfo
p2906
(dp2907
sVvolume
p2908
F717.93188015543808
sVnatoms
p2909
I28
sVsymbol_counts
p2910
(dp2911
VCu
p2912
I21
sVPd
p2913
I7
ssVchemical_symbols
p2914
(lp2915
VPd
p2916
aVCu
p2917
asVatoms
p2918
(lp2919
(dp2920
Vmagmom
p2921
F0
sVindex
p2922
I0
sVsymbol
p2923
VCu
p2924
sVcharge
p2925
F0
sVtag
p2926
I0
sVposition
p2927
(lp2928
F1.8641288150001205
aF0
aF26.746300925722572
asVmomentum
p2929
(lp2930
F0
aF0
aF0
asa(dp2931
Vmagmom
p2932
F0
sVindex
p2933
I1
sVsymbol
p2934
VCu
p2935
sVcharge
p2936
F0
sVtag
p2937
I0
sVposition
p2938
(lp2939
F0
aF0
aF32.279789948022035
asVmomentum
p2940
(lp2941
F0
aF0
aF0
asa(dp2942
Vmagmom
p2943
F0
sVindex
p2944
I2
sVsymbol
p2945
VCu
p2946
sVcharge
p2947
F0
sVtag
p2948
I0
sVposition
p2949
(lp2950
F1.8641288150001207
aF1.8641288150001205
aF13.832698555053863
asVmomentum
p2951
(lp2952
F0
aF0
aF0
asa(dp2953
Vmagmom
p2954
F0
sVindex
p2955
I3
sVsymbol
p2956
VCu
p2957
sVcharge
p2958
F0
sVtag
p2959
I0
sVposition
p2960
(lp2961
F0
aF0
aF35.971514921364317
asVmomentum
p2962
(lp2963
F0
aF0
aF0
asa(dp2964
Vmagmom
p2965
F0
sVindex
p2966
I4
sVsymbol
p2967
VCu
p2968
sVcharge
p2969
F0
sVtag
p2970
I0
sVposition
p2971
(lp2972
F1.8641288150001205
aF0
aF23.057973497847502
asVmomentum
p2973
(lp2974
F0
aF0
aF0
asa(dp2975
Vmagmom
p2976
F0
sVindex
p2977
I5
sVsymbol
p2978
VCu
p2979
sVcharge
p2980
F0
sVtag
p2981
I0
sVposition
p2982
(lp2983
F2.997747769316563e-16
aF1.8641288150001205
aF37.815392493588739
asVmomentum
p2984
(lp2985
F0
aF0
aF0
asa(dp2986
Vmagmom
p2987
F0
sVindex
p2988
I6
sVsymbol
p2989
VCu
p2990
sVcharge
p2991
F0
sVtag
p2992
I0
sVposition
p2993
(lp2994
F1.8641288150001205
aF0
aF34.127065065713666
asVmomentum
p2995
(lp2996
F0
aF0
aF0
asa(dp2997
Vmagmom
p2998
F0
sVindex
p2999
I7
sVsymbol
p3000
VCu
p3001
sVcharge
p3002
F0
sVtag
p3003
I0
sVposition
p3004
(lp3005
F0
aF0
aF28.593576043414199
asVmomentum
p3006
(lp3007
F0
aF0
aF0
asa(dp3008
Vmagmom
p3009
F0
sVindex
p3010
I8
sVsymbol
p3011
VCu
p3012
sVcharge
p3013
F0
sVtag
p3014
I0
sVposition
p3015
(lp3016
F1.8641288150001205
aF0
aF15.679662480719955
asVmomentum
p3017
(lp3018
F0
aF0
aF0
asa(dp3019
Vmagmom
p3020
F0
sVindex
p3021
I9
sVsymbol
p3022
VCu
p3023
sVcharge
p3024
F0
sVtag
p3025
I0
sVposition
p3026
(lp3027
F2.997747769316563e-16
aF1.8641288150001205
aF26.746300925722572
asVmomentum
p3028
(lp3029
F0
aF0
aF0
asa(dp3030
Vmagmom
p3031
F0
sVindex
p3032
I10
sVsymbol
p3033
VCu
p3034
sVcharge
p3035
F0
sVtag
p3036
I0
sVposition
p3037
(lp3038
F2.997747769316563e-16
aF1.8641288150001205
aF19.368639150713026
asVmomentum
p3039
(lp3040
F0
aF0
aF0
asa(dp3041
Vmagmom
p3042
F0
sVindex
p3043
I11
sVsymbol
p3044
VCu
p3045
sVcharge
p3046
F0
sVtag
p3047
I0
sVposition
p3048
(lp3049
F1.8641288150001205
aF0
aF37.815392493588739
asVmomentum
p3050
(lp3051
F0
aF0
aF0
asa(dp3052
Vmagmom
p3053
F0
sVindex
p3054
I12
sVsymbol
p3055
VCu
p3056
sVcharge
p3057
F0
sVtag
p3058
I0
sVposition
p3059
(lp3060
F2.997747769316563e-16
aF1.8641288150001205
aF34.127065065713666
asVmomentum
p3061
(lp3062
F0
aF0
aF0
asa(dp3063
Vmagmom
p3064
F0
sVindex
p3065
I13
sVsymbol
p3066
VCu
p3067
sVcharge
p3068
F0
sVtag
p3069
I0
sVposition
p3070
(lp3071
F2.997747769316563e-16
aF1.8641288150001205
aF15.679662480719955
asVmomentum
p3072
(lp3073
F0
aF0
aF0
asa(dp3074
Vmagmom
p3075
F0
sVindex
p3076
I14
sVsymbol
p3077
VCu
p3078
sVcharge
p3079
F0
sVtag
p3080
I0
sVposition
p3081
(lp3082
F1.8641288150001207
aF1.8641288150001205
aF21.215603076379125
asVmomentum
p3083
(lp3084
F0
aF0
aF0
asa(dp3085
Vmagmom
p3086
F0
sVindex
p3087
I15
sVsymbol
p3088
VCu
p3089
sVcharge
p3090
F0
sVtag
p3091
I0
sVposition
p3092
(lp3093
F1.8641288150001205
aF0
aF19.368639150713026
asVmomentum
p3094
(lp3095
F0
aF0
aF0
asa(dp3096
Vmagmom
p3097
F0
sVindex
p3098
I16
sVsymbol
p3099
VCu
p3100
sVcharge
p3101
F0
sVtag
p3102
I0
sVposition
p3103
(lp3104
F0
aF0
aF24.901851070071924
asVmomentum
p3105
(lp3106
F0
aF0
aF0
asa(dp3107
Vmagmom
p3108
F0
sVindex
p3109
I17
sVsymbol
p3110
VCu
p3111
sVcharge
p3112
F0
sVtag
p3113
I0
sVposition
p3114
(lp3115
F2.997747769316563e-16
aF1.8641288150001205
aF23.057973497847502
asVmomentum
p3116
(lp3117
F0
aF0
aF0
asa(dp3118
Vmagmom
p3119
F0
sVindex
p3120
I18
sVsymbol
p3121
VCu
p3122
sVcharge
p3123
F0
sVtag
p3124
I0
sVposition
p3125
(lp3126
F1.8641288150001207
aF1.8641288150001205
aF17.524150815716492
asVmomentum
p3127
(lp3128
F0
aF0
aF0
asa(dp3129
Vmagmom
p3130
F0
sVindex
p3131
I19
sVsymbol
p3132
VCu
p3133
sVcharge
p3134
F0
sVtag
p3135
I0
sVposition
p3136
(lp3137
F2.997747769316563e-16
aF1.8641288150001205
aF30.436682995718119
asVmomentum
p3138
(lp3139
F0
aF0
aF0
asa(dp3140
Vmagmom
p3141
F0
sVindex
p3142
I20
sVsymbol
p3143
VCu
p3144
sVcharge
p3145
F0
sVtag
p3146
I0
sVposition
p3147
(lp3148
F1.8641288150001205
aF0
aF30.436682995718119
asVmomentum
p3149
(lp3150
F0
aF0
aF0
asa(dp3151
Vmagmom
p3152
F0
sVindex
p3153
I21
sVsymbol
p3154
VPd
p3155
sVcharge
p3156
F0
sVtag
p3157
I0
sVposition
p3158
(lp3159
F0
aF0
aF21.215595845361101
asVmomentum
p3160
(lp3161
F0
aF0
aF0
asa(dp3162
Vmagmom
p3163
F0
sVindex
p3164
I22
sVsymbol
p3165
VPd
p3166
sVcharge
p3167
F0
sVtag
p3168
I0
sVposition
p3169
(lp3170
F1.8641288150001207
aF1.8641288150001205
aF32.283060434172597
asVmomentum
p3171
(lp3172
F0
aF0
aF0
asa(dp3173
Vmagmom
p3174
F0
sVindex
p3175
I23
sVsymbol
p3176
VPd
p3177
sVcharge
p3178
F0
sVtag
p3179
I0
sVposition
p3180
(lp3181
F0
aF0
aF13.832705786071879
asVmomentum
p3182
(lp3183
F0
aF0
aF0
asa(dp3184
Vmagmom
p3185
F0
sVindex
p3186
I24
sVsymbol
p3187
VPd
p3188
sVcharge
p3189
F0
sVtag
p3190
I0
sVposition
p3191
(lp3192
F1.8641288150001207
aF1.8641288150001205
aF35.973223507622372
asVmomentum
p3193
(lp3194
F0
aF0
aF0
asa(dp3195
Vmagmom
p3196
F0
sVindex
p3197
I25
sVsymbol
p3198
VPd
p3199
sVcharge
p3200
F0
sVtag
p3201
I0
sVposition
p3202
(lp3203
F0
aF0
aF17.524150815716492
asVmomentum
p3204
(lp3205
F0
aF0
aF0
asa(dp3206
Vmagmom
p3207
F0
sVindex
p3208
I26
sVsymbol
p3209
VPd
p3210
sVcharge
p3211
F0
sVtag
p3212
I0
sVposition
p3213
(lp3214
F1.8641288150001207
aF1.8641288150001205
aF28.590305557263651
asVmomentum
p3215
(lp3216
F0
aF0
aF0
asa(dp3217
Vmagmom
p3218
F0
sVindex
p3219
I27
sVsymbol
p3220
VPd
p3221
sVcharge
p3222
F0
sVtag
p3223
I0
sVposition
p3224
(lp3225
F1.8641288150001207
aF1.8641288150001205
aF24.900142483813866
asVmomentum
p3226
(lp3227
F0
aF0
aF0
asasVcell
p3228
(lp3229
(lp3230
F3.7282576300002415
aF0
aF0
aa(lp3231
F5.995495538633126e-16
aF3.7282576300002415
aF2.2828993864882461e-16
aa(lp3232
F0
aF0
aF51.650128720006514
aasVmass
p3233
F2079.4060000000009
sVpbc
p3234
(lp3235
I01
aI01
aI01
asVspacegroup
p3236
VP4mm (99)
p3237
sVconstraints
p3238
(lp3239
(dp3240
Vname
p3241
VFixAtoms
p3242
sVkwargs
p3243
(dp3244
Vindices
p3245
(lp3246
I0
aI1
aI2
aI4
aI6
aI7
aI8
aI9
aI10
aI12
aI13
aI14
aI15
aI16
aI17
aI18
aI19
aI20
aI21
aI22
aI23
aI25
aI26
aI27
assasaa(lp3247
g349
ag2
((ltRp3248
aa(lp3249
g352
ag353
aa(lp3250
g355
aS'e8c4ebea623af45187bf6a90f847bf49d834327c'
p3251
aa(lp3252
g358
ag359
(S'\x07\xe1\x03\x1f\x13++\t\x00\xf4'
tRp3253
aa(lp3254
g362
ag359
(S'\x07\xe1\x03\x1f\x13++\t\x00\xfd'
tRp3255
aa(lp3256
g365
a(dp3257
g367
g377
sg378
I00
sg379
g380
sg381
g382
(g384
S'\xbd\x14?B\xa4\x91\xd4?'
tRp3258
sg386
g400
sg401
g402
sg403
I01
sg404
g405
sg406
I28
saatRp3259
ag2
((lp3260
(lp3261
g5
a(dp3262
Vinfo
p3263
(dp3264
sVvolume
p3265
F717.93188015543808
sVnatoms
p3266
I28
sVsymbol_counts
p3267
(dp3268
VCu
p3269
I21
sVPd
p3270
I7
ssVchemical_symbols
p3271
(lp3272
VPd
p3273
aVCu
p3274
asVatoms
p3275
(lp3276
(dp3277
Vmagmom
p3278
F0
sVindex
p3279
I0
sVsymbol
p3280
VCu
p3281
sVcharge
p3282
F0
sVtag
p3283
I0
sVposition
p3284
(lp3285
F1.8641288150001205
aF-3.2754771817718039e-15
aF-26.746300925722572
asVmomentum
p3286
(lp3287
F0
aF0
aF0
asa(dp3288
Vmagmom
p3289
F0
sVindex
p3290
I1
sVsymbol
p3291
VCu
p3292
sVcharge
p3293
F0
sVtag
p3294
I0
sVposition
p3295
(lp3296
F0
aF-3.9531341436994094e-15
aF-32.279789948022035
asVmomentum
p3297
(lp3298
F0
aF0
aF0
asa(dp3299
Vmagmom
p3300
F0
sVindex
p3301
I2
sVsymbol
p3302
VCu
p3303
sVcharge
p3304
F0
sVtag
p3305
I0
sVposition
p3306
(lp3307
F1.8641288150001207
aF-1.8641288150001223
aF-13.832698555053863
asVmomentum
p3308
(lp3309
F0
aF0
aF0
asa(dp3310
Vmagmom
p3311
F0
sVindex
p3312
I3
sVsymbol
p3313
VCu
p3314
sVcharge
p3315
F0
sVtag
p3316
I0
sVposition
p3317
(lp3318
F0
aF-4.4052400608930069e-15
aF-35.971514921364317
asVmomentum
p3319
(lp3320
F0
aF0
aF0
asa(dp3321
Vmagmom
p3322
F0
sVindex
p3323
I4
sVsymbol
p3324
VCu
p3325
sVcharge
p3326
F0
sVtag
p3327
I0
sVposition
p3328
(lp3329
F1.8641288150001205
aF-2.8237873438963443e-15
aF-23.057973497847502
asVmomentum
p3330
(lp3331
F0
aF0
aF0
asa(dp3332
Vmagmom
p3333
F0
sVindex
p3334
I5
sVsymbol
p3335
VCu
p3336
sVcharge
p3337
F0
sVtag
p3338
I0
sVposition
p3339
(lp3340
F2.997747769316563e-16
aF-1.8641288150001252
aF-37.815392493588739
asVmomentum
p3341
(lp3342
F0
aF0
aF0
asa(dp3343
Vmagmom
p3344
F0
sVindex
p3345
I6
sVsymbol
p3346
VCu
p3347
sVcharge
p3348
F0
sVtag
p3349
I0
sVposition
p3350
(lp3351
F1.8641288150001205
aF-4.17936009970197e-15
aF-34.127065065713666
asVmomentum
p3352
(lp3353
F0
aF0
aF0
asa(dp3354
Vmagmom
p3355
F0
sVindex
p3356
I7
sVsymbol
p3357
VCu
p3358
sVcharge
p3359
F0
sVtag
p3360
I0
sVposition
p3361
(lp3362
F0
aF-3.5017031377743638e-15
aF-28.593576043414199
asVmomentum
p3363
(lp3364
F0
aF0
aF0
asa(dp3365
Vmagmom
p3366
F0
sVindex
p3367
I8
sVsymbol
p3368
VCu
p3369
sVcharge
p3370
F0
sVtag
p3371
I0
sVposition
p3372
(lp3373
F1.8641288150001205
aF-1.9202048468724539e-15
aF-15.679662480719955
asVmomentum
p3374
(lp3375
F0
aF0
aF0
asa(dp3376
Vmagmom
p3377
F0
sVindex
p3378
I9
sVsymbol
p3379
VCu
p3380
sVcharge
p3381
F0
sVtag
p3382
I0
sVposition
p3383
(lp3384
F2.997747769316563e-16
aF-1.8641288150001238
aF-26.746300925722572
asVmomentum
p3385
(lp3386
F0
aF0
aF0
asa(dp3387
Vmagmom
p3388
F0
sVindex
p3389
I10
sVsymbol
p3390
VCu
p3391
sVcharge
p3392
F0
sVtag
p3393
I0
sVposition
p3394
(lp3395
F2.997747769316563e-16
aF-1.864128815000123
aF-19.368639150713026
asVmomentum
p3396
(lp3397
F0
aF0
aF0
asa(dp3398
Vmagmom
p3399
F0
sVindex
p3400
I11
sVsymbol
p3401
VCu
p3402
sVcharge
p3403
F0
sVtag
p3404
I0
sVposition
p3405
(lp3406
F1.8641288150001205
aF-4.6310499375774297e-15
aF-37.815392493588739
asVmomentum
p3407
(lp3408
F0
aF0
aF0
asa(dp3409
Vmagmom
p3410
F0
sVindex
p3411
I12
sVsymbol
p3412
VCu
p3413
sVcharge
p3414
F0
sVtag
p3415
I0
sVposition
p3416
(lp3417
F2.997747769316563e-16
aF-1.8641288150001247
aF-34.127065065713666
asVmomentum
p3418
(lp3419
F0
aF0
aF0
asa(dp3420
Vmagmom
p3421
F0
sVindex
p3422
I13
sVsymbol
p3423
VCu
p3424
sVcharge
p3425
F0
sVtag
p3426
I0
sVposition
p3427
(lp3428
F2.997747769316563e-16
aF-1.8641288150001225
aF-15.679662480719955
asVmomentum
p3429
(lp3430
F0
aF0
aF0
asa(dp3431
Vmagmom
p3432
F0
sVindex
p3433
I14
sVsymbol
p3434
VCu
p3435
sVcharge
p3436
F0
sVtag
p3437
I0
sVposition
p3438
(lp3439
F1.8641288150001207
aF-1.8641288150001232
aF-21.215603076379125
asVmomentum
p3440
(lp3441
F0
aF0
aF0
asa(dp3442
Vmagmom
p3443
F0
sVindex
p3444
I15
sVsymbol
p3445
VCu
p3446
sVcharge
p3447
F0
sVtag
p3448
I0
sVposition
p3449
(lp3450
F1.8641288150001205
aF-2.3719741939760816e-15
aF-19.368639150713026
asVmomentum
p3451
(lp3452
F0
aF0
aF0
asa(dp3453
Vmagmom
p3454
F0
sVindex
p3455
I16
sVsymbol
p3456
VCu
p3457
sVcharge
p3458
F0
sVtag
p3459
I0
sVposition
p3460
(lp3461
F0
aF-3.0495972205807675e-15
aF-24.901851070071924
asVmomentum
p3462
(lp3463
F0
aF0
aF0
asa(dp3464
Vmagmom
p3465
F0
sVindex
p3466
I17
sVsymbol
p3467
VCu
p3468
sVcharge
p3469
F0
sVtag
p3470
I0
sVposition
p3471
(lp3472
F2.997747769316563e-16
aF-1.8641288150001234
aF-23.057973497847502
asVmomentum
p3473
(lp3474
F0
aF0
aF0
asa(dp3475
Vmagmom
p3476
F0
sVindex
p3477
I18
sVsymbol
p3478
VCu
p3479
sVcharge
p3480
F0
sVtag
p3481
I0
sVposition
p3482
(lp3483
F1.8641288150001207
aF-1.8641288150001227
aF-17.524150815716492
asVmomentum
p3484
(lp3485
F0
aF0
aF0
asa(dp3486
Vmagmom
p3487
F0
sVindex
p3488
I19
sVsymbol
p3489
VCu
p3490
sVcharge
p3491
F0
sVtag
p3492
I0
sVposition
p3493
(lp3494
F2.997747769316563e-16
aF-1.8641288150001243
aF-30.436682995718119
asVmomentum
p3495
(lp3496
F0
aF0
aF0
asa(dp3497
Vmagmom
p3498
F0
sVindex
p3499
I20
sVsymbol
p3500
VCu
p3501
sVcharge
p3502
F0
sVtag
p3503
I0
sVposition
p3504
(lp3505
F1.8641288150001205
aF-3.7274186407368864e-15
aF-30.436682995718119
asVmomentum
p3506
(lp3507
F0
aF0
aF0
asa(dp3508
Vmagmom
p3509
F0
sVindex
p3510
I21
sVsymbol
p3511
VPd
p3512
sVcharge
p3513
F0
sVtag
p3514
I0
sVposition
p3515
(lp3516
F0
aF-2.5981611544025359e-15
aF-21.215595845361101
asVmomentum
p3517
(lp3518
F0
aF0
aF0
asa(dp3519
Vmagmom
p3520
F0
sVindex
p3521
I22
sVsymbol
p3522
VPd
p3523
sVcharge
p3524
F0
sVtag
p3525
I0
sVposition
p3526
(lp3527
F1.8641288150001207
aF-1.8641288150001245
aF-32.283060434172597
asVmomentum
p3528
(lp3529
F0
aF0
aF0
asa(dp3530
Vmagmom
p3531
F0
sVindex
p3532
I23
sVsymbol
p3533
VPd
p3534
sVcharge
p3535
F0
sVtag
p3536
I0
sVposition
p3537
(lp3538
F0
aF-1.6940178864459998e-15
aF-13.832705786071879
asVmomentum
p3539
(lp3540
F0
aF0
aF0
asa(dp3541
Vmagmom
p3542
F0
sVindex
p3543
I24
sVsymbol
p3544
VPd
p3545
sVcharge
p3546
F0
sVtag
p3547
I0
sVposition
p3548
(lp3549
F1.8641288150001207
aF-1.864128815000125
aF-35.973223507622372
asVmomentum
p3550
(lp3551
F0
aF0
aF0
asa(dp3552
Vmagmom
p3553
F0
sVindex
p3554
I25
sVsymbol
p3555
VPd
p3556
sVcharge
p3557
F0
sVtag
p3558
I0
sVposition
p3559
(lp3560
F0
aF-2.1460895204242681e-15
aF-17.524150815716492
asVmomentum
p3561
(lp3562
F0
aF0
aF0
asa(dp3563
Vmagmom
p3564
F0
sVindex
p3565
I26
sVsymbol
p3566
VPd
p3567
sVcharge
p3568
F0
sVtag
p3569
I0
sVposition
p3570
(lp3571
F1.8641288150001207
aF-1.8641288150001241
aF-28.590305557263651
asVmomentum
p3572
(lp3573
F0
aF0
aF0
asa(dp3574
Vmagmom
p3575
F0
sVindex
p3576
I27
sVsymbol
p3577
VPd
p3578
sVcharge
p3579
F0
sVtag
p3580
I0
sVposition
p3581
(lp3582
F1.8641288150001207
aF-1.8641288150001236
aF-24.900142483813866
asVmomentum
p3583
(lp3584
F0
aF0
aF0
asasVcell
p3585
(lp3586
(lp3587
F3.7282576300002415
aF0
aF0
aa(lp3588
F5.995495538633126e-16
aF-3.7282576300002415
aF2.2828993864882471e-16
aa(lp3589
F0
aF-6.3253164812504753e-15
aF-51.650128720006514
aasVmass
p3590
F2079.4060000000009
sVpbc
p3591
(lp3592
I01
aI01
aI01
asVspacegroup
p3593
VP4mm (99)
p3594
sVconstraints
p3595
(lp3596
(dp3597
Vname
p3598
VFixAtoms
p3599
sVkwargs
p3600
(dp3601
Vindices
p3602
(lp3603
I0
aI1
aI3
aI4
aI5
aI6
aI7
aI9
aI10
aI11
aI12
aI14
aI15
aI16
aI17
aI18
aI19
aI20
aI21
aI22
aI24
aI25
aI26
aI27
assasaa(lp3604
g349
ag2
((ltRp3605
aa(lp3606
g352
ag353
aa(lp3607
g355
aS'ddb9b8cff79361b244d3cc6f64527943261be77b'
p3608
aa(lp3609
g358
ag359
(S'\x07\xe1\x03\x1f\x13++\tM\xd3'
tRp3610
aa(lp3611
g362
ag359
(S'\x07\xe1\x03\x1f\x13++\tM\xdc'
tRp3612
aa(lp3613
g365
a(dp3614
g367
g377
sg378
I00
sg379
g380
sg381
g3258
sg386
g400
sg401
g402
sg403
I00
sg404
g405
sg406
I28
saatRp3615
ag2
((lp3616
(lp3617
g5
a(dp3618
Vinfo
p3619
(dp3620
sVvolume
p3621
F717.93188015543808
sVnatoms
p3622
I28
sVsymbol_counts
p3623
(dp3624
VCu
p3625
I21
sVPd
p3626
I7
ssVchemical_symbols
p3627
(lp3628
VPd
p3629
aVCu
p3630
asVatoms
p3631
(lp3632
(dp3633
Vmagmom
p3634
F0
sVindex
p3635
I0
sVsymbol
p3636
VCu
p3637
sVcharge
p3638
F0
sVtag
p3639
I0
sVposition
p3640
(lp3641
F1.8641288150001205
aF0
aF24.901653471436632
asVmomentum
p3642
(lp3643
F0
aF0
aF0
asa(dp3644
Vmagmom
p3645
F0
sVindex
p3646
I1
sVsymbol
p3647
VCu
p3648
sVcharge
p3649
F0
sVtag
p3650
I0
sVposition
p3651
(lp3652
F0
aF0
aF30.435142493736091
asVmomentum
p3653
(lp3654
F0
aF0
aF0
asa(dp3655
Vmagmom
p3656
F0
sVindex
p3657
I2
sVsymbol
p3658
VCu
p3659
sVcharge
p3660
F0
sVtag
p3661
I0
sVposition
p3662
(lp3663
F1.8641288150001207
aF1.8641288150001205
aF37.813115460771172
asVmomentum
p3664
(lp3665
F0
aF0
aF0
asa(dp3666
Vmagmom
p3667
F0
sVindex
p3668
I3
sVsymbol
p3669
VCu
p3670
sVcharge
p3671
F0
sVtag
p3672
I0
sVposition
p3673
(lp3674
F0
aF0
aF34.12686746707837
asVmomentum
p3675
(lp3676
F0
aF0
aF0
asa(dp3677
Vmagmom
p3678
F0
sVindex
p3679
I4
sVsymbol
p3680
VCu
p3681
sVcharge
p3682
F0
sVtag
p3683
I0
sVposition
p3684
(lp3685
F1.8641288150001205
aF0
aF21.213326043561558
asVmomentum
p3686
(lp3687
F0
aF0
aF0
asa(dp3688
Vmagmom
p3689
F0
sVindex
p3690
I5
sVsymbol
p3691
VCu
p3692
sVcharge
p3693
F0
sVtag
p3694
I0
sVposition
p3695
(lp3696
F2.997747769316563e-16
aF1.8641288150001205
aF35.970745039302798
asVmomentum
p3697
(lp3698
F0
aF0
aF0
asa(dp3699
Vmagmom
p3700
F0
sVindex
p3701
I6
sVsymbol
p3702
VCu
p3703
sVcharge
p3704
F0
sVtag
p3705
I0
sVposition
p3706
(lp3707
F1.8641288150001205
aF0
aF32.282417611427725
asVmomentum
p3708
(lp3709
F0
aF0
aF0
asa(dp3710
Vmagmom
p3711
F0
sVindex
p3712
I7
sVsymbol
p3713
VCu
p3714
sVcharge
p3715
F0
sVtag
p3716
I0
sVposition
p3717
(lp3718
F0
aF0
aF26.748928589128258
asVmomentum
p3719
(lp3720
F0
aF0
aF0
asa(dp3721
Vmagmom
p3722
F0
sVindex
p3723
I8
sVsymbol
p3724
VCu
p3725
sVcharge
p3726
F0
sVtag
p3727
I0
sVposition
p3728
(lp3729
F1.8641288150001205
aF0
aF13.835015026434013
asVmomentum
p3730
(lp3731
F0
aF0
aF0
asa(dp3732
Vmagmom
p3733
F0
sVindex
p3734
I9
sVsymbol
p3735
VCu
p3736
sVcharge
p3737
F0
sVtag
p3738
I0
sVposition
p3739
(lp3740
F2.997747769316563e-16
aF1.8641288150001205
aF24.901653471436632
asVmomentum
p3741
(lp3742
F0
aF0
aF0
asa(dp3743
Vmagmom
p3744
F0
sVindex
p3745
I10
sVsymbol
p3746
VCu
p3747
sVcharge
p3748
F0
sVtag
p3749
I0
sVposition
p3750
(lp3751
F2.997747769316563e-16
aF1.8641288150001205
aF17.523991696427082
asVmomentum
p3752
(lp3753
F0
aF0
aF0
asa(dp3754
Vmagmom
p3755
F0
sVindex
p3756
I11
sVsymbol
p3757
VCu
p3758
sVcharge
p3759
F0
sVtag
p3760
I0
sVposition
p3761
(lp3762
F1.8641288150001205
aF0
aF35.970745039302798
asVmomentum
p3763
(lp3764
F0
aF0
aF0
asa(dp3765
Vmagmom
p3766
F0
sVindex
p3767
I12
sVsymbol
p3768
VCu
p3769
sVcharge
p3770
F0
sVtag
p3771
I0
sVposition
p3772
(lp3773
F2.997747769316563e-16
aF1.8641288150001205
aF32.282417611427725
asVmomentum
p3774
(lp3775
F0
aF0
aF0
asa(dp3776
Vmagmom
p3777
F0
sVindex
p3778
I13
sVsymbol
p3779
VCu
p3780
sVcharge
p3781
F0
sVtag
p3782
I0
sVposition
p3783
(lp3784
F2.997747769316563e-16
aF1.8641288150001205
aF13.835015026434013
asVmomentum
p3785
(lp3786
F0
aF0
aF0
asa(dp3787
Vmagmom
p3788
F0
sVindex
p3789
I14
sVsymbol
p3790
VCu
p3791
sVcharge
p3792
F0
sVtag
p3793
I0
sVposition
p3794
(lp3795
F1.8641288150001207
aF1.8641288150001205
aF19.370955622093177
asVmomentum
p3796
(lp3797
F0
aF0
aF0
asa(dp3798
Vmagmom
p3799
F0
sVindex
p3800
I15
sVsymbol
p3801
VCu
p3802
sVcharge
p3803
F0
sVtag
p3804
I0
sVposition
p3805
(lp3806
F1.8641288150001205
aF0
aF17.523991696427082
asVmomentum
p3807
(lp3808
F0
aF0
aF0
asa(dp3809
Vmagmom
p3810
F0
sVindex
p3811
I16
sVsymbol
p3812
VCu
p3813
sVcharge
p3814
F0
sVtag
p3815
I0
sVposition
p3816
(lp3817
F0
aF0
aF23.05720361578598
asVmomentum
p3818
(lp3819
F0
aF0
aF0
asa(dp3820
Vmagmom
p3821
F0
sVindex
p3822
I17
sVsymbol
p3823
VCu
p3824
sVcharge
p3825
F0
sVtag
p3826
I0
sVposition
p3827
(lp3828
F2.997747769316563e-16
aF1.8641288150001205
aF21.213326043561558
asVmomentum
p3829
(lp3830
F0
aF0
aF0
asa(dp3831
Vmagmom
p3832
F0
sVindex
p3833
I18
sVsymbol
p3834
VCu
p3835
sVcharge
p3836
F0
sVtag
p3837
I0
sVposition
p3838
(lp3839
F1.8641288150001207
aF1.8641288150001205
aF15.679503361430548
asVmomentum
p3840
(lp3841
F0
aF0
aF0
asa(dp3842
Vmagmom
p3843
F0
sVindex
p3844
I19
sVsymbol
p3845
VCu
p3846
sVcharge
p3847
F0
sVtag
p3848
I0
sVposition
p3849
(lp3850
F2.997747769316563e-16
aF1.8641288150001205
aF28.592035541432178
asVmomentum
p3851
(lp3852
F0
aF0
aF0
asa(dp3853
Vmagmom
p3854
F0
sVindex
p3855
I20
sVsymbol
p3856
VCu
p3857
sVcharge
p3858
F0
sVtag
p3859
I0
sVposition
p3860
(lp3861
F1.8641288150001205
aF0
aF28.592035541432178
asVmomentum
p3862
(lp3863
F0
aF0
aF0
asa(dp3864
Vmagmom
p3865
F0
sVindex
p3866
I21
sVsymbol
p3867
VPd
p3868
sVcharge
p3869
F0
sVtag
p3870
I0
sVposition
p3871
(lp3872
F0
aF0
aF19.37094839107516
asVmomentum
p3873
(lp3874
F0
aF0
aF0
asa(dp3875
Vmagmom
p3876
F0
sVindex
p3877
I22
sVsymbol
p3878
VPd
p3879
sVcharge
p3880
F0
sVtag
p3881
I0
sVposition
p3882
(lp3883
F1.8641288150001207
aF1.8641288150001205
aF30.43841297988665
asVmomentum
p3884
(lp3885
F0
aF0
aF0
asa(dp3886
Vmagmom
p3887
F0
sVindex
p3888
I23
sVsymbol
p3889
VPd
p3890
sVcharge
p3891
F0
sVtag
p3892
I0
sVposition
p3893
(lp3894
F0
aF0
aF37.813122691789196
asVmomentum
p3895
(lp3896
F0
aF0
aF0
asa(dp3897
Vmagmom
p3898
F0
sVindex
p3899
I24
sVsymbol
p3900
VPd
p3901
sVcharge
p3902
F0
sVtag
p3903
I0
sVposition
p3904
(lp3905
F1.8641288150001207
aF1.8641288150001205
aF34.128576053336431
asVmomentum
p3906
(lp3907
F0
aF0
aF0
asa(dp3908
Vmagmom
p3909
F0
sVindex
p3910
I25
sVsymbol
p3911
VPd
p3912
sVcharge
p3913
F0
sVtag
p3914
I0
sVposition
p3915
(lp3916
F0
aF0
aF15.679503361430548
asVmomentum
p3917
(lp3918
F0
aF0
aF0
asa(dp3919
Vmagmom
p3920
F0
sVindex
p3921
I26
sVsymbol
p3922
VPd
p3923
sVcharge
p3924
F0
sVtag
p3925
I0
sVposition
p3926
(lp3927
F1.8641288150001207
aF1.8641288150001205
aF26.7456581029777
asVmomentum
p3928
(lp3929
F0
aF0
aF0
asa(dp3930
Vmagmom
p3931
F0
sVindex
p3932
I27
sVsymbol
p3933
VPd
p3934
sVcharge
p3935
F0
sVtag
p3936
I0
sVposition
p3937
(lp3938
F1.8641288150001207
aF1.8641288150001205
aF23.055495029527918
asVmomentum
p3939
(lp3940
F0
aF0
aF0
asasVcell
p3941
(lp3942
(lp3943
F3.7282576300002415
aF0
aF0
aa(lp3944
F5.995495538633126e-16
aF3.7282576300002415
aF2.2828993864882461e-16
aa(lp3945
F0
aF0
aF51.650128720006514
aasVmass
p3946
F2079.4060000000009
sVpbc
p3947
(lp3948
I01
aI01
aI01
asVspacegroup
p3949
VP4mm (99)
p3950
sVconstraints
p3951
(lp3952
(dp3953
Vname
p3954
VFixAtoms
p3955
sVkwargs
p3956
(dp3957
Vindices
p3958
(lp3959
I0
aI1
aI3
aI4
aI6
aI7
aI8
aI9
aI10
aI12
aI13
aI14
aI15
aI16
aI17
aI18
aI19
aI20
aI21
aI22
aI24
aI25
aI26
aI27
assasaa(lp3960
g349
ag2
((ltRp3961
aa(lp3962
g352
ag353
aa(lp3963
g355
aS'57a76ca1f5f707d9e17467fe36bd83755b555f2e'
p3964
aa(lp3965
g358
ag359
(S'\x07\xe1\x03\x1f\x13++\to\xa0'
tRp3966
aa(lp3967
g362
ag359
(S'\x07\xe1\x03\x1f\x13++\to\xa8'
tRp3968
aa(lp3969
g365
a(dp3970
g367
g377
sg378
I00
sg379
g380
sg381
g382
(g384
S'hH\xb2\x9a\xf0#\xd9?'
tRp3971
sg386
g400
sg401
g402
sg403
I01
sg404
g405
sg406
I28
saatRp3972
ag2
((lp3973
(lp3974
g5
a(dp3975
Vinfo
p3976
(dp3977
sVvolume
p3978
F717.93188015543808
sVnatoms
p3979
I28
sVsymbol_counts
p3980
(dp3981
VCu
p3982
I21
sVPd
p3983
I7
ssVchemical_symbols
p3984
(lp3985
VPd
p3986
aVCu
p3987
asVatoms
p3988
(lp3989
(dp3990
Vmagmom
p3991
F0
sVindex
p3992
I0
sVsymbol
p3993
VCu
p3994
sVcharge
p3995
F0
sVtag
p3996
I0
sVposition
p3997
(lp3998
F1.8641288150001205
aF-3.0495730217271449e-15
aF-24.901653471436632
asVmomentum
p3999
(lp4000
F0
aF0
aF0
asa(dp4001
Vmagmom
p4002
F0
sVindex
p4003
I1
sVsymbol
p4004
VCu
p4005
sVcharge
p4006
F0
sVtag
p4007
I0
sVposition
p4008
(lp4009
F0
aF-3.7272299836547496e-15
aF-30.435142493736091
asVmomentum
p4010
(lp4011
F0
aF0
aF0
asa(dp4012
Vmagmom
p4013
F0
sVindex
p4014
I2
sVsymbol
p4015
VCu
p4016
sVcharge
p4017
F0
sVtag
p4018
I0
sVposition
p4019
(lp4020
F1.8641288150001207
aF-1.8641288150001252
aF-37.813115460771172
asVmomentum
p4021
(lp4022
F0
aF0
aF0
asa(dp4023
Vmagmom
p4024
F0
sVindex
p4025
I3
sVsymbol
p4026
VCu
p4027
sVcharge
p4028
F0
sVtag
p4029
I0
sVposition
p4030
(lp4031
F0
aF-4.1793359008483463e-15
aF-34.12686746707837
asVmomentum
p4032
(lp4033
F0
aF0
aF0
asa(dp4034
Vmagmom
p4035
F0
sVindex
p4036
I4
sVsymbol
p4037
VCu
p4038
sVcharge
p4039
F0
sVtag
p4040
I0
sVposition
p4041
(lp4042
F1.8641288150001205
aF-2.5978831838516849e-15
aF-21.213326043561558
asVmomentum
p4043
(lp4044
F0
aF0
aF0
asa(dp4045
Vmagmom
p4046
F0
sVindex
p4047
I5
sVsymbol
p4048
VCu
p4049
sVcharge
p4050
F0
sVtag
p4051
I0
sVposition
p4052
(lp4053
F2.997747769316563e-16
aF-1.864128815000125
aF-35.970745039302798
asVmomentum
p4054
(lp4055
F0
aF0
aF0
asa(dp4056
Vmagmom
p4057
F0
sVindex
p4058
I6
sVsymbol
p4059
VCu
p4060
sVcharge
p4061
F0
sVtag
p4062
I0
sVposition
p4063
(lp4064
F1.8641288150001205
aF-3.953455939657311e-15
aF-32.282417611427725
asVmomentum
p4065
(lp4066
F0
aF0
aF0
asa(dp4067
Vmagmom
p4068
F0
sVindex
p4069
I7
sVsymbol
p4070
VCu
p4071
sVcharge
p4072
F0
sVtag
p4073
I0
sVposition
p4074
(lp4075
F0
aF-3.2757989777297047e-15
aF-26.748928589128258
asVmomentum
p4076
(lp4077
F0
aF0
aF0
asa(dp4078
Vmagmom
p4079
F0
sVindex
p4080
I8
sVsymbol
p4081
VCu
p4082
sVcharge
p4083
F0
sVtag
p4084
I0
sVposition
p4085
(lp4086
F1.8641288150001205
aF-1.6943006868277947e-15
aF-13.835015026434013
asVmomentum
p4087
(lp4088
F0
aF0
aF0
asa(dp4089
Vmagmom
p4090
F0
sVindex
p4091
I9
sVsymbol
p4092
VCu
p4093
sVcharge
p4094
F0
sVtag
p4095
I0
sVposition
p4096
(lp4097
F2.997747769316563e-16
aF-1.8641288150001236
aF-24.901653471436632
asVmomentum
p4098
(lp4099
F0
aF0
aF0
asa(dp4100
Vmagmom
p4101
F0
sVindex
p4102
I10
sVsymbol
p4103
VCu
p4104
sVcharge
p4105
F0
sVtag
p4106
I0
sVposition
p4107
(lp4108
F2.997747769316563e-16
aF-1.8641288150001227
aF-17.523991696427082
asVmomentum
p4109
(lp4110
F0
aF0
aF0
asa(dp4111
Vmagmom
p4112
F0
sVindex
p4113
I11
sVsymbol
p4114
VCu
p4115
sVcharge
p4116
F0
sVtag
p4117
I0
sVposition
p4118
(lp4119
F1.8641288150001205
aF-4.4051457775327706e-15
aF-35.970745039302798
asVmomentum
p4120
(lp4121
F0
aF0
aF0
asa(dp4122
Vmagmom
p4123
F0
sVindex
p4124
I12
sVsymbol
p4125
VCu
p4126
sVcharge
p4127
F0
sVtag
p4128
I0
sVposition
p4129
(lp4130
F2.997747769316563e-16
aF-1.8641288150001245
aF-32.282417611427725
asVmomentum
p4131
(lp4132
F0
aF0
aF0
asa(dp4133
Vmagmom
p4134
F0
sVindex
p4135
I13
sVsymbol
p4136
VCu
p4137
sVcharge
p4138
F0
sVtag
p4139
I0
sVposition
p4140
(lp4141
F2.997747769316563e-16
aF-1.8641288150001223
aF-13.835015026434013
asVmomentum
p4142
(lp4143
F0
aF0
aF0
asa(dp4144
Vmagmom
p4145
F0
sVindex
p4146
I14
sVsymbol
p4147
VCu
p4148
sVcharge
p4149
F0
sVtag
p4150
I0
sVposition
p4151
(lp4152
F1.8641288150001207
aF-1.864128815000123
aF-19.370955622093177
asVmomentum
p4153
(lp4154
F0
aF0
aF0
asa(dp4155
Vmagmom
p4156
F0
sVindex
p4157
I15
sVsymbol
p4158
VCu
p4159
sVcharge
p4160
F0
sVtag
p4161
I0
sVposition
p4162
(lp4163
F1.8641288150001205
aF-2.1460700339314222e-15
aF-17.523991696427082
asVmomentum
p4164
(lp4165
F0
aF0
aF0
asa(dp4166
Vmagmom
p4167
F0
sVindex
p4168
I16
sVsymbol
p4169
VCu
p4170
sVcharge
p4171
F0
sVtag
p4172
I0
sVposition
p4173
(lp4174
F0
aF-2.8236930605361081e-15
aF-23.05720361578598
asVmomentum
p4175
(lp4176
F0
aF0
aF0
asa(dp4177
Vmagmom
p4178
F0
sVindex
p4179
I17
sVsymbol
p4180
VCu
p4181
sVcharge
p4182
F0
sVtag
p4183
I0
sVposition
p4184
(lp4185
F2.997747769316563e-16
aF-1.8641288150001232
aF-21.213326043561558
asVmomentum
p4186
(lp4187
F0
aF0
aF0
asa(dp4188
Vmagmom
p4189
F0
sVindex
p4190
I18
sVsymbol
p4191
VCu
p4192
sVcharge
p4193
F0
sVtag
p4194
I0
sVposition
p4195
(lp4196
F1.8641288150001207
aF-1.8641288150001225
aF-15.679503361430548
asVmomentum
p4197
(lp4198
F0
aF0
aF0
asa(dp4199
Vmagmom
p4200
F0
sVindex
p4201
I19
sVsymbol
p4202
VCu
p4203
sVcharge
p4204
F0
sVtag
p4205
I0
sVposition
p4206
(lp4207
F2.997747769316563e-16
aF-1.8641288150001241
aF-28.592035541432178
asVmomentum
p4208
(lp4209
F0
aF0
aF0
asa(dp4210
Vmagmom
p4211
F0
sVindex
p4212
I20
sVsymbol
p4213
VCu
p4214
sVcharge
p4215
F0
sVtag
p4216
I0
sVposition
p4217
(lp4218
F1.8641288150001205
aF-3.5015144806922278e-15
aF-28.592035541432178
asVmomentum
p4219
(lp4220
F0
aF0
aF0
asa(dp4221
Vmagmom
p4222
F0
sVindex
p4223
I21
sVsymbol
p4224
VPd
p4225
sVcharge
p4226
F0
sVtag
p4227
I0
sVposition
p4228
(lp4229
F0
aF-2.3722569943578765e-15
aF-19.37094839107516
asVmomentum
p4230
(lp4231
F0
aF0
aF0
asa(dp4232
Vmagmom
p4233
F0
sVindex
p4234
I22
sVsymbol
p4235
VPd
p4236
sVcharge
p4237
F0
sVtag
p4238
I0
sVposition
p4239
(lp4240
F1.8641288150001207
aF-1.8641288150001243
aF-30.43841297988665
asVmomentum
p4241
(lp4242
F0
aF0
aF0
asa(dp4243
Vmagmom
p4244
F0
sVindex
p4245
I23
sVsymbol
p4246
VPd
p4247
sVcharge
p4248
F0
sVtag
p4249
I0
sVposition
p4250
(lp4251
F0
aF-4.6307719670265787e-15
aF-37.813122691789196
asVmomentum
p4252
(lp4253
F0
aF0
aF0
asa(dp4254
Vmagmom
p4255
F0
sVindex
p4256
I24
sVsymbol
p4257
VPd
p4258
sVcharge
p4259
F0
sVtag
p4260
I0
sVposition
p4261
(lp4262
F1.8641288150001207
aF-1.8641288150001247
aF-34.128576053336431
asVmomentum
p4263
(lp4264
F0
aF0
aF0
asa(dp4265
Vmagmom
p4266
F0
sVindex
p4267
I25
sVsymbol
p4268
VPd
p4269
sVcharge
p4270
F0
sVtag
p4271
I0
sVposition
p4272
(lp4273
F0
aF-1.9201853603796087e-15
aF-15.679503361430548
asVmomentum
p4274
(lp4275
F0
aF0
aF0
asa(dp4276
Vmagmom
p4277
F0
sVindex
p4278
I26
sVsymbol
p4279
VPd
p4280
sVcharge
p4281
F0
sVtag
p4282
I0
sVposition
p4283
(lp4284
F1.8641288150001207
aF-1.8641288150001238
aF-26.7456581029777
asVmomentum
p4285
(lp4286
F0
aF0
aF0
asa(dp4287
Vmagmom
p4288
F0
sVindex
p4289
I27
sVsymbol
p4290
VPd
p4291
sVcharge
p4292
F0
sVtag
p4293
I0
sVposition
p4294
(lp4295
F1.8641288150001207
aF-1.8641288150001234
aF-23.055495029527918
asVmomentum
p4296
(lp4297
F0
aF0
aF0
asasVcell
p4298
(lp4299
(lp4300
F3.7282576300002415
aF0
aF0
aa(lp4301
F5.995495538633126e-16
aF-3.7282576300002415
aF2.2828993864882471e-16
aa(lp4302
F0
aF-6.3253164812504753e-15
aF-51.650128720006514
aasVmass
p4303
F2079.4060000000009
sVpbc
p4304
(lp4305
I01
aI01
aI01
asVspacegroup
p4306
VP4mm (99)
p4307
sVconstraints
p4308
(lp4309
(dp4310
Vname
p4311
VFixAtoms
p4312
sVkwargs
p4313
(dp4314
Vindices
p4315
(lp4316
I0
aI1
aI2
aI3
aI4
aI5
aI6
aI7
aI9
aI10
aI11
aI12
aI14
aI15
aI16
aI17
aI19
aI20
aI21
aI22
aI23
aI24
aI26
aI27
assasaa(lp4317
g349
ag2
((ltRp4318
aa(lp4319
g352
ag353
aa(lp4320
g355
aS'7414d672470f89a7194b6c9ab6b34b3d615ba37c'
p4321
aa(lp4322
g358
ag359
(S'\x07\xe1\x03\x1f\x13++\t\xb0\xf4'
tRp4323
aa(lp4324
g362
ag359
(S'\x07\xe1\x03\x1f\x13++\t\xb0\xfd'
tRp4325
aa(lp4326
g365
a(dp4327
g367
g377
sg378
I00
sg379
g380
sg381
g3971
sg386
g400
sg401
g402
sg403
I00
sg404
g405
sg406
I28
saatRp4328
ag2
((lp4329
(lp4330
g5
a(dp4331
Vinfo
p4332
(dp4333
sVvolume
p4334
F717.93188015543808
sVnatoms
p4335
I28
sVsymbol_counts
p4336
(dp4337
VCu
p4338
I21
sVPd
p4339
I7
ssVchemical_symbols
p4340
(lp4341
VPd
p4342
aVCu
p4343
asVatoms
p4344
(lp4345
(dp4346
Vmagmom
p4347
F0
sVindex
p4348
I0
sVsymbol
p4349
VCu
p4350
sVcharge
p4351
F0
sVtag
p4352
I0
sVposition
p4353
(lp4354
F1.8641288150001205
aF0
aF23.057006017150687
asVmomentum
p4355
(lp4356
F0
aF0
aF0
asa(dp4357
Vmagmom
p4358
F0
sVindex
p4359
I1
sVsymbol
p4360
VCu
p4361
sVcharge
p4362
F0
sVtag
p4363
I0
sVposition
p4364
(lp4365
F0
aF0
aF28.590495039450147
asVmomentum
p4366
(lp4367
F0
aF0
aF0
asa(dp4368
Vmagmom
p4369
F0
sVindex
p4370
I2
sVsymbol
p4371
VCu
p4372
sVcharge
p4373
F0
sVtag
p4374
I0
sVposition
p4375
(lp4376
F1.8641288150001207
aF1.8641288150001205
aF35.968468006485232
asVmomentum
p4377
(lp4378
F0
aF0
aF0
asa(dp4379
Vmagmom
p4380
F0
sVindex
p4381
I3
sVsymbol
p4382
VCu
p4383
sVcharge
p4384
F0
sVtag
p4385
I0
sVposition
p4386
(lp4387
F0
aF0
aF32.282220012792429
asVmomentum
p4388
(lp4389
F0
aF0
aF0
asa(dp4390
Vmagmom
p4391
F0
sVindex
p4392
I4
sVsymbol
p4393
VCu
p4394
sVcharge
p4395
F0
sVtag
p4396
I0
sVposition
p4397
(lp4398
F1.8641288150001205
aF0
aF19.368678589275614
asVmomentum
p4399
(lp4400
F0
aF0
aF0
asa(dp4401
Vmagmom
p4402
F0
sVindex
p4403
I5
sVsymbol
p4404
VCu
p4405
sVcharge
p4406
F0
sVtag
p4407
I0
sVposition
p4408
(lp4409
F2.997747769316563e-16
aF1.8641288150001205
aF34.126097585016858
asVmomentum
p4410
(lp4411
F0
aF0
aF0
asa(dp4412
Vmagmom
p4413
F0
sVindex
p4414
I6
sVsymbol
p4415
VCu
p4416
sVcharge
p4417
F0
sVtag
p4418
I0
sVposition
p4419
(lp4420
F1.8641288150001205
aF0
aF30.437770157141777
asVmomentum
p4421
(lp4422
F0
aF0
aF0
asa(dp4423
Vmagmom
p4424
F0
sVindex
p4425
I7
sVsymbol
p4426
VCu
p4427
sVcharge
p4428
F0
sVtag
p4429
I0
sVposition
p4430
(lp4431
F0
aF0
aF24.904281134842318
asVmomentum
p4432
(lp4433
F0
aF0
aF0
asa(dp4434
Vmagmom
p4435
F0
sVindex
p4436
I8
sVsymbol
p4437
VCu
p4438
sVcharge
p4439
F0
sVtag
p4440
I0
sVposition
p4441
(lp4442
F1.8641288150001205
aF0
aF37.815431932151327
asVmomentum
p4443
(lp4444
F0
aF0
aF0
asa(dp4445
Vmagmom
p4446
F0
sVindex
p4447
I9
sVsymbol
p4448
VCu
p4449
sVcharge
p4450
F0
sVtag
p4451
I0
sVposition
p4452
(lp4453
F2.997747769316563e-16
aF1.8641288150001205
aF23.057006017150687
asVmomentum
p4454
(lp4455
F0
aF0
aF0
asa(dp4456
Vmagmom
p4457
F0
sVindex
p4458
I10
sVsymbol
p4459
VCu
p4460
sVcharge
p4461
F0
sVtag
p4462
I0
sVposition
p4463
(lp4464
F2.997747769316563e-16
aF1.8641288150001205
aF15.67934424214114
asVmomentum
p4465
(lp4466
F0
aF0
aF0
asa(dp4467
Vmagmom
p4468
F0
sVindex
p4469
I11
sVsymbol
p4470
VCu
p4471
sVcharge
p4472
F0
sVtag
p4473
I0
sVposition
p4474
(lp4475
F1.8641288150001205
aF0
aF34.126097585016858
asVmomentum
p4476
(lp4477
F0
aF0
aF0
asa(dp4478
Vmagmom
p4479
F0
sVindex
p4480
I12
sVsymbol
p4481
VCu
p4482
sVcharge
p4483
F0
sVtag
p4484
I0
sVposition
p4485
(lp4486
F2.997747769316563e-16
aF1.8641288150001205
aF30.437770157141777
asVmomentum
p4487
(lp4488
F0
aF0
aF0
asa(dp4489
Vmagmom
p4490
F0
sVindex
p4491
I13
sVsymbol
p4492
VCu
p4493
sVcharge
p4494
F0
sVtag
p4495
I0
sVposition
p4496
(lp4497
F2.997747769316563e-16
aF1.8641288150001205
aF37.815431932151327
asVmomentum
p4498
(lp4499
F0
aF0
aF0
asa(dp4500
Vmagmom
p4501
F0
sVindex
p4502
I14
sVsymbol
p4503
VCu
p4504
sVcharge
p4505
F0
sVtag
p4506
I0
sVposition
p4507
(lp4508
F1.8641288150001207
aF1.8641288150001205
aF17.526308167807237
asVmomentum
p4509
(lp4510
F0
aF0
aF0
asa(dp4511
Vmagmom
p4512
F0
sVindex
p4513
I15
sVsymbol
p4514
VCu
p4515
sVcharge
p4516
F0
sVtag
p4517
I0
sVposition
p4518
(lp4519
F1.8641288150001205
aF0
aF15.67934424214114
asVmomentum
p4520
(lp4521
F0
aF0
aF0
asa(dp4522
Vmagmom
p4523
F0
sVindex
p4524
I16
sVsymbol
p4525
VCu
p4526
sVcharge
p4527
F0
sVtag
p4528
I0
sVposition
p4529
(lp4530
F0
aF0
aF21.212556161500039
asVmomentum
p4531
(lp4532
F0
aF0
aF0
asa(dp4533
Vmagmom
p4534
F0
sVindex
p4535
I17
sVsymbol
p4536
VCu
p4537
sVcharge
p4538
F0
sVtag
p4539
I0
sVposition
p4540
(lp4541
F2.997747769316563e-16
aF1.8641288150001205
aF19.368678589275614
asVmomentum
p4542
(lp4543
F0
aF0
aF0
asa(dp4544
Vmagmom
p4545
F0
sVindex
p4546
I18
sVsymbol
p4547
VCu
p4548
sVcharge
p4549
F0
sVtag
p4550
I0
sVposition
p4551
(lp4552
F1.8641288150001207
aF1.8641288150001205
aF13.834855907144604
asVmomentum
p4553
(lp4554
F0
aF0
aF0
asa(dp4555
Vmagmom
p4556
F0
sVindex
p4557
I19
sVsymbol
p4558
VCu
p4559
sVcharge
p4560
F0
sVtag
p4561
I0
sVposition
p4562
(lp4563
F2.997747769316563e-16
aF1.8641288150001205
aF26.747388087146234
asVmomentum
p4564
(lp4565
F0
aF0
aF0
asa(dp4566
Vmagmom
p4567
F0
sVindex
p4568
I20
sVsymbol
p4569
VCu
p4570
sVcharge
p4571
F0
sVtag
p4572
I0
sVposition
p4573
(lp4574
F1.8641288150001205
aF0
aF26.747388087146234
asVmomentum
p4575
(lp4576
F0
aF0
aF0
asa(dp4577
Vmagmom
p4578
F0
sVindex
p4579
I21
sVsymbol
p4580
VPd
p4581
sVcharge
p4582
F0
sVtag
p4583
I0
sVposition
p4584
(lp4585
F0
aF0
aF17.526300936789216
asVmomentum
p4586
(lp4587
F0
aF0
aF0
asa(dp4588
Vmagmom
p4589
F0
sVindex
p4590
I22
sVsymbol
p4591
VPd
p4592
sVcharge
p4593
F0
sVtag
p4594
I0
sVposition
p4595
(lp4596
F1.8641288150001207
aF1.8641288150001205
aF28.593765525600709
asVmomentum
p4597
(lp4598
F0
aF0
aF0
asa(dp4599
Vmagmom
p4600
F0
sVindex
p4601
I23
sVsymbol
p4602
VPd
p4603
sVcharge
p4604
F0
sVtag
p4605
I0
sVposition
p4606
(lp4607
F0
aF0
aF35.968475237503249
asVmomentum
p4608
(lp4609
F0
aF0
aF0
asa(dp4610
Vmagmom
p4611
F0
sVindex
p4612
I24
sVsymbol
p4613
VPd
p4614
sVcharge
p4615
F0
sVtag
p4616
I0
sVposition
p4617
(lp4618
F1.8641288150001207
aF1.8641288150001205
aF32.283928599050491
asVmomentum
p4619
(lp4620
F0
aF0
aF0
asa(dp4621
Vmagmom
p4622
F0
sVindex
p4623
I25
sVsymbol
p4624
VPd
p4625
sVcharge
p4626
F0
sVtag
p4627
I0
sVposition
p4628
(lp4629
F0
aF0
aF13.834855907144604
asVmomentum
p4630
(lp4631
F0
aF0
aF0
asa(dp4632
Vmagmom
p4633
F0
sVindex
p4634
I26
sVsymbol
p4635
VPd
p4636
sVcharge
p4637
F0
sVtag
p4638
I0
sVposition
p4639
(lp4640
F1.8641288150001207
aF1.8641288150001205
aF24.901010648691759
asVmomentum
p4641
(lp4642
F0
aF0
aF0
asa(dp4643
Vmagmom
p4644
F0
sVindex
p4645
I27
sVsymbol
p4646
VPd
p4647
sVcharge
p4648
F0
sVtag
p4649
I0
sVposition
p4650
(lp4651
F1.8641288150001207
aF1.8641288150001205
aF21.210847575241974
asVmomentum
p4652
(lp4653
F0
aF0
aF0
asasVcell
p4654
(lp4655
(lp4656
F3.7282576300002415
aF0
aF0
aa(lp4657
F5.995495538633126e-16
aF3.7282576300002415
aF2.2828993864882461e-16
aa(lp4658
F0
aF0
aF51.650128720006514
aasVmass
p4659
F2079.4060000000009
sVpbc
p4660
(lp4661
I01
aI01
aI01
asVspacegroup
p4662
VP4mm (99)
p4663
sVconstraints
p4664
(lp4665
(dp4666
Vname
p4667
VFixAtoms
p4668
sVkwargs
p4669
(dp4670
Vindices
p4671
(lp4672
I0
aI1
aI3
aI4
aI5
aI6
aI7
aI9
aI10
aI11
aI12
aI14
aI15
aI16
aI17
aI18
aI19
aI20
aI21
aI22
aI24
aI25
aI26
aI27
assasaa(lp4673
g349
ag2
((ltRp4674
aa(lp4675
g352
ag353
aa(lp4676
g355
aS'b42318cb75a46a046dc6d09306801cf751389c57'
p4677
aa(lp4678
g358
ag359
(S'\x07\xe1\x03\x1f\x13++\t\xd2\x90'
tRp4679
aa(lp4680
g362
ag359
(S'\x07\xe1\x03\x1f\x13++\t\xd2\x98'
tRp4681
aa(lp4682
g365
a(dp4683
g367
g377
sg378
I00
sg379
g380
sg381
g382
(g384
S'\xe4&\x9bY\xe8\xb6\xdd?'
tRp4684
sg386
g400
sg401
g402
sg403
I01
sg404
g405
sg406
I28
saatRp4685
ag2
((lp4686
(lp4687
g5
a(dp4688
Vinfo
p4689
(dp4690
sVvolume
p4691
F717.93188015543808
sVnatoms
p4692
I28
sVsymbol_counts
p4693
(dp4694
VCu
p4695
I21
sVPd
p4696
I7
ssVchemical_symbols
p4697
(lp4698
VPd
p4699
aVCu
p4700
asVatoms
p4701
(lp4702
(dp4703
Vmagmom
p4704
F0
sVindex
p4705
I0
sVsymbol
p4706
VCu
p4707
sVcharge
p4708
F0
sVtag
p4709
I0
sVposition
p4710
(lp4711
F1.8641288150001205
aF-2.8236688616824851e-15
aF-23.057006017150687
asVmomentum
p4712
(lp4713
F0
aF0
aF0
asa(dp4714
Vmagmom
p4715
F0
sVindex
p4716
I1
sVsymbol
p4717
VCu
p4718
sVcharge
p4719
F0
sVtag
p4720
I0
sVposition
p4721
(lp4722
F0
aF-3.5013258236100902e-15
aF-28.590495039450147
asVmomentum
p4723
(lp4724
F0
aF0
aF0
asa(dp4725
Vmagmom
p4726
F0
sVindex
p4727
I2
sVsymbol
p4728
VCu
p4729
sVcharge
p4730
F0
sVtag
p4731
I0
sVposition
p4732
(lp4733
F1.8641288150001207
aF-1.864128815000125
aF-35.968468006485232
asVmomentum
p4734
(lp4735
F0
aF0
aF0
asa(dp4736
Vmagmom
p4737
F0
sVindex
p4738
I3
sVsymbol
p4739
VCu
p4740
sVcharge
p4741
F0
sVtag
p4742
I0
sVposition
p4743
(lp4744
F0
aF-3.9534317408036873e-15
aF-32.282220012792429
asVmomentum
p4745
(lp4746
F0
aF0
aF0
asa(dp4747
Vmagmom
p4748
F0
sVindex
p4749
I4
sVsymbol
p4750
VCu
p4751
sVcharge
p4752
F0
sVtag
p4753
I0
sVposition
p4754
(lp4755
F1.8641288150001205
aF-2.3719790238070255e-15
aF-19.368678589275614
asVmomentum
p4756
(lp4757
F0
aF0
aF0
asa(dp4758
Vmagmom
p4759
F0
sVindex
p4760
I5
sVsymbol
p4761
VCu
p4762
sVcharge
p4763
F0
sVtag
p4764
I0
sVposition
p4765
(lp4766
F2.997747769316563e-16
aF-1.8641288150001247
aF-34.126097585016858
asVmomentum
p4767
(lp4768
F0
aF0
aF0
asa(dp4769
Vmagmom
p4770
F0
sVindex
p4771
I6
sVsymbol
p4772
VCu
p4773
sVcharge
p4774
F0
sVtag
p4775
I0
sVposition
p4776
(lp4777
F1.8641288150001205
aF-3.7275517796126504e-15
aF-30.437770157141777
asVmomentum
p4778
(lp4779
F0
aF0
aF0
asa(dp4780
Vmagmom
p4781
F0
sVindex
p4782
I7
sVsymbol
p4783
VCu
p4784
sVcharge
p4785
F0
sVtag
p4786
I0
sVposition
p4787
(lp4788
F0
aF-3.0498948176850457e-15
aF-24.904281134842318
asVmomentum
p4789
(lp4790
F0
aF0
aF0
asa(dp4791
Vmagmom
p4792
F0
sVindex
p4793
I8
sVsymbol
p4794
VCu
p4795
sVcharge
p4796
F0
sVtag
p4797
I0
sVposition
p4798
(lp4799
F1.8641288150001205
aF-4.6310547674083735e-15
aF-37.815431932151327
asVmomentum
p4800
(lp4801
F0
aF0
aF0
asa(dp4802
Vmagmom
p4803
F0
sVindex
p4804
I9
sVsymbol
p4805
VCu
p4806
sVcharge
p4807
F0
sVtag
p4808
I0
sVposition
p4809
(lp4810
F2.997747769316563e-16
aF-1.8641288150001234
aF-23.057006017150687
asVmomentum
p4811
(lp4812
F0
aF0
aF0
asa(dp4813
Vmagmom
p4814
F0
sVindex
p4815
I10
sVsymbol
p4816
VCu
p4817
sVcharge
p4818
F0
sVtag
p4819
I0
sVposition
p4820
(lp4821
F2.997747769316563e-16
aF-1.8641288150001225
aF-15.67934424214114
asVmomentum
p4822
(lp4823
F0
aF0
aF0
asa(dp4824
Vmagmom
p4825
F0
sVindex
p4826
I11
sVsymbol
p4827
VCu
p4828
sVcharge
p4829
F0
sVtag
p4830
I0
sVposition
p4831
(lp4832
F1.8641288150001205
aF-4.1792416174881116e-15
aF-34.126097585016858
asVmomentum
p4833
(lp4834
F0
aF0
aF0
asa(dp4835
Vmagmom
p4836
F0
sVindex
p4837
I12
sVsymbol
p4838
VCu
p4839
sVcharge
p4840
F0
sVtag
p4841
I0
sVposition
p4842
(lp4843
F2.997747769316563e-16
aF-1.8641288150001243
aF-30.437770157141777
asVmomentum
p4844
(lp4845
F0
aF0
aF0
asa(dp4846
Vmagmom
p4847
F0
sVindex
p4848
I13
sVsymbol
p4849
VCu
p4850
sVcharge
p4851
F0
sVtag
p4852
I0
sVposition
p4853
(lp4854
F2.997747769316563e-16
aF-1.8641288150001252
aF-37.815431932151327
asVmomentum
p4855
(lp4856
F0
aF0
aF0
asa(dp4857
Vmagmom
p4858
F0
sVindex
p4859
I14
sVsymbol
p4860
VCu
p4861
sVcharge
p4862
F0
sVtag
p4863
I0
sVposition
p4864
(lp4865
F1.8641288150001207
aF-1.8641288150001227
aF-17.526308167807237
asVmomentum
p4866
(lp4867
F0
aF0
aF0
asa(dp4868
Vmagmom
p4869
F0
sVindex
p4870
I15
sVsymbol
p4871
VCu
p4872
sVcharge
p4873
F0
sVtag
p4874
I0
sVposition
p4875
(lp4876
F1.8641288150001205
aF-1.9201658738867628e-15
aF-15.67934424214114
asVmomentum
p4877
(lp4878
F0
aF0
aF0
asa(dp4879
Vmagmom
p4880
F0
sVindex
p4881
I16
sVsymbol
p4882
VCu
p4883
sVcharge
p4884
F0
sVtag
p4885
I0
sVposition
p4886
(lp4887
F0
aF-2.5977889004914487e-15
aF-21.212556161500039
asVmomentum
p4888
(lp4889
F0
aF0
aF0
asa(dp4890
Vmagmom
p4891
F0
sVindex
p4892
I17
sVsymbol
p4893
VCu
p4894
sVcharge
p4895
F0
sVtag
p4896
I0
sVposition
p4897
(lp4898
F2.997747769316563e-16
aF-1.864128815000123
aF-19.368678589275614
asVmomentum
p4899
(lp4900
F0
aF0
aF0
asa(dp4901
Vmagmom
p4902
F0
sVindex
p4903
I18
sVsymbol
p4904
VCu
p4905
sVcharge
p4906
F0
sVtag
p4907
I0
sVposition
p4908
(lp4909
F1.8641288150001207
aF-1.8641288150001223
aF-13.834855907144604
asVmomentum
p4910
(lp4911
F0
aF0
aF0
asa(dp4912
Vmagmom
p4913
F0
sVindex
p4914
I19
sVsymbol
p4915
VCu
p4916
sVcharge
p4917
F0
sVtag
p4918
I0
sVposition
p4919
(lp4920
F2.997747769316563e-16
aF-1.8641288150001238
aF-26.747388087146234
asVmomentum
p4921
(lp4922
F0
aF0
aF0
asa(dp4923
Vmagmom
p4924
F0
sVindex
p4925
I20
sVsymbol
p4926
VCu
p4927
sVcharge
p4928
F0
sVtag
p4929
I0
sVposition
p4930
(lp4931
F1.8641288150001205
aF-3.2756103206475684e-15
aF-26.747388087146234
asVmomentum
p4932
(lp4933
F0
aF0
aF0
asa(dp4934
Vmagmom
p4935
F0
sVindex
p4936
I21
sVsymbol
p4937
VPd
p4938
sVcharge
p4939
F0
sVtag
p4940
I0
sVposition
p4941
(lp4942
F0
aF-2.146352834313217e-15
aF-17.526300936789216
asVmomentum
p4943
(lp4944
F0
aF0
aF0
asa(dp4945
Vmagmom
p4946
F0
sVindex
p4947
I22
sVsymbol
p4948
VPd
p4949
sVcharge
p4950
F0
sVtag
p4951
I0
sVposition
p4952
(lp4953
F1.8641288150001207
aF-1.8641288150001241
aF-28.593765525600709
asVmomentum
p4954
(lp4955
F0
aF0
aF0
asa(dp4956
Vmagmom
p4957
F0
sVindex
p4958
I23
sVsymbol
p4959
VPd
p4960
sVcharge
p4961
F0
sVtag
p4962
I0
sVposition
p4963
(lp4964
F0
aF-4.4048678069819189e-15
aF-35.968475237503249
asVmomentum
p4965
(lp4966
F0
aF0
aF0
asa(dp4967
Vmagmom
p4968
F0
sVindex
p4969
I24
sVsymbol
p4970
VPd
p4971
sVcharge
p4972
F0
sVtag
p4973
I0
sVposition
p4974
(lp4975
F1.8641288150001207
aF-1.8641288150001245
aF-32.283928599050491
asVmomentum
p4976
(lp4977
F0
aF0
aF0
asa(dp4978
Vmagmom
p4979
F0
sVindex
p4980
I25
sVsymbol
p4981
VPd
p4982
sVcharge
p4983
F0
sVtag
p4984
I0
sVposition
p4985
(lp4986
F0
aF-1.6942812003349491e-15
aF-13.834855907144604
asVmomentum
p4987
(lp4988
F0
aF0
aF0
asa(dp4989
Vmagmom
p4990
F0
sVindex
p4991
I26
sVsymbol
p4992
VPd
p4993
sVcharge
p4994
F0
sVtag
p4995
I0
sVposition
p4996
(lp4997
F1.8641288150001207
aF-1.8641288150001236
aF-24.901010648691759
asVmomentum
p4998
(lp4999
F0
aF0
aF0
asa(dp5000
Vmagmom
p5001
F0
sVindex
p5002
I27
sVsymbol
p5003
VPd
p5004
sVcharge
p5005
F0
sVtag
p5006
I0
sVposition
p5007
(lp5008
F1.8641288150001207
aF-1.8641288150001232
aF-21.210847575241974
asVmomentum
p5009
(lp5010
F0
aF0
aF0
asasVcell
p5011
(lp5012
(lp5013
F3.7282576300002415
aF0
aF0
aa(lp5014
F5.995495538633126e-16
aF-3.7282576300002415
aF2.2828993864882471e-16
aa(lp5015
F0
aF-6.3253164812504753e-15
aF-51.650128720006514
aasVmass
p5016
F2079.4060000000009
sVpbc
p5017
(lp5018
I01
aI01
aI01
asVspacegroup
p5019
VP4mm (99)
p5020
sVconstraints
p5021
(lp5022
(dp5023
Vname
p5024
VFixAtoms
p5025
sVkwargs
p5026
(dp5027
Vindices
p5028
(lp5029
I0
aI1
aI2
aI3
aI4
aI5
aI6
aI7
aI8
aI9
aI11
aI12
aI13
aI14
aI16
aI17
aI19
aI20
aI21
aI22
aI23
aI24
aI26
aI27
assasaa(lp5030
g349
ag2
((ltRp5031
aa(lp5032
g352
ag353
aa(lp5033
g355
aS'a2cd7b54711147f96e27596e946e96cbdfacb909'
p5034
aa(lp5035
g358
ag359
(S'\x07\xe1\x03\x1f\x13++\n\x13\xe7'
tRp5036
aa(lp5037
g362
ag359
(S'\x07\xe1\x03\x1f\x13++\n\x13\xef'
tRp5038
aa(lp5039
g365
a(dp5040
g367
g377
sg378
I00
sg379
g380
sg381
g4684
sg386
g400
sg401
g402
sg403
I00
sg404
g405
sg406
I28
saatRp5041
a.