(lp1
ccollections
OrderedDict
p2
((lp3
(lp4
S'atoms'
p5
a(dp6
Vinfo
p7
(dp8
sVvolume
p9
F212.83571298055952
sVnatoms
p10
I6
sVsymbol_counts
p11
(dp12
VCu
p13
I6
ssVchemical_symbols
p14
(lp15
VCu
p16
asVatoms
p17
(lp18
(dp19
Vmagmom
p20
F0
sVindex
p21
I0
sVsymbol
p22
VCu
p23
sVcharge
p24
F0
sVtag
p25
I0
sVposition
p26
(lp27
F-8.8817841970012523e-16
aF1.4763920719520498
aF13.571568994975566
asVmomentum
p28
(lp29
F0
aF0
aF0
asa(dp30
Vmagmom
p31
F0
sVindex
p32
I1
sVsymbol
p33
VCu
p34
sVcharge
p35
F0
sVtag
p36
I0
sVposition
p37
(lp38
F-1.2785930402564176
aF2.2145881079280736
aF17.747436378044974
asVmomentum
p39
(lp40
F0
aF0
aF0
asa(dp41
Vmagmom
p42
F0
sVindex
p43
I2
sVsymbol
p44
VCu
p45
sVcharge
p46
F0
sVtag
p47
I0
sVposition
p48
(lp49
F1.2785930402564176
aF0.73819603597602423
aF15.659502686510271
asVmomentum
p50
(lp51
F0
aF0
aF0
asa(dp52
Vmagmom
p53
F0
sVindex
p54
I3
sVsymbol
p55
VCu
p56
sVcharge
p57
F0
sVtag
p58
I0
sVposition
p59
(lp60
F0
aF1.4763920719520502
aF19.835370069579675
asVmomentum
p61
(lp62
F0
aF0
aF0
asa(dp63
Vmagmom
p64
F0
sVindex
p65
I4
sVsymbol
p66
VCu
p67
sVcharge
p68
F0
sVtag
p69
I0
sVposition
p70
(lp71
F-1.2785930402564176
aF2.2145881079280736
aF24.011237452649077
asVmomentum
p72
(lp73
F0
aF0
aF0
asa(dp74
Vmagmom
p75
F0
sVindex
p76
I5
sVsymbol
p77
VCu
p78
sVcharge
p79
F0
sVtag
p80
I0
sVposition
p81
(lp82
F1.2785930402564176
aF0.73819603597602512
aF21.923303761114376
asVmomentum
p83
(lp84
F0
aF0
aF0
asasVcell
p85
(lp86
(lp87
F2.5571860805128352
aF0
aF4.4408920985006262e-16
aa(lp88
F-1.2785930402564178
aF2.2145881079280736
aF0
aa(lp89
F-1.7763568394002505e-15
aF0
aF37.582806447624641
aasVmass
p90
F381.27600000000001
sVpbc
p91
(lp92
I01
aI01
aI01
asVspacegroup
p93
VP-3m1 (164)
p94
sVconstraints
p95
(lp96
(dp97
Vname
p98
VFixAtoms
p99
sVkwargs
p100
(dp101
Vindices
p102
(lp103
I0
aI1
aI2
aI3
assasaa(lp104
S'results'
p105
ag2
((ltRp106
aa(lp107
S'user'
p108
aS'ktran'
p109
aa(lp110
S'inserted-hash'
p111
aS'f5d38b90ac3a32ac6edc32f1191116165d2e5e0c'
p112
aa(lp113
S'ctime'
p114
acdatetime
datetime
p115
(S'\x07\xe1\x03\x1f\x13)+\x00[\xd4'
tRp116
aa(lp117
S'mtime'
p118
ag115
(S'\x07\xe1\x03\x1f\x13)+\x00[\xff'
tRp119
aa(lp120
S'tags'
p121
a(dp122
S'get_slab_settings'
p123
g2
((lp124
(lp125
S'max_broken_bonds'
p126
aI0
aa(lp127
S'bonds'
p128
aNaa(lp129
S'tol'
p130
aF0.29999999999999999
aa(lp131
S'symmetrize'
p132
aI00
aatRp133
sS'relaxed'
p134
I00
sS'mpid'
p135
Vmp-30
p136
sS'shift'
p137
I0
sS'slab_generate_settings'
p138
g2
((lp139
(lp140
S'primitive'
p141
aI01
aa(lp142
S'min_vacuum_size'
p143
aF20
aa(lp144
S'lll_reduce'
p145
aI00
aa(lp146
S'max_normal_search'
p147
aI1
aa(lp148
S'min_slab_size'
p149
aF7
aa(lp150
S'center_slab'
p151
aI01
aatRp152
sS'miller'
p153
(I1
I1
I1
tp154
sS'top'
p155
I01
sS'type'
p156
S'slab'
p157
sS'num_slab_atoms'
p158
I6
saatRp159
a.